	.text
	.file	"ata.c"
	.globl	jhc_hs_init             # -- Begin function jhc_hs_init
	.p2align	4, 0x90
	.type	jhc_hs_init,@function
jhc_hs_init:                            # @jhc_hs_init
	.cfi_startproc
# %bb.0:
	pushq	%rax
	.cfi_def_cfa_offset 16
	movq	arena(%rip), %rsi
	movl	$cP1__W$__fInstance$__iJhc_Show_showsPrec_Main_AtaCapabilities$d2, %edi
	movl	$2, %edx
	xorl	%ecx, %ecx
	callq	find_cache
	movq	arena(%rip), %rsi
	movl	$cFW$__fInstance$__iJhc_Show_showsPrec_Main_AtaCapabilities$d5, %edi
	movl	$4, %edx
	movl	$2, %ecx
	callq	find_cache
	movq	arena(%rip), %rsi
	movl	$cFW$__fInstance$__iJhc_Show_showsPrec_Main_AtaCapabilities$d4, %edi
	movl	$4, %edx
	movl	$2, %ecx
	callq	find_cache
	movq	arena(%rip), %rsi
	movl	$cFW$__fInstance$__iJhc_Show_showsPrec_Main_AtaCapabilities$d3, %edi
	movl	$4, %edx
	movl	$2, %ecx
	callq	find_cache
	movq	arena(%rip), %rsi
	movl	$cFJhc_Basics_117__g, %edi
	movl	$2, %edx
	movl	$2, %ecx
	callq	find_cache
	movq	arena(%rip), %rsi
	movl	$cFJhc_Text_Read_nonnull$d2, %edi
	movl	$4, %edx
	movl	$3, %ecx
	callq	find_cache
	movq	arena(%rip), %rsi
	movl	$cFW$__fJhc_List_span$d5, %edi
	movl	$2, %edx
	movl	$2, %ecx
	callq	find_cache
	movq	arena(%rip), %rsi
	movl	$cFW$__fJhc_List_span$d4, %edi
	movl	$2, %edx
	movl	$2, %ecx
	callq	find_cache
	movq	arena(%rip), %rsi
	movl	$cFW$__fJhc_List_span$d3, %edi
	movl	$4, %edx
	movl	$3, %ecx
	callq	find_cache
	movq	arena(%rip), %rsi
	movl	$cP1__W$__fJhc_List_span$d2, %edi
	movl	$2, %edx
	movl	$2, %ecx
	callq	find_cache
	movq	arena(%rip), %rsi
	movl	$cP1__Data_Binary_get$d3, %edi
	movl	$4, %edx
	movl	$3, %ecx
	callq	find_cache
	movq	arena(%rip), %rsi
	movl	$cFJhc_Text_Read_readDec$d5, %edi
	movl	$4, %edx
	movl	$3, %ecx
	callq	find_cache
	movq	arena(%rip), %rsi
	movl	$cP2__Data_Binary_get$d3, %edi
	movl	$2, %edx
	movl	$2, %ecx
	callq	find_cache
	movq	arena(%rip), %rsi
	movl	$cFJhc_Text_Read_readDec$d6, %edi
	movl	$4, %edx
	movl	$3, %ecx
	callq	find_cache
	movq	arena(%rip), %rsi
	movl	$cP1__Data_Binary_get$d4, %edi
	movl	$4, %edx
	movl	$3, %ecx
	callq	find_cache
	movq	arena(%rip), %rsi
	movl	$cCHos_Init_Msg_InitFoundProvider, %edi
	movl	$2, %edx
	movl	$1, %ecx
	callq	find_cache
	movq	arena(%rip), %rsi
	movl	$cP2__Data_Binary_get$d4, %edi
	movl	$2, %edx
	movl	$2, %ecx
	callq	find_cache
	movq	arena(%rip), %rsi
	movl	$cP1__Data_Binary_get$d5, %edi
	movl	$4, %edx
	movl	$3, %ecx
	callq	find_cache
	movq	arena(%rip), %rsi
	movl	$cP2__Data_Binary_get$d5, %edi
	movl	$2, %edx
	movl	$2, %ecx
	callq	find_cache
	movq	arena(%rip), %rsi
	movl	$cP2__W$__fData_Binary_put$d2, %edi
	movl	$4, %edx
	movl	$3, %ecx
	callq	find_cache
	movq	arena(%rip), %rsi
	movl	$cP2__W$__fData_Binary_put$d4, %edi
	movl	$4, %edx
	movl	$3, %ecx
	callq	find_cache
	movq	arena(%rip), %rsi
	movl	$cP2__W$__fData_Binary_put$d6, %edi
	movl	$4, %edx
	movl	$3, %ecx
	callq	find_cache
	movq	arena(%rip), %rsi
	movl	$cP2__W$__fData_Binary_put$d8, %edi
	movl	$6, %edx
	movl	$4, %ecx
	callq	find_cache
	movq	arena(%rip), %rsi
	movl	$cFW$__fData_Binary_put$d10, %edi
	movl	$4, %edx
	movl	$2, %ecx
	callq	find_cache
	movq	arena(%rip), %rsi
	movl	$cFW$__fData_Binary_put$d9, %edi
	movl	$4, %edx
	movl	$2, %ecx
	callq	find_cache
	movq	arena(%rip), %rsi
	movl	$cFW$__fData_Binary_put$d7, %edi
	movl	$4, %edx
	movl	$2, %ecx
	callq	find_cache
	movq	arena(%rip), %rsi
	movl	$cFW$__fData_Binary_put$d5, %edi
	movl	$4, %edx
	movl	$2, %ecx
	callq	find_cache
	movq	arena(%rip), %rsi
	movl	$cFW$__fData_Binary_put$d3, %edi
	movl	$4, %edx
	movl	$2, %ecx
	callq	find_cache
	movq	arena(%rip), %rsi
	movl	$cFtheMain$d21, %edi
	movl	$2, %edx
	movl	$1, %ecx
	callq	find_cache
	movq	arena(%rip), %rsi
	movl	$cFtheMain$d18, %edi
	movl	$2, %edx
	movl	$2, %ecx
	callq	find_cache
	movq	arena(%rip), %rsi
	movl	$cFtheMain$d17, %edi
	movl	$2, %edx
	movl	$2, %ecx
	callq	find_cache
	movq	arena(%rip), %rsi
	movl	$cFtheMain$d14, %edi
	movl	$2, %edx
	movl	$2, %ecx
	callq	find_cache
	movq	arena(%rip), %rsi
	movl	$cFtheMain$d13, %edi
	movl	$2, %edx
	movl	$2, %ecx
	callq	find_cache
	movq	arena(%rip), %rsi
	movl	$cFW$__fInstance$__iData_Binary_put_Jhc_Type_Basic_Char$d2, %edi
	movl	$2, %edx
	movl	$2, %ecx
	callq	find_cache
	movq	arena(%rip), %rsi
	movl	$cP2__W$__fData_Binary_storableB$d3, %edi
	movl	$2, %edx
	movl	$2, %ecx
	callq	find_cache
	movq	arena(%rip), %rsi
	movl	$cP2__W$__fData_Binary_storableB$d2, %edi
	movl	$4, %edx
	movl	$3, %ecx
	callq	find_cache
	movq	arena(%rip), %rsi
	movl	$cP2__W$__fData_Binary_storableB$d5, %edi
	movl	$2, %edx
	movl	$2, %ecx
	callq	find_cache
	movq	arena(%rip), %rsi
	movl	$cP2__W$__fData_Binary_storableB$d4, %edi
	movl	$4, %edx
	movl	$3, %ecx
	callq	find_cache
	movq	arena(%rip), %rsi
	movl	$cP2__W$__fData_Binary_storableB$d7, %edi
	movl	$2, %edx
	movl	$2, %ecx
	callq	find_cache
	movq	arena(%rip), %rsi
	movl	$cP2__W$__fData_Binary_storableB$d6, %edi
	movl	$4, %edx
	movl	$3, %ecx
	callq	find_cache
	movq	arena(%rip), %rsi
	movl	$cP1__W$__fData_Binary_storableB$d3, %edi
	movl	$4, %edx
	movl	$3, %ecx
	callq	find_cache
	movq	arena(%rip), %rsi
	movl	$cP2__W$__fData_Binary_storableB$d9, %edi
	movl	$2, %edx
	movl	$2, %ecx
	callq	find_cache
	movq	arena(%rip), %rsi
	movl	$cP2__W$__fData_Binary_storableB$d8, %edi
	movl	$4, %edx
	movl	$3, %ecx
	callq	find_cache
	movq	arena(%rip), %rsi
	movl	$cP2__W$__fData_Binary_storableB$d11, %edi
	movl	$2, %edx
	movl	$2, %ecx
	callq	find_cache
	movq	arena(%rip), %rsi
	movl	$cP2__W$__fData_Binary_storableB$d10, %edi
	movl	$4, %edx
	movl	$3, %ecx
	callq	find_cache
	movq	arena(%rip), %rsi
	movl	$cFW$__fInstance$__iData_Binary_put_Jhc_Prim_Prim_$BEd2, %edi
	movl	$4, %edx
	movl	$3, %ecx
	callq	find_cache
	movq	arena(%rip), %rsi
	movl	$cFW$__fInstance$__iData_Binary_put_Jhc_Prim_Prim_$BEd3, %edi
	movl	$4, %edx
	movl	$3, %ecx
	callq	find_cache
	movq	arena(%rip), %rsi
	movl	$cP1__W$__fData_Binary_storableB$d5, %edi
	movl	$4, %edx
	movl	$3, %ecx
	callq	find_cache
	movq	arena(%rip), %rsi
	movl	$cP1__W$__fData_Binary_storableB$d7, %edi
	movl	$4, %edx
	movl	$3, %ecx
	callq	find_cache
	movq	arena(%rip), %rsi
	movl	$cCJhc_Type_Basic_Left, %edi
	movl	$2, %edx
	movl	$2, %ecx
	callq	find_cache
	movq	arena(%rip), %rsi
	movl	$cCJhc_Prim_Prim_$x3a, %edi
	movl	$2, %edx
	movl	$2, %ecx
	callq	find_cache
	movq	arena(%rip), %rsi
	movl	$cCJhc_Type_Ptr_Ptr, %edi
	movl	$2, %edx
	xorl	%ecx, %ecx
	callq	find_cache
	movq	arena(%rip), %rsi
	movl	$cP1__W$__fData_Binary_storableB$d9, %edi
	movl	$4, %edx
	movl	$3, %ecx
	callq	find_cache
	movq	arena(%rip), %rsi
	movl	$cCMain_AtaDevice, %edi
	movl	$6, %edx
	movl	$3, %ecx
	callq	find_cache
	movq	arena(%rip), %rsi
	movl	$cCMain_AtapiDevice, %edi
	movl	$4, %edx
	movl	$3, %ecx
	callq	find_cache
	movq	arena(%rip), %rsi
	movl	$cCJhc_Prim_Prim_$LcR, %edi
	movl	$2, %edx
	movl	$2, %ecx
	callq	find_cache
	movq	arena(%rip), %rsi
	movl	$cCData_Binary_Builder, %edi
	movl	$2, %edx
	movl	$1, %ecx
	callq	find_cache
	movq	arena(%rip), %rsi
	movl	$cCJhc_Type_Basic_Just, %edi
	movl	$2, %edx
	movl	$1, %ecx
	callq	find_cache
	movq	arena(%rip), %rsi
	movl	$cCJhc_Type_Word_Int, %edi
	movl	$2, %edx
	xorl	%ecx, %ecx
	callq	find_cache
	movq	arena(%rip), %rsi
	movl	$cP1__W$__fData_Binary_storableB$d11, %edi
	movl	$4, %edx
	movl	$3, %ecx
	callq	find_cache
	movq	arena(%rip), %rsi
	movl	$cCJhc_Type_Word_Word32, %edi
	movl	$2, %edx
	xorl	%ecx, %ecx
	callq	find_cache
	movq	arena(%rip), %rsi
	movl	$cCMain_AtaCapabilities, %edi
	movl	$2, %edx
	xorl	%ecx, %ecx
	callq	find_cache
	movq	arena(%rip), %rsi
	movl	$cCJhc_Type_Word_Word64, %edi
	movl	$2, %edx
	xorl	%ecx, %ecx
	callq	find_cache
	movq	arena(%rip), %rsi
	movl	$cP1__W$__fData_Binary_put$d2, %edi
	movl	$6, %edx
	movl	$4, %ecx
	callq	find_cache
	movq	arena(%rip), %rsi
	movl	$cP1__W$__fData_Binary_put$d4, %edi
	movl	$6, %edx
	movl	$4, %ecx
	callq	find_cache
	movq	arena(%rip), %rsi
	movl	$cP1__W$__fData_Binary_put$d6, %edi
	movl	$6, %edx
	movl	$4, %ecx
	callq	find_cache
	movq	arena(%rip), %rsi
	movl	$cP1__W$__fData_Binary_put$d8, %edi
	movl	$8, %edx
	movl	$5, %ecx
	callq	find_cache
	movq	arena(%rip), %rsi
	movl	$cP1__Data_Binary_get$d7, %edi
	movl	$4, %edx
	movl	$4, %ecx
	callq	find_cache
	movq	arena(%rip), %rsi
	movl	$cP2__Data_Binary_get$d7, %edi
	movl	$4, %edx
	movl	$3, %ecx
	callq	find_cache
	movq	arena(%rip), %rsi
	movl	$cP1__W$__fInstance$__iData_Monoid_mappend_Data_Binary_Builder$d2, %edi
	movl	$6, %edx
	movl	$4, %ecx
	callq	find_cache
	movq	arena(%rip), %rsi
	movl	$cP1__W$__fInstance$__iData_Binary_put_Jhc_Prim_Prim_$BEd5, %edi
	movl	$6, %edx
	movl	$4, %ecx
	callq	find_cache
	movq	arena(%rip), %rsi
	movl	$cCMain_AtaController, %edi
	movl	$2, %edx
	xorl	%ecx, %ecx
	callq	find_cache
	movq	arena(%rip), %rsi
	movl	$cFInstance$__iJhc_Show_show_default, %edi
	movl	$4, %edx
	movl	$3, %ecx
	callq	find_cache
	movq	arena(%rip), %rsi
	movl	$cFtheMain$d38, %edi
	movl	$2, %edx
	movl	$2, %ecx
	callq	find_cache
	movq	arena(%rip), %rsi
	movl	$cFNumeric_showHex, %edi
	movl	$4, %edx
	movl	$3, %ecx
	callq	find_cache
	movq	arena(%rip), %rsi
	movl	$cFtheMain$d35, %edi
	movl	$4, %edx
	movl	$2, %ecx
	callq	find_cache
	movq	arena(%rip), %rsi
	movl	$cFJhc_Basics_$pp, %edi
	movl	$4, %edx
	movl	$4, %ecx
	callq	find_cache
	movq	arena(%rip), %rsi
	movl	$cFtheMain$d34, %edi
	movl	$2, %edx
	movl	$2, %ecx
	callq	find_cache
	movq	arena(%rip), %rsi
	movl	$cFtheMain$d33, %edi
	movl	$2, %edx
	movl	$2, %ecx
	callq	find_cache
	movq	arena(%rip), %rsi
	movl	$cFtheMain$d32, %edi
	movl	$2, %edx
	movl	$2, %ecx
	callq	find_cache
	movq	arena(%rip), %rsi
	movl	$cFtheMain$d31, %edi
	movl	$2, %edx
	movl	$2, %ecx
	callq	find_cache
	movq	arena(%rip), %rsi
	movl	$cFtheMain$d29, %edi
	movl	$4, %edx
	movl	$3, %ecx
	callq	find_cache
	movq	arena(%rip), %rsi
	movl	$cP1__theMain$d25, %edi
	movl	$2, %edx
	movl	$2, %ecx
	callq	find_cache
	movq	arena(%rip), %rsi
	movl	$cCJhc_Type_Basic_Right, %edi
	movl	$2, %edx
	movl	$2, %ecx
	callq	find_cache
	movq	arena(%rip), %rsi
	movl	$cCHos_User_IPC_CouldNotParseResponse, %edi
	movl	$2, %edx
	movl	$1, %ecx
	callq	find_cache
	movq	arena(%rip), %rsi
	movl	$cCHos_Init_Msg_InitRegisterProvider, %edi
	movl	$2, %edx
	movl	$2, %ecx
	callq	find_cache
	movq	arena(%rip), %rsi
	movl	$cFR$__fJhc_Basics_zip, %edi
	movl	$4, %edx
	movl	$3, %ecx
	callq	find_cache
	movq	arena(%rip), %rsi
	movl	$cFW$__fJhc_Inst_Enum_93__f, %edi
	movl	$2, %edx
	movl	$1, %ecx
	callq	find_cache
	movq	arena(%rip), %rsi
	movl	$cFtheMain$d40, %edi
	movl	$2, %edx
	movl	$2, %ecx
	callq	find_cache
	movq	arena(%rip), %rsi
	movl	$cFtheMain$d39, %edi
	movl	$2, %edx
	movl	$2, %ecx
	callq	find_cache
	movq	arena(%rip), %rsi
	movl	$cFtheMain$d37, %edi
	movl	$2, %edx
	movl	$2, %ecx
	callq	find_cache
	movq	arena(%rip), %rsi
	movl	$cFtheMain$d36, %edi
	movl	$2, %edx
	movl	$2, %ecx
	callq	find_cache
	movq	arena(%rip), %rsi
	movl	$cFW$__fR$__fJhc_List_383__f, %edi
	movl	$4, %edx
	movl	$2, %ecx
	callq	find_cache
	movq	arena(%rip), %rsi
	movl	$cFtheMain$d12, %edi
	movl	$4, %edx
	movl	$2, %ecx
	callq	find_cache
	movq	arena(%rip), %rsi
	movl	$cFtheMain$d11, %edi
	movl	$4, %edx
	movl	$2, %ecx
	callq	find_cache
	movq	arena(%rip), %rsi
	movl	$cFW$__fMain_ataIdentify$d4, %edi
	movl	$4, %edx
	movl	$3, %ecx
	callq	find_cache
	movq	arena(%rip), %rsi
	movl	$cFW$__fMain_atapiIdentify$d4, %edi
	movl	$4, %edx
	movl	$2, %ecx
	callq	find_cache
	movq	arena(%rip), %rsi
	movl	$cFW$__fInstance$__iJhc_Enum_enumFromTo_Jhc_Type_Word_Int$d2, %edi
	movl	$2, %edx
	movl	$1, %ecx
	callq	find_cache
	movq	arena(%rip), %rsi
	movl	$cP2__W$__fInstance$__iData_Binary_put_Jhc_Prim_Prim_$BEd5, %edi
	movl	$4, %edx
	movl	$3, %ecx
	callq	find_cache
	movq	arena(%rip), %rsi
	movl	$cFW$__fInstance$__iData_Binary_put_Jhc_Prim_Prim_$BEd4, %edi
	movl	$4, %edx
	movl	$3, %ecx
	callq	find_cache
	movq	arena(%rip), %rsi
	movl	$cFW$__fInstance$__iData_Binary_put_Jhc_Prim_Prim_$BEd6, %edi
	movl	$4, %edx
	movl	$2, %ecx
	callq	find_cache
	movq	arena(%rip), %rsi
	movl	$cP2__W$__fInstance$__iData_Monoid_mappend_Data_Binary_Builder$d2, %edi
	movl	$4, %edx
	movl	$3, %ecx
	callq	find_cache
	movq	arena(%rip), %rsi
	movl	$cFW$__fInstance$__iData_Monoid_mappend_Data_Binary_Builder$d3, %edi
	movl	$4, %edx
	movl	$2, %ecx
	callq	find_cache
	movq	arena(%rip), %rsi
	movl	$cFPrelude_Text_read$d4, %edi
	movl	$4, %edx
	movl	$3, %ecx
	callq	find_cache
	movq	arena(%rip), %rsi
	movl	$cP1__Prelude_Text_read$d2, %edi
	movl	$2, %edx
	movl	$2, %ecx
	callq	find_cache
	movq	arena(%rip), %rsi
	movl	$cFJhc_Text_Read_readDec$d10, %edi
	movl	$4, %edx
	movl	$4, %ecx
	callq	find_cache
	movq	arena(%rip), %rsi
	movl	$cFJhc_Text_Read_readDec$d9, %edi
	movl	$4, %edx
	movl	$4, %ecx
	callq	find_cache
	movq	arena(%rip), %rsi
	movl	$cFJhc_Text_Read_readDec$d3, %edi
	movl	$4, %edx
	movl	$4, %ecx
	callq	find_cache
	movq	arena(%rip), %rsi
	movl	$cFJhc_Text_Read_readDec$d4, %edi
	movl	$4, %edx
	movl	$4, %ecx
	callq	find_cache
	movq	arena(%rip), %rsi
	movl	$cFJhc_Text_Read_readDec$d7, %edi
	movl	$6, %edx
	movl	$5, %ecx
	callq	find_cache
	movq	arena(%rip), %rsi
	movl	$cP1__Jhc_Text_Read_readDec$d5, %edi
	movl	$2, %edx
	movl	$2, %ecx
	callq	find_cache
	movq	arena(%rip), %rsi
	movl	$cCJhc_Prim_Prim_$LccR, %edi
	movl	$4, %edx
	movl	$3, %ecx
	callq	find_cache
	movq	arena(%rip), %rsi
	movl	$cFtheMain$d28, %edi
	movl	$2, %edx
	movl	$2, %ecx
	callq	find_cache
	movq	arena(%rip), %rsi
	movl	$cFtheMain$d27, %edi
	movl	$2, %edx
	movl	$2, %ecx
	callq	find_cache
	movq	arena(%rip), %rsi
	movl	$cFtheMain$d26, %edi
	movl	$2, %edx
	movl	$2, %ecx
	callq	find_cache
	movq	arena(%rip), %rsi
	movl	$cFPrelude_Text_read, %edi
	movl	$2, %edx
	movl	$2, %ecx
	callq	find_cache
	movq	arena(%rip), %rsi
	movl	$cP1__Data_Binary_fl$_x64315462$d5406, %edi
	movl	$2, %edx
	movl	$2, %ecx
	callq	find_cache
	movq	arena(%rip), %rsi
	movl	$cBap__1__W$__fNumeric_showIntAtBase__100414, %edi
	movl	$4, %edx
	movl	$3, %ecx
	callq	find_cache
	movq	arena(%rip), %rsi
	movl	$cFW$__fNumeric_showIntAtBase$d3, %edi
	movl	$4, %edx
	movl	$2, %ecx
	callq	find_cache
	movq	arena(%rip), %rsi
	movl	$cFHos_User_SysCall_hosDebugLog$d2, %edi
	movl	$2, %edx
	movl	$2, %ecx
	callq	find_cache
	movq	arena(%rip), %rsi
	movl	$cBap__1__Jhc_Show_showsPrec__100536, %edi
	movl	$4, %edx
	movl	$3, %ecx
	callq	find_cache
	movq	arena(%rip), %rsi
	movl	$cP1__Jhc_Show_showsPrec$d2, %edi
	movl	$6, %edx
	movl	$3, %ecx
	callq	find_cache
	movq	arena(%rip), %rsi
	movl	$cBap__1__Jhc_Show_showsPrec__100544, %edi
	movl	$4, %edx
	movl	$3, %ecx
	callq	find_cache
	movq	arena(%rip), %rsi
	movl	$cP1__Jhc_Show_showsPrec$d6, %edi
	movl	$4, %edx
	movl	$3, %ecx
	callq	find_cache
	movq	arena(%rip), %rsi
	movl	$cFJhc_Show_shows, %edi
	movl	$4, %edx
	movl	$4, %ecx
	callq	find_cache
	movq	arena(%rip), %rsi
	movl	$cFJhc_Show_showsPrec$d11, %edi
	movl	$4, %edx
	movl	$3, %ecx
	callq	find_cache
	movq	arena(%rip), %rsi
	movl	$cFJhc_Show_showsPrec$d12, %edi
	movl	$4, %edx
	movl	$3, %ecx
	callq	find_cache
	movq	arena(%rip), %rsi
	movl	$cFJhc_Show_showString, %edi
	movl	$4, %edx
	movl	$3, %ecx
	callq	find_cache
	movq	arena(%rip), %rsi
	movl	$cFJhc_Show_showsPrec$d7, %edi
	movl	$6, %edx
	movl	$4, %ecx
	callq	find_cache
	movq	arena(%rip), %rsi
	movl	$cFJhc_Show_showsPrec$d9, %edi
	movl	$4, %edx
	movl	$2, %ecx
	callq	find_cache
	movq	arena(%rip), %rsi
	movl	$cFW$__fInstance$__iJhc_Show_showsPrec_Jhc_Type_Word_Word8, %edi
	movl	$4, %edx
	movl	$2, %ecx
	callq	find_cache
	movq	arena(%rip), %rsi
	movl	$cFJhc_Show_showsPrec$d8, %edi
	movl	$4, %edx
	movl	$3, %ecx
	callq	find_cache
	movq	arena(%rip), %rsi
	movl	$cFJhc_Show_showsPrec$d3, %edi
	movl	$6, %edx
	movl	$4, %ecx
	callq	find_cache
	movq	arena(%rip), %rsi
	movl	$cFJhc_Show_showsPrec$d5, %edi
	movl	$4, %edx
	movl	$2, %ecx
	callq	find_cache
	movq	arena(%rip), %rsi
	movl	$cFW$__fJhc_Inst_Show_showWordMax, %edi
	movl	$4, %edx
	movl	$2, %ecx
	callq	find_cache
	movq	arena(%rip), %rsi
	movl	$cFJhc_Show_showsPrec$d4, %edi
	movl	$4, %edx
	movl	$3, %ecx
	callq	find_cache
	movq	arena(%rip), %rsi
	movl	$cBap__1__W$__fInstance$__iJhc_Show_showsPrec_Main_AtaController__100608, %edi
	movl	$4, %edx
	movl	$3, %ecx
	callq	find_cache
	movq	arena(%rip), %rsi
	movl	$cP1__W$__fInstance$__iJhc_Show_showsPrec_Main_AtaController$d2, %edi
	movl	$2, %edx
	xorl	%ecx, %ecx
	callq	find_cache
	movq	arena(%rip), %rsi
	movl	$cFW$__fJhc_Inst_Show_showWord, %edi
	movl	$4, %edx
	movl	$2, %ecx
	callq	find_cache
	movq	arena(%rip), %rsi
	movl	$cFW$__fInstance$__iJhc_Show_showsPrec_Jhc_Type_Word_Word16, %edi
	movl	$4, %edx
	movl	$2, %ecx
	callq	find_cache
	movq	arena(%rip), %rsi
	movl	$cFW$__fMain_idRead$d4, %edi
	movl	$4, %edx
	movl	$2, %ecx
	callq	find_cache
	movq	arena(%rip), %rsi
	movl	$cFJhc_Text_Read_lex$d25, %edi
	movl	$4, %edx
	movl	$3, %ecx
	callq	find_cache
	movq	arena(%rip), %rsi
	movl	$cFJhc_Text_Read_lex$d26, %edi
	movl	$4, %edx
	movl	$3, %ecx
	callq	find_cache
	movq	arena(%rip), %rsi
	movl	$cFJhc_Text_Read_lex$d22, %edi
	movl	$4, %edx
	movl	$4, %ecx
	callq	find_cache
	movq	arena(%rip), %rsi
	movl	$cFJhc_Text_Read_lex$d23, %edi
	movl	$4, %edx
	movl	$4, %ecx
	callq	find_cache
	movq	arena(%rip), %rsi
	movl	$cFJhc_Text_Read_lex$d16, %edi
	movl	$4, %edx
	movl	$3, %ecx
	callq	find_cache
	movq	arena(%rip), %rsi
	movl	$cFJhc_Text_Read_lex$d17, %edi
	movl	$4, %edx
	movl	$3, %ecx
	callq	find_cache
	movq	arena(%rip), %rsi
	movl	$cFJhc_Text_Read_lex$d13, %edi
	movl	$4, %edx
	movl	$3, %ecx
	callq	find_cache
	movq	arena(%rip), %rsi
	movl	$cFJhc_Text_Read_lex$d14, %edi
	movl	$4, %edx
	movl	$3, %ecx
	callq	find_cache
	movq	arena(%rip), %rsi
	movl	$cFJhc_Text_Read_lex$d9, %edi
	movl	$2, %edx
	movl	$2, %ecx
	callq	find_cache
	movq	arena(%rip), %rsi
	movl	$cFJhc_Text_Read_lex$d8, %edi
	movl	$2, %edx
	movl	$2, %ecx
	callq	find_cache
	movq	arena(%rip), %rsi
	movl	$cFPrelude_Text_read$d5, %edi
	movl	$2, %edx
	movl	$2, %ecx
	callq	find_cache
	movq	arena(%rip), %rsi
	movl	$cFJhc_Text_Read_lex$d12, %edi
	movl	$2, %edx
	movl	$2, %ecx
	callq	find_cache
	movq	arena(%rip), %rsi
	movl	$cFJhc_Text_Read_lex$d15, %edi
	movl	$2, %edx
	movl	$2, %ecx
	callq	find_cache
	movq	arena(%rip), %rsi
	movl	$cFJhc_Text_Read_lex$d18, %edi
	movl	$2, %edx
	movl	$2, %ecx
	callq	find_cache
	movq	arena(%rip), %rsi
	movl	$cFJhc_Text_Read_lex$d5, %edi
	movl	$2, %edx
	movl	$2, %ecx
	callq	find_cache
	movq	arena(%rip), %rsi
	movl	$cFJhc_Text_Read_lexLitChar$d3, %edi
	movl	$2, %edx
	movl	$2, %ecx
	callq	find_cache
	movq	arena(%rip), %rsi
	movl	$cFJhc_Text_Read_lexLitChar$d5, %edi
	movl	$2, %edx
	movl	$2, %ecx
	callq	find_cache
	movq	arena(%rip), %rsi
	movl	$cFJhc_Text_Read_lexLitChar$d6, %edi
	movl	$2, %edx
	movl	$2, %ecx
	callq	find_cache
	movq	arena(%rip), %rsi
	movl	$cFJhc_Text_Read_lexLitChar$d8, %edi
	movl	$2, %edx
	movl	$2, %ecx
	callq	find_cache
	movq	arena(%rip), %rsi
	movl	$cFJhc_Text_Read_lexLitChar$d9, %edi
	movl	$2, %edx
	movl	$2, %ecx
	callq	find_cache
	movq	arena(%rip), %rsi
	movl	$cFJhc_Text_Read_lexLitChar$d11, %edi
	movl	$2, %edx
	movl	$2, %ecx
	callq	find_cache
	movq	arena(%rip), %rsi
	movl	$cFJhc_Text_Read_lexLitChar$d12, %edi
	movl	$2, %edx
	movl	$2, %ecx
	callq	find_cache
	movq	arena(%rip), %rsi
	movl	$cFJhc_Text_Read_lexLitChar$d13, %edi
	movl	$2, %edx
	movl	$2, %ecx
	callq	find_cache
	movq	arena(%rip), %rsi
	movl	$cFJhc_Text_Read_lexLitChar$d14, %edi
	movl	$2, %edx
	movl	$2, %ecx
	callq	find_cache
	movq	arena(%rip), %rsi
	movl	$cFJhc_Text_Read_lexLitChar$d15, %edi
	movl	$2, %edx
	movl	$2, %ecx
	callq	find_cache
	movq	arena(%rip), %rsi
	movl	$cFJhc_Basics_45__go, %edi
	movl	$2, %edx
	movl	$2, %ecx
	callq	find_cache
	movq	arena(%rip), %rsi
	movl	$cFJhc_Text_Read_lexLitChar$d2, %edi
	movl	$2, %edx
	movl	$2, %ecx
	callq	find_cache
	movq	arena(%rip), %rsi
	movl	$cFData_Binary_get$d2, %edi
	movl	$2, %edx
	movl	$2, %ecx
	callq	find_cache
	movq	arena(%rip), %rsi
	movl	$cP3__Data_Binary_get$d7, %edi
	movl	$2, %edx
	movl	$2, %ecx
	callq	find_cache
	movq	arena(%rip), %rsi
	movl	$cP1__Data_Binary_get$d6, %edi
	movl	$2, %edx
	movl	$2, %ecx
	callq	find_cache
	movq	arena(%rip), %rsi
	movl	$cFR$__fJhc_Basics_$pp, %edi
	movl	$4, %edx
	movl	$3, %ecx
	callq	find_cache
	movq	arena(%rip), %rsi
	movl	$cFJhc_Text_Read_lex$d4, %edi
	movl	$2, %edx
	movl	$2, %ecx
	callq	find_cache
	movq	arena(%rip), %rsi
	movl	$cFJhc_Text_Read_lex$d32, %edi
	movl	$2, %edx
	movl	$2, %ecx
	callq	find_cache
	movq	arena(%rip), %rsi
	movl	$cP1__Jhc_Text_Read_lex$d19, %edi
	movl	$2, %edx
	movl	$2, %ecx
	callq	find_cache
	movq	arena(%rip), %rsi
	movl	$cFJhc_Text_Read_lex$d24, %edi
	movl	$4, %edx
	movl	$3, %ecx
	callq	find_cache
	movq	arena(%rip), %rsi
	movl	$cFJhc_Text_Read_lex$d11, %edi
	movl	$2, %edx
	movl	$2, %ecx
	callq	find_cache
	movq	arena(%rip), %rsi
	movl	$cBap__1__Prelude_Text_read$d3u101038, %edi
	movl	$4, %edx
	movl	$3, %ecx
	callq	find_cache
	movq	arena(%rip), %rsi
	movl	$cFJhc_Text_Read_lex$d30, %edi
	movl	$4, %edx
	movl	$3, %ecx
	callq	find_cache
	movq	arena(%rip), %rsi
	movl	$cFJhc_Text_Read_lex$d31, %edi
	movl	$4, %edx
	movl	$3, %ecx
	callq	find_cache
	movq	arena(%rip), %rsi
	movl	$cBap__1__Jhc_Text_Read_lex$d27u101054, %edi
	movl	$4, %edx
	movl	$3, %ecx
	callq	find_cache
	movq	arena(%rip), %rsi
	movl	$cFJhc_Text_Read_lex$d28, %edi
	movl	$4, %edx
	movl	$4, %ecx
	callq	find_cache
	movq	arena(%rip), %rsi
	movl	$cFJhc_Text_Read_lex$d29, %edi
	movl	$4, %edx
	movl	$4, %ecx
	callq	find_cache
	movq	arena(%rip), %rsi
	movl	$cP1__Jhc_Text_Read_lex$d20, %edi
	movl	$2, %edx
	movl	$2, %ecx
	callq	find_cache
	movq	arena(%rip), %rsi
	movl	$cBap__1__Jhc_Text_Read_lex$d21u101090, %edi
	movl	$4, %edx
	movl	$3, %ecx
	callq	find_cache
	movq	arena(%rip), %rsi
	movl	$cFJhc_Text_Read_lex$d7, %edi
	movl	$2, %edx
	movl	$2, %ecx
	callq	find_cache
	movq	arena(%rip), %rsi
	movl	$cFJhc_Text_Read_lex$d2, %edi
	movl	$4, %edx
	movl	$3, %ecx
	callq	find_cache
	movq	arena(%rip), %rsi
	movl	$cFJhc_Text_Read_lex$d3, %edi
	movl	$4, %edx
	movl	$3, %ecx
	callq	find_cache
	movq	arena(%rip), %rsi
	movl	$cFPrelude_Text_30__showl, %edi
	movl	$4, %edx
	movl	$3, %ecx
	callq	find_cache
	movq	arena(%rip), %rsi
	movl	$cFW$__fPrelude_Text_showLitChar$d2, %edi
	movl	$2, %edx
	movl	$2, %ecx
	callq	find_cache
	movq	arena(%rip), %rsi
	movl	$cFW$__fPrelude_Text_showLitChar$d3, %edi
	movl	$2, %edx
	movl	$2, %ecx
	callq	find_cache
	movq	arena(%rip), %rsi
	movl	$cFW$__fJhc_List_$bb, %edi
	movl	$4, %edx
	movl	$3, %ecx
	callq	find_cache
	movq	arena(%rip), %rsi
	movl	$cFJhc_Text_Read_nonnull$d4, %edi
	movl	$2, %edx
	movl	$2, %ecx
	callq	find_cache
	movq	arena(%rip), %rsi
	movl	$cFJhc_Show_showsPrec, %edi
	movl	$6, %edx
	movl	$5, %ecx
	callq	find_cache
	movq	arena(%rip), %rsi
	movl	$cBap__1__W$__fInstance$__iJhc_Show_showsPrec_Main_AtaCapabilities__101132, %edi
	movl	$4, %edx
	movl	$3, %ecx
	popq	%rax
	jmp	find_cache              # TAILCALL
.Lfunc_end0:
	.size	jhc_hs_init, .Lfunc_end0-jhc_hs_init
	.cfi_endproc
                                        # -- End function
	.section	.rodata.cst16,"aM",@progbits,16
	.p2align	4               # -- Begin function _amain
.LCPI1_0:
	.quad	2                       # 0x2
	.zero	8
.LCPI1_1:
	.quad	5767170                 # 0x580002
	.zero	8
	.text
	.globl	_amain
	.p2align	4, 0x90
	.type	_amain,@function
_amain:                                 # @_amain
	.cfi_startproc
# %bb.0:
	pushq	%rbp
	.cfi_def_cfa_offset 16
	pushq	%r15
	.cfi_def_cfa_offset 24
	pushq	%r14
	.cfi_def_cfa_offset 32
	pushq	%r13
	.cfi_def_cfa_offset 40
	pushq	%r12
	.cfi_def_cfa_offset 48
	pushq	%rbx
	.cfi_def_cfa_offset 56
	subq	$104, %rsp
	.cfi_def_cfa_offset 160
	.cfi_offset %rbx, -56
	.cfi_offset %r12, -48
	.cfi_offset %r13, -40
	.cfi_offset %r14, -32
	.cfi_offset %r15, -24
	.cfi_offset %rbp, -16
	movabsq	$824633724928, %r14     # imm = 0xC000001000
	movq	saved_gc(%rip), %rbp
	leaq	-4096(%r14), %rsi
	movl	$_c692, %ecx
	movq	%rbp, %rdi
	movq	%r14, %rdx
	callq	fW$__fHos_User_SysCall_hosAddMappingToCurTask
	movq	%rbp, saved_gc(%rip)
	movl	$260, %edi              # imm = 0x104
	xorl	%esi, %esi
	xorl	%edx, %edx
	xorl	%ecx, %ecx
	xorl	%r8d, %r8d
	xorl	%r9d, %r9d
	callq	syscall
	movl	$100, %esi
	movq	%rbp, %rdi
	callq	fW$__fHos_User_SysCall_hosWaitOnChannels
	movl	$_c693, %esi
	movl	$_g1483360277+1, %edx
	movq	%rbp, %rdi
	callq	fData_Binary_getFrom
	movq	%rax, %rcx
	testb	$2, %al
	jne	.LBB1_2
# %bb.1:
	movq	(%rax), %rcx
.LBB1_2:
	cmpq	$65535, %rcx            # imm = 0xFFFF
	ja	.LBB1_4
# %bb.3:
	movl	$_c719, %esi
	movq	%rbp, %rdi
	callq	fHos_User_SysCall_hosDebugLog
	leaq	8(%rbp), %r13
	movl	$65538, %ebx            # imm = 0x10002
	jmp	.LBB1_5
.LBB1_4:
	movq	8(%rax), %rbx
	movq	%rbx, (%rbp)
	leaq	8(%rbp), %r13
	leaq	4096(%r14), %rdx
	movl	$_c722, %ecx
	movq	%r13, %rdi
	movq	%r14, %rsi
	callq	fW$__fHos_User_SysCall_hosAddMappingToCurTask
	movq	%r13, saved_gc(%rip)
	movl	$258, %edi              # imm = 0x102
	movl	$195935983, %esi        # imm = 0xBADBEEF
	xorl	%edx, %edx
	xorl	%ecx, %ecx
	xorl	%r8d, %r8d
	xorl	%r9d, %r9d
	callq	syscall
.LBB1_5:
	movq	%rbp, (%rsp)            # 8-byte Spill
	movq	%rbx, (%rbp)
	movl	$_c736, %esi
	movq	%r13, %rdi
	callq	fHos_User_SysCall_hosDebugLog
	movq	%r13, %rdi
	movq	%rbx, 40(%rsp)          # 8-byte Spill
	movq	%rbx, %rsi
	callq	eval
	cmpq	$65538, %rax            # imm = 0x10002
	movq	%r13, 8(%rsp)           # 8-byte Spill
	je	.LBB1_11
# %bb.6:
	movq	(%rsp), %rcx            # 8-byte Reload
	leaq	24(%rcx), %r14
	leaq	32(%rcx), %r15
	leaq	48(%rcx), %rdx
	movq	%rdx, 32(%rsp)          # 8-byte Spill
	leaq	56(%rcx), %rcx
	movq	%rcx, 48(%rsp)          # 8-byte Spill
	movq	%r15, 24(%rsp)          # 8-byte Spill
	.p2align	4, 0x90
.LBB1_7:                                # =>This Inner Loop Header: Depth=1
	movq	(%rax), %rbp
	movq	8(%rax), %rax
	movq	%rax, 16(%rsp)          # 8-byte Spill
	movq	%rax, (%r13)
	movq	(%rsp), %rbx            # 8-byte Reload
	movq	%rbp, 16(%rbx)
	movq	cFInstance$__iJhc_Show_show_default(%rip), %rsi
	movq	%r14, %rdi
	callq	s_alloc
	movq	%rax, %r12
	movq	$E__fInstance$__iJhc_Show_show_default+3, (%r12)
	movq	$_c3, 8(%r12)
	movq	%rbp, 16(%r12)
	orq	$1, %r12
	movq	%r12, 24(%rbx)
	movl	$_c741, %esi
	movq	%r15, %rdi
	callq	eval
	cmpq	$65538, %rax            # imm = 0x10002
	je	.LBB1_9
# %bb.8:                                #   in Loop: Header=BB1_7 Depth=1
	movq	(%rax), %rbp
	movq	%r14, %r15
	movq	8(%rax), %r14
	movq	%rbp, 32(%rbx)
	movq	%r14, 40(%rbx)
	movq	cFR$__fJhc_Basics_$pp(%rip), %rsi
	movq	32(%rsp), %rdi          # 8-byte Reload
	callq	s_alloc
	movq	%rax, %r13
	movq	$E__fR$__fJhc_Basics_$pp+3, (%r13)
	movq	%r14, 8(%r13)
	movq	%r15, %r14
	movq	24(%rsp), %r15          # 8-byte Reload
	movq	%r12, 16(%r13)
	orq	$1, %r13
	movq	%r13, 48(%rbx)
	movq	cCJhc_Prim_Prim_$x3a(%rip), %rsi
	movq	48(%rsp), %rdi          # 8-byte Reload
	callq	s_alloc
	movq	%rax, %rsi
	movq	%rbp, (%rsi)
	movq	%r13, 8(%rsi)
	movq	8(%rsp), %r13           # 8-byte Reload
	jmp	.LBB1_10
	.p2align	4, 0x90
.LBB1_9:                                #   in Loop: Header=BB1_7 Depth=1
	movq	%r15, %rdi
	movq	%r12, %rsi
	callq	eval
	movq	%rax, %rsi
.LBB1_10:                               #   in Loop: Header=BB1_7 Depth=1
	movq	%r14, %rdi
	callq	fHos_User_SysCall_hosDebugLog
	movq	%r13, %rdi
	movq	16(%rsp), %rsi          # 8-byte Reload
	callq	eval
	cmpq	$65538, %rax            # imm = 0x10002
	jne	.LBB1_7
.LBB1_11:
	movl	$_c759, %esi
	movq	%r13, %rdi
	movq	40(%rsp), %r12          # 8-byte Reload
	movq	%r12, %rdx
	callq	fPrelude_lookup
	cmpq	$2, %rax
	je	.LBB1_21
# %bb.12:
	movq	(%rax), %rsi
	movq	%r13, %rdi
	callq	eval
	movl	$.L.str.1, %ebx
	cmpq	$65538, %rax            # imm = 0x10002
	je	.LBB1_22
# %bb.13:
	movq	(%rsp), %r15            # 8-byte Reload
	leaq	16(%r15), %r14
	.p2align	4, 0x90
.LBB1_14:                               # =>This Inner Loop Header: Depth=1
	movq	(%rax), %rsi
	movq	8(%rax), %rbp
	movq	%rbp, (%r13)
	movq	%r14, %rdi
	callq	eval
	movzbl	(%rbx), %ecx
	testl	%ecx, %ecx
	je	.LBB1_23
# %bb.15:                               #   in Loop: Header=BB1_14 Depth=1
	shrq	$2, %rax
	cmpl	%eax, %ecx
	jne	.LBB1_23
# %bb.16:                               #   in Loop: Header=BB1_14 Depth=1
	addq	$1, %rbx
	movq	%r13, %rdi
	movq	%rbp, %rsi
	callq	eval
	cmpq	$65538, %rax            # imm = 0x10002
	jne	.LBB1_14
# %bb.17:
	cmpb	$0, (%rbx)
	jne	.LBB1_23
.LBB1_18:
	movl	$1, %edi
	callq	assert
	movl	$_c188, %esi
	movq	%r13, %rdi
	movq	%r12, %rdx
	callq	fPrelude_lookup
	cmpq	$2, %rax
	je	.LBB1_24
# %bb.19:
	movabsq	$1099511631872, %r14    # imm = 0x10000001000
	movq	(%rax), %rbx
	movq	%rbx, (%r13)
	leaq	16(%r15), %rdi
	movq	cFJhc_Basics_$pp(%rip), %rsi
	movq	%rdi, 24(%rsp)          # 8-byte Spill
	callq	s_alloc
	movq	%rax, %rbp
	movq	$E__fJhc_Basics_$pp+3, (%rbp)
	movl	$_c775, %eax
	movq	%rax, %xmm0
	movdqa	.LCPI1_0(%rip), %xmm1   # xmm1 = <2,u>
	punpcklqdq	%xmm0, %xmm1    # xmm1 = xmm1[0],xmm0[0]
	movdqu	%xmm1, 8(%rbp)
	movq	%rbx, 24(%rbp)
	orq	$1, %rbp
	movq	%rbp, 16(%r15)
	leaq	24(%r15), %rdi
	movq	cCHos_Init_Msg_InitRegisterProvider(%rip), %rsi
	movq	%rdi, 16(%rsp)          # 8-byte Spill
	callq	s_alloc
	movq	%r15, %rbx
	movq	%rax, %r15
	movq	$2, (%r15)
	movq	%rbp, 8(%r15)
	movq	%r14, %rbp
	movq	%r15, 24(%rbx)
	leaq	32(%rbx), %r14
	leaq	-4096(%rbp), %rsi
	movl	$_c777, %ecx
	movq	%r14, %rdi
	movq	%rbp, %rdx
	callq	fW$__fHos_User_SysCall_hosAddMappingToCurTask
	cmpq	$0, (%rax)
	je	.LBB1_25
# %bb.20:
	movl	$_c795, %eax
	movq	%rbx, %r15
	jmp	.LBB1_41
.LBB1_21:
	addq	$104, %rsp
	popq	%rbx
	popq	%r12
	popq	%r13
	popq	%r14
	popq	%r15
	popq	%rbp
	retq
.LBB1_22:
	movq	(%rsp), %r15            # 8-byte Reload
	cmpb	$0, (%rbx)
	je	.LBB1_18
.LBB1_23:
	movl	$.L.str.2, %edi
	callq	jhc_error
.LBB1_24:
	leaq	16(%r15), %r12
	leaq	24(%r15), %rax
	movq	%rax, 16(%rsp)          # 8-byte Spill
	jmp	.LBB1_52
.LBB1_25:
	movq	%r14, saved_gc(%rip)
	movq	cCJhc_Type_Ptr_Ptr(%rip), %rsi
	movq	%r14, 32(%rsp)          # 8-byte Spill
	movq	%r14, %rdi
	callq	s_alloc
	movq	%rbp, (%rax)
	movq	%rax, 88(%rsp)          # 8-byte Spill
	movq	%rax, 32(%rbx)
	movl	$_c778, %eax
	movq	%rax, %xmm0
	movdqa	.LCPI1_1(%rip), %xmm1   # xmm1 = <5767170,u>
	punpcklqdq	%xmm0, %xmm1    # xmm1 = xmm1[0],xmm0[0]
	movdqa	%xmm1, 48(%rsp)         # 16-byte Spill
	movdqu	%xmm1, 40(%rbx)
	leaq	56(%rbx), %rbp
	movq	cP2__W$__fData_Binary_storableB$d6(%rip), %rsi
	movq	%rbp, %rdi
	callq	s_alloc
	movq	%rax, %r14
	movq	$4390914, (%r14)        # imm = 0x430002
	movaps	48(%rsp), %xmm0         # 16-byte Reload
	movups	%xmm0, 8(%r14)
	movq	%r14, 56(%rbx)
	leaq	64(%rbx), %r12
	movq	cP2__W$__fData_Binary_storableB$d7(%rip), %rsi
	movq	%r12, %rdi
	callq	s_alloc
	movq	$4456450, (%rax)        # imm = 0x440002
	movq	%r14, 8(%rax)
	movq	%rax, 64(%rsp)          # 8-byte Spill
	movq	%rax, 40(%rbx)
	movq	$5767170, 48(%rbx)      # imm = 0x580002
	movq	$_c689, 56(%rbx)
	movl	$_c689, %r14d
	movq	cP2__W$__fData_Binary_storableB$d6(%rip), %rsi
	movq	%r12, 48(%rsp)          # 8-byte Spill
	movq	%r12, %rdi
	callq	s_alloc
	movq	%rax, %r12
	movq	$4390914, (%r12)        # imm = 0x430002
	movq	%r14, %xmm0
	movdqa	.LCPI1_1(%rip), %xmm1   # xmm1 = <5767170,u>
	punpcklqdq	%xmm0, %xmm1    # xmm1 = xmm1[0],xmm0[0]
	movdqu	%xmm1, 8(%r12)
	movq	%r12, 64(%rbx)
	leaq	72(%rbx), %r14
	movq	cP2__W$__fData_Binary_storableB$d7(%rip), %rsi
	movq	%r14, %rdi
	callq	s_alloc
	movq	$4456450, (%rax)        # imm = 0x440002
	movq	%r12, 8(%rax)
	movq	%rax, 96(%rsp)          # 8-byte Spill
	movq	%rax, 48(%rbx)
	movl	$_c11, %esi
	movq	%rbp, %rdi
	callq	eval
	cmpq	$65538, %rax            # imm = 0x10002
	movq	%r14, 72(%rsp)          # 8-byte Spill
	je	.LBB1_31
# %bb.26:
	xorl	%ebx, %ebx
	.p2align	4, 0x90
.LBB1_27:                               # =>This Inner Loop Header: Depth=1
	movq	8(%rax), %rsi
	addl	$1, %ebx
	movq	%rbp, %rdi
	callq	eval
	cmpq	$65538, %rax            # imm = 0x10002
	jne	.LBB1_27
# %bb.28:
	cmpl	$248, %ebx
	jl	.LBB1_31
# %bb.29:
	movl	$1, %edi
	callq	assert
	movl	$_g1451640855+1, %esi
	jmp	.LBB1_32
.LBB1_31:
	movl	$_g1453082647+1, %esi
.LBB1_32:
	movq	%rbp, %rdi
	callq	eval
	movq	(%rax), %rbx
	movq	8(%rax), %r14
	movq	(%rsp), %r13            # 8-byte Reload
	movq	%rbx, 56(%r13)
	movl	$5111810, %esi          # imm = 0x4E0002
	movq	48(%rsp), %rdi          # 8-byte Reload
	movq	%r15, %rdx
	callq	bRfW$__fData_Binary_put
	movq	%rax, %rbp
	movq	%rdx, %r15
	movq	%rbx, 64(%r13)
	movq	%rbp, 72(%r13)
	leaq	80(%r13), %rdi
	movq	cP2__W$__fInstance$__iData_Monoid_mappend_Data_Binary_Builder$d2(%rip), %rsi
	movq	%rdi, 80(%rsp)          # 8-byte Spill
	callq	s_alloc
	movq	%rax, %r12
	movq	$4718594, (%r12)        # imm = 0x480002
	movq	%rbp, 8(%r12)
	movq	%rbx, 16(%r12)
	movq	%r14, 24(%r12)
	leaq	(%r14,%r15), %rax
	addq	$8, %rax
	cmpq	$4096, %rax             # imm = 0x1000
	ja	.LBB1_108
# %bb.33:
	movq	%r12, 64(%r13)
	movq	$_g325470229+1, 72(%r13)
	movq	96(%rsp), %r14          # 8-byte Reload
	movq	%r14, 80(%r13)
	leaq	88(%r13), %rbp
	movl	$_g325470229+1, %edx
	movq	%rbp, %rdi
	movq	64(%rsp), %rsi          # 8-byte Reload
	callq	bapply__87809
	movq	%rbp, %rdi
	movq	%rax, %rsi
	callq	bapply__87810
	movq	cFtheMain$d11(%rip), %rsi
	movq	%rbp, %rdi
	callq	s_alloc
	movq	%rax, %rbx
	movq	$E__ftheMain$d11+3, (%rbx)
	movq	$4, 16(%rbx)
	movq	$_g325470229+1, 8(%rbx)
	orq	$1, %rbx
	movq	%rbx, 88(%r13)
	leaq	96(%r13), %rbp
	movq	%rbp, %rdi
	movq	%r14, %rsi
	movq	%rbx, %rdx
	callq	bapply__87809
	movq	%rbp, %rdi
	movq	%rax, %rsi
	callq	bapply__87810
	movq	cFtheMain$d12(%rip), %rsi
	movq	%rbp, %rdi
	callq	s_alloc
	movq	%rax, %rbp
	movq	$E__ftheMain$d12+3, (%rbp)
	movq	$4, 16(%rbp)
	movq	%rbx, 8(%rbp)
	movq	8(%r12), %r15
	movq	16(%r12), %rsi
	movq	24(%r12), %r14
	movq	%r15, 96(%r13)
	orq	$1, %rbp
	movq	%rbp, 104(%r13)
	leaq	112(%r13), %rbx
	movq	%rbx, %rdi
	callq	eval
	movq	%rbx, %rdi
	movq	%rax, %rsi
	movq	%rbp, %rdx
	callq	bapply__87809
	movq	%rbx, %rdi
	movq	%rax, %rsi
	callq	bapply__87810
	movq	%rbx, %rdi
	movq	%r15, %rsi
	callq	eval
	movq	%rax, %r15
	movq	%r15, 112(%r13)
	leaq	120(%r13), %rbx
	movq	cFW$__fInstance$__iData_Monoid_mappend_Data_Binary_Builder$d3(%rip), %rsi
	movq	%rbx, %rdi
	callq	s_alloc
	movq	$E__fW$__fInstance$__iData_Monoid_mappend_Data_Binary_Builder$d3+3, (%rax)
	movq	%rbp, 8(%rax)
	movq	%r14, 16(%rax)
	orq	$1, %rax
	movq	%rbx, %rdi
	movq	%r15, %rsi
	movq	%rax, %rdx
	callq	bapply__87809
	movq	%rbx, %rdi
	movq	%rax, %rsi
	callq	bapply__87810
	movq	48(%rsp), %rbx          # 8-byte Reload
	movq	%rbx, saved_gc(%rip)
	movl	$256, %edi              # imm = 0x100
	xorl	%esi, %esi
	xorl	%edx, %edx
	xorl	%ecx, %ecx
	xorl	%r8d, %r8d
	xorl	%r9d, %r9d
	callq	syscall
	movq	%rbx, saved_gc(%rip)
	movabsq	$1099511631872, %rsi    # imm = 0x10000001000
	leaq	4096(%rsi), %rdx
	movl	$_c793, %ecx
	movq	%rbx, %rdi
	callq	fW$__fHos_User_SysCall_hosAddMappingToCurTask
	cmpq	$0, (%rax)
	je	.LBB1_35
# %bb.34:
	movl	$_c794, %eax
	movq	(%rsp), %r15            # 8-byte Reload
	movq	8(%rsp), %r13           # 8-byte Reload
	movq	32(%rsp), %r14          # 8-byte Reload
	jmp	.LBB1_41
.LBB1_35:
	movq	%rbx, saved_gc(%rip)
	movl	$260, %edi              # imm = 0x104
	movq	$-2147483648, %rsi      # imm = 0x80000000
	xorl	%edx, %edx
	xorl	%ecx, %ecx
	xorl	%r8d, %r8d
	xorl	%r9d, %r9d
	callq	syscall
	xorl	%esi, %esi
	movq	%rbx, %rdi
	callq	fW$__fHos_User_SysCall_hosWaitOnChannels
	movl	$5177346, %esi          # imm = 0x4F0002
	movq	%rbx, %rdi
	movq	88(%rsp), %rdx          # 8-byte Reload
	callq	fData_Binary_getFrom
	movq	%rax, %rcx
	testb	$2, %al
	movq	32(%rsp), %r14          # 8-byte Reload
	jne	.LBB1_37
# %bb.36:
	movq	(%rax), %rcx
.LBB1_37:
	cmpq	$65535, %rcx            # imm = 0xFFFF
	movq	(%rsp), %r15            # 8-byte Reload
	movq	8(%rsp), %r13           # 8-byte Reload
	ja	.LBB1_39
# %bb.38:
	movq	8(%rax), %rax
	movq	%rax, 64(%rsp)          # 8-byte Spill
	movq	%rax, (%rbx)
	movq	cCHos_User_IPC_CouldNotParseResponse(%rip), %rsi
	movq	72(%rsp), %rbp          # 8-byte Reload
	movq	%rbp, %rdi
	callq	s_alloc
	movq	%rax, %rbx
	movq	64(%rsp), %rax          # 8-byte Reload
	movq	%rax, (%rbx)
	movq	%rbx, (%rbp)
	movq	cCJhc_Type_Basic_Left(%rip), %rsi
	movq	80(%rsp), %rdi          # 8-byte Reload
	callq	s_alloc
	movq	$2, (%rax)
	jmp	.LBB1_40
.LBB1_39:
	movq	%rbx, %rcx
	movq	8(%rax), %rbx
	movq	%rbx, (%rcx)
	movq	cCJhc_Type_Basic_Right(%rip), %rsi
	movq	72(%rsp), %rdi          # 8-byte Reload
	callq	s_alloc
	movq	$65538, (%rax)          # imm = 0x10002
.LBB1_40:
	movq	%rbx, 8(%rax)
.LBB1_41:
	movq	%rax, %rcx
	testb	$2, %al
	jne	.LBB1_43
# %bb.42:
	movq	(%rax), %rcx
.LBB1_43:
	cmpq	$65535, %rcx            # imm = 0xFFFF
	ja	.LBB1_46
# %bb.44:
	movq	8(%rax), %rbx
	movq	%rbx, 32(%r15)
	movq	%r15, %r13
	leaq	40(%r13), %r15
	movq	cFInstance$__iJhc_Show_show_default(%rip), %rsi
	movq	%r15, %rdi
	callq	s_alloc
	movq	%rax, %rbp
	movq	$E__fInstance$__iJhc_Show_show_default+3, (%rbp)
	movq	$5242882, 8(%rbp)       # imm = 0x500002
	movq	%rbx, 16(%rbp)
	orq	$1, %rbp
	movq	%rbp, 40(%r13)
	leaq	48(%r13), %rbx
	movl	$_c815, %esi
	movq	%rbx, %rdi
	callq	eval
	cmpq	$65538, %rax            # imm = 0x10002
	je	.LBB1_48
# %bb.45:
	movq	%r14, 32(%rsp)          # 8-byte Spill
	movq	(%rax), %r14
	movq	8(%rax), %r12
	movq	%r14, 48(%r13)
	movq	%r12, 56(%r13)
	leaq	64(%r13), %rdi
	movq	cFR$__fJhc_Basics_$pp(%rip), %rsi
	callq	s_alloc
	movq	%rax, %rbx
	movq	$E__fR$__fJhc_Basics_$pp+3, (%rbx)
	movq	%r12, 8(%rbx)
	movq	%rbp, 16(%rbx)
	orq	$1, %rbx
	movq	%rbx, 64(%r13)
	leaq	72(%r13), %rdi
	movq	cCJhc_Prim_Prim_$x3a(%rip), %rsi
	callq	s_alloc
	movq	%r14, (%rax)
	movq	32(%rsp), %r14          # 8-byte Reload
	movq	%rbx, 8(%rax)
	jmp	.LBB1_49
.LBB1_46:
	movq	8(%rax), %rbx
	movq	%rbx, 32(%r15)
	leaq	40(%r15), %rdi
	movq	cCJhc_Type_Basic_Just(%rip), %rsi
	callq	s_alloc
	movq	%rbx, (%rax)
	cmpq	$2, %rax
	je	.LBB1_50
# %bb.47:
	movq	%r14, %rdi
	movq	%rbx, %rsi
	callq	eval
	cmpq	$2, %rax
	movl	$_c857, %eax
	movl	$_c841, %esi
	cmoveq	%rax, %rsi
	jmp	.LBB1_51
.LBB1_48:
	movq	%rbx, %rdi
	movq	%rbp, %rsi
	callq	eval
.LBB1_49:
	movq	8(%rsp), %r13           # 8-byte Reload
	movq	%r15, %rdi
	movq	%rax, %rsi
	callq	fHos_User_SysCall_hosDebugLog
	movl	$_c841, %esi
	movq	(%rsp), %r15            # 8-byte Reload
	jmp	.LBB1_51
.LBB1_50:
	movl	$_c841, %esi
.LBB1_51:
	movq	%r14, %rdi
	callq	fHos_User_SysCall_hosDebugLog
	movq	24(%rsp), %r12          # 8-byte Reload
.LBB1_52:
	movq	cP1__theMain$d25(%rip), %rsi
	movq	%r13, %rdi
	callq	s_alloc
	movq	%rax, %rbp
	movq	$3211266, (%rbp)        # imm = 0x310002
	movq	40(%rsp), %r14          # 8-byte Reload
	movq	%r14, 8(%rbp)
	movq	%rbp, (%r13)
	movq	cFtheMain$d29(%rip), %rsi
	movq	%r12, %rdi
	callq	s_alloc
	movq	%rax, %rbx
	movq	$E__ftheMain$d29+3, (%rbx)
	movq	%r14, 8(%rbx)
	movq	%rbp, 16(%rbx)
	orq	$1, %rbx
	movq	%rbx, (%r12)
	movl	$_c872, %esi
	movq	16(%rsp), %r13          # 8-byte Reload
	movq	%r13, %rdi
	callq	eval
	cmpq	$65538, %rax            # imm = 0x10002
	je	.LBB1_54
# %bb.53:
	movq	(%rax), %r14
	movq	8(%rax), %r15
	movq	%r14, (%r13)
	movq	(%rsp), %rax            # 8-byte Reload
	movq	%r15, 32(%rax)
	movq	(%rsp), %rax            # 8-byte Reload
	leaq	40(%rax), %rdi
	movq	cFR$__fJhc_Basics_$pp(%rip), %rsi
	callq	s_alloc
	movq	%rax, %rbp
	movq	$E__fR$__fJhc_Basics_$pp+3, (%rbp)
	movq	%r15, 8(%rbp)
	movq	(%rsp), %r15            # 8-byte Reload
	movq	%rbx, 16(%rbp)
	orq	$1, %rbp
	movq	%rbp, 40(%r15)
	leaq	48(%r15), %rdi
	movq	cCJhc_Prim_Prim_$x3a(%rip), %rsi
	callq	s_alloc
	movq	%rax, %rsi
	movq	%r14, (%rsi)
	movq	%rbp, 8(%rsi)
	jmp	.LBB1_55
.LBB1_54:
	movq	%r13, %rdi
	movq	%rbx, %rsi
	callq	eval
	movq	%rax, %rsi
.LBB1_55:
	movq	%r12, %rdi
	callq	fHos_User_SysCall_hosDebugLog
	movl	$_c892, %esi
	movq	%r12, %rdi
	movq	40(%rsp), %rdx          # 8-byte Reload
	callq	fPrelude_lookup
	cmpq	$2, %rax
	je	.LBB1_102
# %bb.56:
	movq	(%rax), %rsi
	movq	%r12, %rdi
	callq	eval
	cmpq	$65538, %rax            # imm = 0x10002
	je	.LBB1_102
# %bb.57:
	movq	(%rax), %rsi
	movq	8(%rax), %rbx
	movq	%rbx, (%r12)
	movq	%r13, %rdi
	callq	eval
	shrq	$2, %rax
	cmpl	$105, %eax
	jne	.LBB1_102
# %bb.58:
	movq	%r13, %rdi
	movq	%rbx, %rsi
	callq	eval
	cmpq	$65538, %rax            # imm = 0x10002
	je	.LBB1_102
# %bb.59:
	movq	(%rax), %rsi
	movq	8(%rax), %rbp
	movq	%rbp, (%r13)
	leaq	32(%r15), %rbx
	movq	%rbx, %rdi
	callq	eval
	shrq	$2, %rax
	cmpl	$58, %eax
	jne	.LBB1_102
# %bb.60:
	movq	cFtheMain$d31(%rip), %rsi
	movq	%rbx, %rdi
	callq	s_alloc
	movq	%rax, %r13
	movq	$E__ftheMain$d31+3, (%r13)
	movq	%rbp, 8(%r13)
	orq	$1, %r13
	movq	%r13, 32(%r15)
	leaq	40(%r15), %rdi
	movq	cFtheMain$d32(%rip), %rsi
	movq	%rdi, 8(%rsp)           # 8-byte Spill
	callq	s_alloc
	movq	%rax, %rbp
	movq	$E__ftheMain$d32+3, (%rbp)
	movq	%r13, 8(%rbp)
	orq	$1, %rbp
	movq	$5701634, 40(%r15)      # imm = 0x570002
	movq	%rbp, 48(%r15)
	leaq	56(%r15), %r12
	movq	$1245186, 56(%r15)      # imm = 0x130002
	leaq	64(%r15), %rdi
	movq	cFJhc_Text_Read_nonnull$d2(%rip), %rsi
	movq	%rdi, 16(%rsp)          # 8-byte Spill
	callq	s_alloc
	movq	%rax, %rbx
	movq	$E__fJhc_Text_Read_nonnull$d2+3, (%rbx)
	movq	$1245186, 8(%rbx)       # imm = 0x130002
	movq	%rbp, 16(%rbx)
	orq	$1, %rbx
	movq	%rbx, 64(%r15)
	leaq	72(%r15), %r14
	movq	cCJhc_Prim_Prim_$x3a(%rip), %rsi
	movq	%r14, %rdi
	callq	s_alloc
	movq	%rbx, (%rax)
	movq	$65538, 8(%rax)         # imm = 0x10002
	movq	%r14, %rdi
	movq	%rax, %rsi
	callq	fJhc_Text_Read_nonnull$d4
	movq	%rax, 48(%r15)
	movl	$42, %esi
	movl	$5701634, %edx          # imm = 0x570002
	movq	%r12, %rdi
	movq	%rax, %rcx
	callq	fJhc_Text_Read_readDec$d3
	cmpq	$65538, %rax            # imm = 0x10002
	je	.LBB1_102
# %bb.61:
	leaq	48(%r15), %rbx
	movq	(%rax), %rsi
	movq	8(%rax), %r15
	movq	8(%rsp), %rax           # 8-byte Reload
	movq	%r15, (%rax)
	movq	%rbx, %rdi
	callq	eval
	movq	(%rax), %rbp
	movq	8(%rax), %rsi
	movq	%rbp, (%rbx)
	movq	%r12, %rdi
	callq	eval
	cmpq	$65538, %rax            # imm = 0x10002
	jne	.LBB1_102
# %bb.62:
	movq	%rbp, 8(%rsp)           # 8-byte Spill
	movq	%r12, %rdi
	movq	%r15, %rsi
	callq	eval
	cmpq	$65538, %rax            # imm = 0x10002
	jne	.LBB1_102
# %bb.63:
	movq	cFtheMain$d33(%rip), %rsi
	movq	%r12, %rdi
	callq	s_alloc
	movq	%rax, %rbx
	movq	$E__ftheMain$d33+3, (%rbx)
	movq	%r13, 8(%rbx)
	orq	$1, %rbx
	movq	(%rsp), %rbp            # 8-byte Reload
	movq	$5701634, 56(%rbp)      # imm = 0x570002
	movq	%rbx, 64(%rbp)
	movq	$1245186, 72(%rbp)      # imm = 0x130002
	leaq	80(%rbp), %r13
	movq	cFJhc_Text_Read_nonnull$d2(%rip), %rsi
	movq	%r13, %rdi
	callq	s_alloc
	movq	%rax, %r15
	movq	$E__fJhc_Text_Read_nonnull$d2+3, (%r15)
	movq	$1245186, 8(%r15)       # imm = 0x130002
	movq	%rbx, 16(%r15)
	orq	$1, %r15
	movq	%r15, 80(%rbp)
	leaq	88(%rbp), %rbx
	movq	cCJhc_Prim_Prim_$x3a(%rip), %rsi
	movq	%rbx, %rdi
	callq	s_alloc
	movq	%r15, (%rax)
	movq	$65538, 8(%rax)         # imm = 0x10002
	movq	%rbx, 24(%rsp)          # 8-byte Spill
	movq	%rbx, %rdi
	movq	%rax, %rsi
	callq	fJhc_Text_Read_nonnull$d4
	movq	%rax, 64(%rbp)
	movl	$42, %esi
	movl	$5701634, %edx          # imm = 0x570002
	movq	%r14, %rdi
	movq	%rax, %rcx
	callq	fJhc_Text_Read_readDec$d3
	cmpq	$65538, %rax            # imm = 0x10002
	je	.LBB1_102
# %bb.64:
	movq	(%rax), %rsi
	movq	8(%rax), %r15
	movq	%r15, (%r12)
	movq	16(%rsp), %rbp          # 8-byte Reload
	movq	%rbp, %rdi
	callq	eval
	movq	(%rax), %rbx
	movq	8(%rax), %rsi
	movq	%rbx, (%rbp)
	movq	%r14, %rdi
	callq	eval
	cmpq	$65538, %rax            # imm = 0x10002
	jne	.LBB1_102
# %bb.65:
	movq	%rbx, 16(%rsp)          # 8-byte Spill
	movq	%r13, %r12
	movq	%r14, %rdi
	movq	%r15, %rsi
	callq	eval
	cmpq	$65538, %rax            # imm = 0x10002
	movq	40(%rsp), %rbp          # 8-byte Reload
	jne	.LBB1_102
# %bb.66:
	movq	%r14, %rdi
	movq	8(%rsp), %rsi           # 8-byte Reload
	callq	eval
	movq	%rax, %r13
	movq	%r13, %r15
	shrq	$2, %r15
	andl	$262140, %r13d          # imm = 0x3FFFC
	orq	$2, %r13
	movq	(%rsp), %r14            # 8-byte Reload
	movq	%r13, 72(%r14)
	movq	cFtheMain$d34(%rip), %rsi
	movq	%r12, %rdi
	callq	s_alloc
	movq	%rax, %rbx
	movq	$E__ftheMain$d34+3, (%rbx)
	movq	%rbp, 8(%rbx)
	orq	$1, %rbx
	movq	%rbx, 80(%r14)
	movq	cFInstance$__iJhc_Show_show_default(%rip), %rsi
	movq	24(%rsp), %rdi          # 8-byte Reload
	callq	s_alloc
	movq	%rax, %rbp
	movq	$E__fInstance$__iJhc_Show_show_default+3, (%rbp)
	movq	$5898242, 8(%rbp)       # imm = 0x5A0002
	movq	%rbx, 16(%rbp)
	orq	$1, %rbp
	movq	%rbp, 88(%r14)
	leaq	96(%r14), %rdi
	movq	cFJhc_Basics_$pp(%rip), %rsi
	callq	s_alloc
	movq	%rax, %r12
	movq	$E__fJhc_Basics_$pp+3, (%r12)
	movl	$_c900, %eax
	movq	%rax, %xmm0
	movdqa	.LCPI1_0(%rip), %xmm1   # xmm1 = <2,u>
	punpcklqdq	%xmm0, %xmm1    # xmm1 = xmm1[0],xmm0[0]
	movdqu	%xmm1, 8(%r12)
	movq	%rbp, 24(%r12)
	orq	$1, %r12
	movq	%r12, 96(%r14)
	leaq	104(%r14), %rdi
	movq	cFtheMain$d35(%rip), %rsi
	callq	s_alloc
	movq	%rax, %rbp
	movq	$E__ftheMain$d35+3, (%rbp)
	movq	16(%rsp), %rax          # 8-byte Reload
	movq	%rax, 8(%rbp)
	movq	%r15, 16(%rsp)          # 8-byte Spill
	movw	%r15w, 16(%rbp)
	orq	$1, %rbp
	movq	%rbp, 104(%r14)
	leaq	112(%r14), %rdi
	movq	cFNumeric_showHex(%rip), %rsi
	callq	s_alloc
	movq	%rax, %rbx
	movq	$E__fNumeric_showHex+3, (%rbx)
	movq	%rbp, 8(%rbx)
	movq	%r12, 16(%rbx)
	orq	$1, %rbx
	movq	%rbx, 112(%r14)
	leaq	120(%r14), %rdi
	movq	cCJhc_Prim_Prim_$x3a(%rip), %rsi
	callq	s_alloc
	movq	%rax, %rbp
	movq	$130, (%rbp)
	movq	%rbx, 8(%rbp)
	movq	%rbp, 120(%r14)
	movq	%r14, %rdi
	subq	$-128, %rdi
	movq	cCJhc_Prim_Prim_$x3a(%rip), %rsi
	callq	s_alloc
	movq	%rax, %rbx
	movq	$182, (%rbx)
	movq	%rbp, 8(%rbx)
	movq	%rbx, 128(%r14)
	leaq	136(%r14), %rdi
	movq	cCJhc_Prim_Prim_$x3a(%rip), %rsi
	callq	s_alloc
	movq	%rax, %rbp
	movq	$130, (%rbp)
	movq	%rbx, 8(%rbp)
	movq	%rbp, 136(%r14)
	leaq	144(%r14), %r12
	movq	cFNumeric_showHex(%rip), %rsi
	movq	%r12, %rdi
	callq	s_alloc
	movq	%rax, %rbx
	movq	$E__fNumeric_showHex+3, (%rbx)
	movq	%r13, 8(%rbx)
	movq	%r14, %r15
	movq	%rbp, 16(%rbx)
	orq	$1, %rbx
	movq	%rbx, 144(%r15)
	leaq	152(%r15), %r14
	movl	$_c935, %esi
	movq	%r14, %rdi
	callq	eval
	cmpq	$65538, %rax            # imm = 0x10002
	je	.LBB1_68
# %bb.67:
	movq	(%rax), %r13
	movq	8(%rax), %r15
	movq	(%rsp), %rax            # 8-byte Reload
	movq	%r13, 152(%rax)
	movq	(%rsp), %rax            # 8-byte Reload
	movq	%r15, 160(%rax)
	movq	(%rsp), %rax            # 8-byte Reload
	leaq	168(%rax), %rdi
	movq	cFR$__fJhc_Basics_$pp(%rip), %rsi
	callq	s_alloc
	movq	%rax, %rbp
	movq	$E__fR$__fJhc_Basics_$pp+3, (%rbp)
	movq	%r15, 8(%rbp)
	movq	(%rsp), %r15            # 8-byte Reload
	movq	%rbx, 16(%rbp)
	orq	$1, %rbp
	movq	%rbp, 168(%r15)
	leaq	176(%r15), %rdi
	movq	cCJhc_Prim_Prim_$x3a(%rip), %rsi
	callq	s_alloc
	movq	%r13, (%rax)
	movq	%rbp, 8(%rax)
	jmp	.LBB1_69
.LBB1_68:
	movq	%r14, %rdi
	movq	%rbx, %rsi
	callq	eval
.LBB1_69:
	movq	%r12, %rdi
	movq	%rax, %rsi
	callq	fHos_User_SysCall_hosDebugLog
	movq	%r12, saved_gc(%rip)
	movl	$768, %edi              # imm = 0x300
	xorl	%esi, %esi
	xorl	%edx, %edx
	xorl	%ecx, %ecx
	xorl	%r8d, %r8d
	xorl	%r9d, %r9d
	callq	syscall
	movl	$_c957, %esi
	movq	%r12, %rdi
	callq	fHos_User_SysCall_hosDebugLog
	movl	$_c978, %esi
	movq	%r12, %rdi
	movq	40(%rsp), %rdx          # 8-byte Reload
	callq	fPrelude_lookup
	cmpq	$2, %rax
	movq	16(%rsp), %r13          # 8-byte Reload
	je	.LBB1_102
# %bb.70:
	movq	(%rax), %rsi
	movq	%r12, %rdi
	callq	fPrelude_Text_read
	movq	%rax, %rbp
	testb	$4, %bpl
	jne	.LBB1_103
# %bb.71:
	movzwl	%r13w, %ebx
	movl	$496, %esi              # imm = 0x1F0
	movl	$1014, %edx             # imm = 0x3F6
	movl	$1, %r8d
	movq	%r12, %rdi
	movl	%ebx, %ecx
	callq	fW$__fMain_ataIdentify
	movq	%rax, 8(%rsp)           # 8-byte Spill
	movq	%rax, 144(%r15)
	movl	$496, %esi              # imm = 0x1F0
	movl	$1014, %edx             # imm = 0x3F6
	xorl	%r8d, %r8d
	movq	%r14, %rdi
	movl	%ebx, %ecx
	callq	fW$__fMain_ataIdentify
	movq	%rax, 24(%rsp)          # 8-byte Spill
	movq	%rax, 152(%r15)
	leaq	160(%r15), %rbx
	movl	$_c999, %esi
	movq	%rbx, %rdi
	callq	fHos_User_SysCall_hosDebugLog
	testb	$16, %bpl
	movq	%r15, %r14
	jne	.LBB1_104
# %bb.72:
	addl	$8, %r13d
	movzwl	%r13w, %ebp
	movl	$368, %esi              # imm = 0x170
	movl	$886, %edx              # imm = 0x376
	movl	$1, %r8d
	movq	%rbx, %rdi
	movl	%ebp, %ecx
	callq	fW$__fMain_ataIdentify
	movq	%rax, %r15
	movq	%r15, 160(%r14)
	leaq	168(%r14), %rdi
	movl	$368, %esi              # imm = 0x170
	movl	$886, %edx              # imm = 0x376
	xorl	%r8d, %r8d
	movl	%ebp, %ecx
	callq	fW$__fMain_ataIdentify
	movq	%rax, %r12
	movq	%r12, 168(%r14)
	leaq	176(%r14), %rdi
	movq	cCJhc_Prim_Prim_$x3a(%rip), %rsi
	callq	s_alloc
	movq	%rax, %rbp
	movq	24(%rsp), %rax          # 8-byte Reload
	movq	%rax, (%rbp)
	movq	$65538, 8(%rbp)         # imm = 0x10002
	movq	%rbp, 176(%r14)
	leaq	184(%r14), %rbx
	movq	cCJhc_Prim_Prim_$x3a(%rip), %rsi
	movq	%rbx, %rdi
	callq	s_alloc
	movq	8(%rsp), %rcx           # 8-byte Reload
	movq	%rcx, (%rax)
	movq	%rbp, 8(%rax)
	movq	%rbx, %rdi
	movq	%rax, %rsi
	callq	fJhc_Basics_117__g
	movq	%rbx, %rdi
	movq	%rax, %rsi
	callq	ftheMain$d37
	movq	%rax, %r13
	movq	%r13, 184(%r14)
	leaq	192(%r14), %rdi
	movq	cCJhc_Prim_Prim_$x3a(%rip), %rsi
	callq	s_alloc
	movq	%rax, %rbx
	movq	%r12, (%rbx)
	movq	$65538, 8(%rbx)         # imm = 0x10002
	movq	%rbx, 192(%r14)
	leaq	200(%r14), %rdi
	movq	cCJhc_Prim_Prim_$x3a(%rip), %rsi
	callq	s_alloc
	movq	%rax, %rbp
	movq	%r15, (%rbp)
	movq	%rbx, 8(%rbp)
	movq	%rbp, 200(%r14)
	leaq	208(%r14), %rbx
	movq	cFtheMain$d38(%rip), %rsi
	movq	%rbx, %rdi
	callq	s_alloc
	movq	%rax, %r12
	movq	$E__ftheMain$d38+3, (%r12)
	movq	%rbp, 8(%r12)
	orq	$1, %r12
	movq	%r12, 208(%r14)
	leaq	216(%r14), %r15
	movq	%r15, %rdi
	movq	%r13, %rsi
	callq	eval
	cmpq	$65538, %rax            # imm = 0x10002
	je	.LBB1_74
# %bb.73:
	movq	(%rax), %r13
	movq	8(%rax), %rbp
	movq	%r13, 216(%r14)
	movq	%rbp, 224(%r14)
	leaq	232(%r14), %rdi
	movq	cFR$__fJhc_Basics_$pp(%rip), %rsi
	movq	%rdi, 16(%rsp)          # 8-byte Spill
	callq	s_alloc
	movq	%rbx, 24(%rsp)          # 8-byte Spill
	movq	%rax, %rbx
	movq	$E__fR$__fJhc_Basics_$pp+3, (%rbx)
	movq	%rbp, 8(%rbx)
	movq	%r12, 16(%rbx)
	orq	$1, %rbx
	movq	%rbx, 232(%r14)
	leaq	240(%r14), %rdi
	movq	cCJhc_Prim_Prim_$x3a(%rip), %rsi
	callq	s_alloc
	movq	%rax, %rcx
	movq	%r13, (%rcx)
	movq	%rbx, 8(%rcx)
	movq	24(%rsp), %rbx          # 8-byte Reload
	jmp	.LBB1_75
.LBB1_74:
	movq	%r15, %rdi
	movq	%r12, %rsi
	callq	eval
	movq	%rax, %rcx
	leaq	232(%r14), %rax
	movq	%rax, 16(%rsp)          # 8-byte Spill
.LBB1_75:
	movq	%r15, %r13
	movq	%rcx, (%rbx)
	movq	%r13, %rdi
	movq	%rcx, 40(%rsp)          # 8-byte Spill
	movq	%rcx, %rsi
	callq	eval
	cmpq	$65538, %rax            # imm = 0x10002
	je	.LBB1_82
# %bb.76:
	movq	(%rsp), %r14            # 8-byte Reload
	leaq	240(%r14), %rcx
	movq	%rcx, 24(%rsp)          # 8-byte Spill
	leaq	256(%r14), %rcx
	movq	%rcx, 32(%rsp)          # 8-byte Spill
	leaq	264(%r14), %rcx
	movq	%rcx, 48(%rsp)          # 8-byte Spill
	leaq	224(%r14), %r15
	movq	16(%rsp), %rbx          # 8-byte Reload
	movq	%r13, 8(%rsp)           # 8-byte Spill
	.p2align	4, 0x90
.LBB1_77:                               # =>This Inner Loop Header: Depth=1
	movq	(%rax), %rbp
	movq	8(%rax), %r12
	movq	%r12, (%r13)
	movq	%rbp, (%r15)
	movq	cFInstance$__iJhc_Show_show_default(%rip), %rsi
	movq	%rbx, %rdi
	callq	s_alloc
	movq	%rax, %r13
	movq	$E__fInstance$__iJhc_Show_show_default+3, (%r13)
	movq	$5963778, 8(%r13)       # imm = 0x5B0002
	movq	%rbp, 16(%r13)
	orq	$1, %r13
	movq	%r13, (%rbx)
	movl	$_c1014, %esi
	movq	24(%rsp), %rbp          # 8-byte Reload
	movq	%rbp, %rdi
	callq	eval
	cmpq	$65538, %rax            # imm = 0x10002
	je	.LBB1_79
# %bb.78:                               #   in Loop: Header=BB1_77 Depth=1
	movq	(%rax), %rbp
	movq	8(%rax), %rbx
	movq	%rbp, 240(%r14)
	movq	%rbx, 248(%r14)
	movq	cFR$__fJhc_Basics_$pp(%rip), %rsi
	movq	32(%rsp), %rdi          # 8-byte Reload
	callq	s_alloc
	movq	%r15, %r14
	movq	%rax, %r15
	movq	$E__fR$__fJhc_Basics_$pp+3, (%r15)
	movq	%rbx, 8(%r15)
	movq	%r13, 16(%r15)
	orq	$1, %r15
	movq	(%rsp), %rax            # 8-byte Reload
	movq	%r15, 256(%rax)
	movq	cCJhc_Prim_Prim_$x3a(%rip), %rsi
	movq	48(%rsp), %rdi          # 8-byte Reload
	callq	s_alloc
	movq	%rbp, (%rax)
	movq	%r15, 8(%rax)
	movq	%r14, %r15
	movq	16(%rsp), %rbx          # 8-byte Reload
	movq	(%rsp), %r14            # 8-byte Reload
	jmp	.LBB1_80
	.p2align	4, 0x90
.LBB1_79:                               #   in Loop: Header=BB1_77 Depth=1
	movq	%rbp, %rdi
	movq	%r13, %rsi
	callq	eval
.LBB1_80:                               #   in Loop: Header=BB1_77 Depth=1
	movq	%rbx, %rdi
	movq	%rax, %rsi
	callq	fHos_User_SysCall_hosDebugLog
	movq	8(%rsp), %r13           # 8-byte Reload
	movq	%r13, %rdi
	movq	%r12, %rsi
	callq	eval
	cmpq	$65538, %rax            # imm = 0x10002
	jne	.LBB1_77
# %bb.81:
	movq	%r15, %rbp
	jmp	.LBB1_83
.LBB1_82:
	movq	(%rsp), %rax            # 8-byte Reload
	leaq	224(%rax), %rbp
.LBB1_83:
	movl	$_c1069, %esi
	movq	%r13, %rdi
	callq	fHos_User_SysCall_hosDebugLog
	movabsq	$1649267441664, %r12    # imm = 0x18000000000
	leaq	36864(%r12), %rdx
	movl	$_c1071, %ecx
	movq	%r13, %rdi
	movq	%r12, %rsi
	callq	fW$__fHos_User_SysCall_hosAddMappingToCurTask
	movq	cCJhc_Type_Word_Word64(%rip), %rsi
	movq	%r13, %rdi
	callq	s_alloc
	movq	%rax, %r15
	movq	%r12, (%r15)
	movl	$1, %edi
	callq	assert
	movq	%r15, (%r13)
	movq	cFW$__fJhc_Inst_Enum_93__f(%rip), %rsi
	movq	%rbp, %rdi
	callq	s_alloc
	movq	%rax, %rbx
	movq	$E__fW$__fJhc_Inst_Enum_93__f+3, (%rbx)
	addq	$4096, %r12             # imm = 0x1000
	movq	%r12, 8(%rbx)
	orq	$1, %rbx
	movq	%rbp, %r12
	movq	%rbx, (%rbp)
	movq	cCJhc_Prim_Prim_$x3a(%rip), %rsi
	movq	16(%rsp), %r14          # 8-byte Reload
	movq	%r14, %rdi
	callq	s_alloc
	movq	%r15, (%rax)
	movq	%rbx, 8(%rax)
	movq	%r13, %rdi
	movq	%rax, %rsi
	callq	fJhc_Monad_60__go
	cmpq	$65538, %rax            # imm = 0x10002
	je	.LBB1_105
# %bb.84:
	movq	(%rax), %rcx
	movq	8(%rax), %r15
	movq	(%rsp), %rbp            # 8-byte Reload
	movq	%r15, 216(%rbp)
	movq	%rcx, 32(%rsp)          # 8-byte Spill
	movq	%rcx, (%r12)
	movq	cCJhc_Type_Word_Int(%rip), %rsi
	movq	%r14, %rdi
	callq	s_alloc
	movq	%rax, %r13
	movl	$0, (%r13)
	movq	%r13, (%r14)
	leaq	240(%rbp), %rdi
	movq	cFW$__fInstance$__iJhc_Enum_enumFromTo_Jhc_Type_Word_Int$d2(%rip), %rsi
	movq	%rdi, 8(%rsp)           # 8-byte Spill
	callq	s_alloc
	movq	%rax, %rbx
	movq	$E__fW$__fInstance$__iJhc_Enum_enumFromTo_Jhc_Type_Word_Int$d2+3, (%rbx)
	movabsq	$6442450943, %rax       # imm = 0x17FFFFFFF
	movq	%rax, 8(%rbx)
	orq	$1, %rbx
	movq	%rbx, 240(%rbp)
	addq	$248, %rbp
	movq	cCJhc_Prim_Prim_$x3a(%rip), %rsi
	movq	%rbp, %rdi
	callq	s_alloc
	movq	%r13, (%rax)
	movq	%rbx, 8(%rax)
	movq	%r14, %rdi
	movq	%rax, %rsi
	movq	%r15, 24(%rsp)          # 8-byte Spill
	movq	%r15, %rdx
	callq	fR$__fJhc_Basics_zip
	movq	%r14, %rdi
	movq	%rax, %rsi
	callq	eval
	cmpq	$65538, %rax            # imm = 0x10002
	movq	%r14, %r15
	je	.LBB1_90
	.p2align	4, 0x90
.LBB1_85:                               # =>This Loop Header: Depth=1
                                        #     Child Loop BB1_86 Depth 2
	movq	(%rax), %rsi
	movq	8(%rax), %rax
	movq	%rax, (%rsp)            # 8-byte Spill
	movq	%rax, (%r15)
	movq	8(%rsp), %rbx           # 8-byte Reload
	movq	%rbx, %rdi
	callq	eval
	movq	(%rax), %rsi
	movq	8(%rax), %r14
	movq	%r14, (%rbx)
	movq	%rbp, %rdi
	callq	eval
	movl	(%rax), %r13d
	movq	%rbp, %rdi
	movq	%r14, %rsi
	callq	eval
	movl	(%rax), %ebx
	movl	$_g336087063+1, %esi
	movq	%rbp, %rdi
	callq	eval
	movq	(%rax), %r14
	leal	(,%r13,8), %eax
	cltq
	movl	%ebx, (%r14,%rax)
	movq	%rbp, %rdi
	movq	24(%rsp), %rsi          # 8-byte Reload
	callq	eval
	xorl	%r12d, %r12d
	cmpq	$65538, %rax            # imm = 0x10002
	je	.LBB1_87
	.p2align	4, 0x90
.LBB1_86:                               #   Parent Loop BB1_85 Depth=1
                                        # =>  This Inner Loop Header: Depth=2
	movq	8(%rax), %rsi
	addl	$1, %r12d
	movq	%rbp, %rdi
	callq	eval
	cmpq	$65538, %rax            # imm = 0x10002
	jne	.LBB1_86
.LBB1_87:                               #   in Loop: Header=BB1_85 Depth=1
	leal	4(,%r13,8), %r15d
	addl	$-1, %r12d
	movl	$4096, %eax             # imm = 0x1000
	cmpl	%r12d, %r13d
	jne	.LBB1_89
# %bb.88:                               #   in Loop: Header=BB1_85 Depth=1
	movl	$1, %edi
	callq	assert
	movl	$-2147479552, %eax      # imm = 0x80001000
.LBB1_89:                               #   in Loop: Header=BB1_85 Depth=1
	movslq	%r15d, %rcx
	movl	%eax, (%r14,%rcx)
	movq	16(%rsp), %r15          # 8-byte Reload
	movq	%r15, %rdi
	movq	(%rsp), %rsi            # 8-byte Reload
	callq	eval
	cmpq	$65538, %rax            # imm = 0x10002
	jne	.LBB1_85
.LBB1_90:
	movq	%r15, %rdi
	movq	40(%rsp), %rsi          # 8-byte Reload
	callq	eval
	cmpq	$65538, %rax            # imm = 0x10002
	je	.LBB1_94
# %bb.91:
	movl	$-2, %ebx
	.p2align	4, 0x90
.LBB1_92:                               # =>This Inner Loop Header: Depth=1
	addl	$1, %ebx
	je	.LBB1_95
# %bb.93:                               #   in Loop: Header=BB1_92 Depth=1
	movq	8(%rax), %rsi
	movq	%r15, %rdi
	callq	eval
	cmpq	$65538, %rax            # imm = 0x10002
	jne	.LBB1_92
.LBB1_94:
	movl	$.L.str.15, %edi
	callq	jhc_error
.LBB1_95:
	movq	(%rax), %rsi
	movq	%r15, %rdi
	callq	eval
	movq	%rax, %rcx
	testb	$2, %al
	jne	.LBB1_97
# %bb.96:
	movq	(%rax), %rcx
.LBB1_97:
	andq	$-65536, %rcx           # imm = 0xFFFF0000
	cmpq	$65536, %rcx            # imm = 0x10000
	jne	.LBB1_106
# %bb.98:
	movq	8(%rax), %rsi
	movzwl	24(%rax), %ebx
	movq	%r15, %rdi
	callq	eval
	movzwl	(%rax), %r13d
	movzwl	4(%rax), %eax
	movq	%rax, (%rsp)            # 8-byte Spill
	movl	$160, %ecx
	movl	$1, %r8d
	movq	%r15, %rdi
	movl	%r13d, %esi
	movl	%ebx, %edx
	callq	fW$__fMain_ataSimpleCommand
	movl	$_c1128, %esi
	movq	%r15, %rdi
	callq	fHos_User_SysCall_hosDebugLog
	movl	%r13d, %edx
	addl	$7, %edx
                                        # kill: def %dx killed %dx killed %edx
	#APP
	inb	%dx, %al
	#NO_APP
	movzbl	%al, %r14d
	leaq	2(,%r14,4), %rbx
	movq	8(%rsp), %r12           # 8-byte Reload
	.p2align	4, 0x90
.LBB1_99:                               # =>This Inner Loop Header: Depth=1
	movq	%r15, saved_gc(%rip)
	movq	$3342338, (%r15)        # imm = 0x330002
	movq	%rbx, (%r12)
	movq	%rbp, %rdi
	movq	%rbx, %rsi
	callq	eval
	btl	$9, %eax
	jb	.LBB1_99
# %bb.100:
	movl	$1, %edi
	callq	assert
	movq	%rbx, (%r15)
	movl	$_c1152, %esi
	movq	%r12, %rdi
	callq	fHos_User_SysCall_hosDebugLog
	testb	$8, %r14b
	jne	.LBB1_107
# %bb.101:
	movl	$_c1181, %esi
	movq	%r12, %rdi
	addq	$104, %rsp
	popq	%rbx
	popq	%r12
	popq	%r13
	popq	%r14
	popq	%r15
	popq	%rbp
	jmp	fHos_User_SysCall_hosDebugLog # TAILCALL
.LBB1_102:
	movl	$.L.str.3, %edi
	callq	jhc_error
.LBB1_103:
	movl	$.L.str.6, %edi
	callq	jhc_error
.LBB1_104:
	movl	$.L.str.5, %edi
	callq	jhc_error
.LBB1_105:
	movl	$_c1111, %esi
	movq	%r13, %rdi
	jmp	.LBB1_109
.LBB1_106:
	movl	$.L.str.4, %edi
	callq	jhc_error
.LBB1_107:
	movq	%r12, saved_gc(%rip)
	movw	$40, %ax
	movl	%r13d, %edx
	#APP
	outw	%ax, %dx
	#NO_APP
	movq	%r12, saved_gc(%rip)
	xorl	%eax, %eax
	#APP
	outw	%ax, %dx
	#NO_APP
	movq	%r12, saved_gc(%rip)
	movw	$4096, %ax              # imm = 0x1000
	#APP
	outw	%ax, %dx
	#NO_APP
	movq	%r12, saved_gc(%rip)
	xorl	%eax, %eax
	#APP
	outw	%ax, %dx
	#NO_APP
	movq	%r12, saved_gc(%rip)
	movw	$16, %ax
	#APP
	outw	%ax, %dx
	#NO_APP
	movq	%r12, saved_gc(%rip)
	xorl	%eax, %eax
	#APP
	outw	%ax, %dx
	#NO_APP
	movq	%r12, saved_gc(%rip)
	movb	$127, %al
	movw	$161, %dx
	#APP
	outb	%al, %dx
	#NO_APP
	movq	(%rsp), %rbx            # 8-byte Reload
	leal	4(%rbx), %r14d
	movq	%r12, %rdi
	movq	32(%rsp), %rsi          # 8-byte Reload
	callq	eval
	movl	(%rax), %eax
	movq	%r12, saved_gc(%rip)
	movl	%r14d, %edx
	#APP
	outl	%eax, %dx
	#NO_APP
	movq	%r12, saved_gc(%rip)
	movb	$9, %al
	movl	%ebx, %edx
	#APP
	outb	%al, %dx
	#NO_APP
	leal	2(%rbx), %edx
	movq	%r12, saved_gc(%rip)
	movb	$6, %al
                                        # kill: def %dx killed %dx killed %edx
	#APP
	outb	%al, %dx
	#NO_APP
.LBB1_108:
	movl	$1, %edi
	callq	assert
	movl	$_c791, %esi
	movq	48(%rsp), %rdi          # 8-byte Reload
.LBB1_109:
	callq	fJhc_IO_putErrLn
	movl	$255, %edi
	callq	jhc_exit
.Lfunc_end1:
	.size	_amain, .Lfunc_end1-_amain
	.cfi_endproc
                                        # -- End function
	.p2align	4, 0x90         # -- Begin function E__ftheMain$d41
	.type	E__ftheMain$d41,@function
E__ftheMain$d41:                        # @"E__ftheMain$d41"
	.cfi_startproc
# %bb.0:
	pushq	%r15
	.cfi_def_cfa_offset 16
	pushq	%r14
	.cfi_def_cfa_offset 24
	pushq	%rbx
	.cfi_def_cfa_offset 32
	.cfi_offset %rbx, -32
	.cfi_offset %r14, -24
	.cfi_offset %r15, -16
	movq	%rsi, %r14
	movq	%rdi, %r15
	movq	%r15, saved_gc(%rip)
	movq	cCJhc_Type_Ptr_Ptr(%rip), %rsi
	callq	s_alloc
	movq	%rax, %rbx
	movabsq	$1649267441664, %rax    # imm = 0x18000000000
	movq	%rax, (%rbx)
	movq	%rbx, (%r14)
	movq	%r15, %rdi
	movq	%rbx, %rsi
	callq	gc_add_root
	movq	%rbx, %rax
	popq	%rbx
	popq	%r14
	popq	%r15
	retq
.Lfunc_end2:
	.size	E__ftheMain$d41, .Lfunc_end2-E__ftheMain$d41
	.cfi_endproc
                                        # -- End function
	.p2align	4, 0x90         # -- Begin function E__ftheMain$d23
	.type	E__ftheMain$d23,@function
E__ftheMain$d23:                        # @"E__ftheMain$d23"
	.cfi_startproc
# %bb.0:
	pushq	%rax
	.cfi_def_cfa_offset 16
	callq	ftheMain$d23
.Lfunc_end3:
	.size	E__ftheMain$d23, .Lfunc_end3-E__ftheMain$d23
	.cfi_endproc
                                        # -- End function
	.p2align	4, 0x90         # -- Begin function ftheMain$d23
	.type	ftheMain$d23,@function
ftheMain$d23:                           # @"ftheMain$d23"
	.cfi_startproc
# %bb.0:
	pushq	%rax
	.cfi_def_cfa_offset 16
	movl	$.L.str, %edi
	callq	jhc_error
.Lfunc_end4:
	.size	ftheMain$d23, .Lfunc_end4-ftheMain$d23
	.cfi_endproc
                                        # -- End function
	.p2align	4, 0x90         # -- Begin function E__ftheMain$d9
	.type	E__ftheMain$d9,@function
E__ftheMain$d9:                         # @"E__ftheMain$d9"
	.cfi_startproc
# %bb.0:
	pushq	%r15
	.cfi_def_cfa_offset 16
	pushq	%r14
	.cfi_def_cfa_offset 24
	pushq	%rbx
	.cfi_def_cfa_offset 32
	.cfi_offset %rbx, -32
	.cfi_offset %r14, -24
	.cfi_offset %r15, -16
	movq	%rsi, %r14
	movq	%rdi, %r15
	movq	%r15, saved_gc(%rip)
	movq	cCJhc_Type_Ptr_Ptr(%rip), %rsi
	callq	s_alloc
	movq	%rax, %rbx
	movabsq	$1099511627776, %rax    # imm = 0x10000000000
	movq	%rax, (%rbx)
	movq	%rbx, (%r14)
	movq	%r15, %rdi
	movq	%rbx, %rsi
	callq	gc_add_root
	movq	%rbx, %rax
	popq	%rbx
	popq	%r14
	popq	%r15
	retq
.Lfunc_end5:
	.size	E__ftheMain$d9, .Lfunc_end5-E__ftheMain$d9
	.cfi_endproc
                                        # -- End function
	.p2align	4, 0x90         # -- Begin function E__ftheMain$d7
	.type	E__ftheMain$d7,@function
E__ftheMain$d7:                         # @"E__ftheMain$d7"
	.cfi_startproc
# %bb.0:
	pushq	%rax
	.cfi_def_cfa_offset 16
	callq	ftheMain$d7
.Lfunc_end6:
	.size	E__ftheMain$d7, .Lfunc_end6-E__ftheMain$d7
	.cfi_endproc
                                        # -- End function
	.p2align	4, 0x90         # -- Begin function ftheMain$d7
	.type	ftheMain$d7,@function
ftheMain$d7:                            # @"ftheMain$d7"
	.cfi_startproc
# %bb.0:
	pushq	%rax
	.cfi_def_cfa_offset 16
	movl	$.L.str, %edi
	callq	jhc_error
.Lfunc_end7:
	.size	ftheMain$d7, .Lfunc_end7-ftheMain$d7
	.cfi_endproc
                                        # -- End function
	.p2align	4, 0x90         # -- Begin function E__ftheMain$d5
	.type	E__ftheMain$d5,@function
E__ftheMain$d5:                         # @"E__ftheMain$d5"
	.cfi_startproc
# %bb.0:
	pushq	%rax
	.cfi_def_cfa_offset 16
	callq	ftheMain$d5
.Lfunc_end8:
	.size	E__ftheMain$d5, .Lfunc_end8-E__ftheMain$d5
	.cfi_endproc
                                        # -- End function
	.p2align	4, 0x90         # -- Begin function ftheMain$d5
	.type	ftheMain$d5,@function
ftheMain$d5:                            # @"ftheMain$d5"
	.cfi_startproc
# %bb.0:
	pushq	%rax
	.cfi_def_cfa_offset 16
	movl	$.L.str, %edi
	callq	jhc_error
.Lfunc_end9:
	.size	ftheMain$d5, .Lfunc_end9-ftheMain$d5
	.cfi_endproc
                                        # -- End function
	.p2align	4, 0x90         # -- Begin function E__ftheMain$d4
	.type	E__ftheMain$d4,@function
E__ftheMain$d4:                         # @"E__ftheMain$d4"
	.cfi_startproc
# %bb.0:
	pushq	%r15
	.cfi_def_cfa_offset 16
	pushq	%r14
	.cfi_def_cfa_offset 24
	pushq	%rbx
	.cfi_def_cfa_offset 32
	.cfi_offset %rbx, -32
	.cfi_offset %r14, -24
	.cfi_offset %r15, -16
	movq	%rsi, %r14
	movq	%rdi, %r15
	movq	%r15, saved_gc(%rip)
	movq	cCJhc_Type_Ptr_Ptr(%rip), %rsi
	callq	s_alloc
	movq	%rax, %rbx
	movabsq	$824633720832, %rax     # imm = 0xC000000000
	movq	%rax, (%rbx)
	movq	%rbx, (%r14)
	movq	%r15, %rdi
	movq	%rbx, %rsi
	callq	gc_add_root
	movq	%rbx, %rax
	popq	%rbx
	popq	%r14
	popq	%r15
	retq
.Lfunc_end10:
	.size	E__ftheMain$d4, .Lfunc_end10-E__ftheMain$d4
	.cfi_endproc
                                        # -- End function
	.p2align	4, 0x90         # -- Begin function E__ftheMain$d2
	.type	E__ftheMain$d2,@function
E__ftheMain$d2:                         # @"E__ftheMain$d2"
	.cfi_startproc
# %bb.0:
	pushq	%rax
	.cfi_def_cfa_offset 16
	callq	ftheMain$d2
.Lfunc_end11:
	.size	E__ftheMain$d2, .Lfunc_end11-E__ftheMain$d2
	.cfi_endproc
                                        # -- End function
	.p2align	4, 0x90         # -- Begin function ftheMain$d2
	.type	ftheMain$d2,@function
ftheMain$d2:                            # @"ftheMain$d2"
	.cfi_startproc
# %bb.0:
	pushq	%rax
	.cfi_def_cfa_offset 16
	movl	$.L.str, %edi
	callq	jhc_error
.Lfunc_end12:
	.size	ftheMain$d2, .Lfunc_end12-ftheMain$d2
	.cfi_endproc
                                        # -- End function
	.p2align	4, 0x90         # -- Begin function E__ftheMain$d22
	.type	E__ftheMain$d22,@function
E__ftheMain$d22:                        # @"E__ftheMain$d22"
	.cfi_startproc
# %bb.0:
	pushq	%rbp
	.cfi_def_cfa_offset 16
	pushq	%r15
	.cfi_def_cfa_offset 24
	pushq	%r14
	.cfi_def_cfa_offset 32
	pushq	%r13
	.cfi_def_cfa_offset 40
	pushq	%r12
	.cfi_def_cfa_offset 48
	pushq	%rbx
	.cfi_def_cfa_offset 56
	subq	$24, %rsp
	.cfi_def_cfa_offset 80
	.cfi_offset %rbx, -56
	.cfi_offset %r12, -48
	.cfi_offset %r13, -40
	.cfi_offset %r14, -32
	.cfi_offset %r15, -24
	.cfi_offset %rbp, -16
	movq	%rsi, %rbp
	movq	%rdi, %r15
	movl	$_g1577601047+1, %esi
	callq	fR$__fJhc_Basics_foldr
	movq	%rax, %r13
	movq	%r13, (%r15)
	leaq	8(%r15), %rbx
	movl	$_c11, %esi
	movq	%rbx, %rdi
	callq	eval
	cmpq	$65538, %rax            # imm = 0x10002
	movq	%rbp, 16(%rsp)          # 8-byte Spill
	movl	$248, %ebp
	je	.LBB13_3
	.p2align	4, 0x90
.LBB13_1:                               # =>This Inner Loop Header: Depth=1
	movq	8(%rax), %rsi
	movq	%rbx, %rdi
	callq	eval
	addl	$-1, %ebp
	cmpq	$65538, %rax            # imm = 0x10002
	jne	.LBB13_1
# %bb.2:
	testl	%ebp, %ebp
	jle	.LBB13_4
.LBB13_3:
	addl	$-1, %ebp
	movq	cFtheMain$d21(%rip), %rsi
	movq	%rbx, %rdi
	callq	s_alloc
	movq	%rax, %r14
	movq	$E__ftheMain$d21+3, (%r14)
	movl	%ebp, 8(%r14)
	orq	$1, %r14
	movq	%r14, 8(%r15)
	leaq	16(%r15), %rdi
	movq	cCJhc_Prim_Prim_$x3a(%rip), %rsi
	movq	%rdi, %r12
	callq	s_alloc
	movq	%rax, %rsi
	movq	$_g203573783+1, (%rsi)
	movq	%r14, 8(%rsi)
	jmp	.LBB13_5
.LBB13_4:
	movl	$1, %edi
	callq	assert
	leaq	16(%r15), %r12
	movl	$65538, %esi            # imm = 0x10002
.LBB13_5:
	movq	%r15, %r14
	movq	%rbx, %rdi
	callq	fR$__fJhc_Basics_foldr
	movq	(%r13), %r15
	movq	8(%r13), %rcx
	movq	%rcx, 8(%rsp)           # 8-byte Spill
	movq	(%rax), %rbp
	movq	8(%rax), %r13
	addq	%rcx, %r13
	movq	%r15, 8(%r14)
	movq	%rbp, (%r12)
	leaq	24(%r14), %rdi
	movq	cP2__W$__fInstance$__iData_Monoid_mappend_Data_Binary_Builder$d2(%rip), %rsi
	callq	s_alloc
	movq	%rax, %rbx
	movq	$4718594, (%rbx)        # imm = 0x480002
	movq	%rbp, 8(%rbx)
	movq	%r15, 16(%rbx)
	movq	8(%rsp), %rax           # 8-byte Reload
	movq	%rax, 24(%rbx)
	movq	%rbx, 8(%r14)
	movq	cCData_Binary_Builder(%rip), %rsi
	movq	%r12, %rdi
	callq	s_alloc
	movq	%rax, %rbp
	movq	%rbx, (%rbp)
	movq	%r13, 8(%rbp)
	movq	16(%rsp), %rax          # 8-byte Reload
	movq	%rbp, (%rax)
	movq	%r14, %rdi
	movq	%rbp, %rsi
	callq	gc_add_root
	movq	%rbp, %rax
	addq	$24, %rsp
	popq	%rbx
	popq	%r12
	popq	%r13
	popq	%r14
	popq	%r15
	popq	%rbp
	retq
.Lfunc_end13:
	.size	E__ftheMain$d22, .Lfunc_end13-E__ftheMain$d22
	.cfi_endproc
                                        # -- End function
	.p2align	4, 0x90         # -- Begin function fR$__fJhc_Basics_foldr
	.type	fR$__fJhc_Basics_foldr,@function
fR$__fJhc_Basics_foldr:                 # @"fR$__fJhc_Basics_foldr"
	.cfi_startproc
# %bb.0:
	pushq	%rbp
	.cfi_def_cfa_offset 16
	pushq	%r15
	.cfi_def_cfa_offset 24
	pushq	%r14
	.cfi_def_cfa_offset 32
	pushq	%r13
	.cfi_def_cfa_offset 40
	pushq	%r12
	.cfi_def_cfa_offset 48
	pushq	%rbx
	.cfi_def_cfa_offset 56
	subq	$40, %rsp
	.cfi_def_cfa_offset 96
	.cfi_offset %rbx, -56
	.cfi_offset %r12, -48
	.cfi_offset %r13, -40
	.cfi_offset %r14, -32
	.cfi_offset %r15, -24
	.cfi_offset %rbp, -16
	movq	%rdi, %r15
	callq	eval
	cmpq	$65538, %rax            # imm = 0x10002
	je	.LBB14_1
# %bb.2:
	movq	(%rax), %rsi
	movq	8(%rax), %r14
	movq	%r14, (%r15)
	leaq	8(%r15), %rdi
	callq	eval
	movq	(%rax), %r12
	movq	8(%rax), %rbx
	movq	%r12, 8(%r15)
	leaq	16(%r15), %rdi
	movq	%r14, %rsi
	callq	fR$__fJhc_Basics_foldr
	movaps	(%rax), %xmm0
	movaps	%xmm0, 16(%rsp)         # 16-byte Spill
	movlps	%xmm0, 16(%r15)
	leaq	24(%r15), %rdi
	movq	cCData_Binary_Builder(%rip), %rsi
	callq	s_alloc
	movq	%rax, %r14
	movaps	16(%rsp), %xmm0         # 16-byte Reload
	movaps	%xmm0, (%r14)
	movq	%r14, 24(%r15)
	leaq	32(%r15), %rdi
	movq	cCData_Binary_Builder(%rip), %rsi
	callq	s_alloc
	movq	%r12, (%rax)
	movq	%rbx, 8(%rsp)           # 8-byte Spill
	movq	%rbx, 8(%rax)
	movq	(%r14), %r13
	movq	8(%r14), %rbp
	addq	%rbx, %rbp
	movq	%r12, 32(%r15)
	leaq	40(%r15), %r14
	movq	%r13, 40(%r15)
	leaq	48(%r15), %rdi
	movq	cP2__W$__fInstance$__iData_Monoid_mappend_Data_Binary_Builder$d2(%rip), %rsi
	callq	s_alloc
	movq	%rax, %rbx
	movq	$4718594, (%rbx)        # imm = 0x480002
	movq	%r13, 8(%rbx)
	movq	%r12, 16(%rbx)
	movq	8(%rsp), %rax           # 8-byte Reload
	movq	%rax, 24(%rbx)
	movq	%rbx, 32(%r15)
	movq	cCData_Binary_Builder(%rip), %rsi
	movq	%r14, %rdi
	callq	s_alloc
	movq	%rbx, (%rax)
	movq	%rbp, 8(%rax)
	movq	%rbx, 32(%r15)
	movq	cCData_Binary_Builder(%rip), %rsi
	movq	%r14, %rdi
	callq	s_alloc
	movq	%rbx, (%rax)
	movq	%rbp, 8(%rax)
	jmp	.LBB14_3
.LBB14_1:
	movl	$_c2, %eax
.LBB14_3:
	addq	$40, %rsp
	popq	%rbx
	popq	%r12
	popq	%r13
	popq	%r14
	popq	%r15
	popq	%rbp
	retq
.Lfunc_end14:
	.size	fR$__fJhc_Basics_foldr, .Lfunc_end14-fR$__fJhc_Basics_foldr
	.cfi_endproc
                                        # -- End function
	.p2align	4, 0x90         # -- Begin function E__ftheMain$d21
	.type	E__ftheMain$d21,@function
E__ftheMain$d21:                        # @"E__ftheMain$d21"
	.cfi_startproc
# %bb.0:
	pushq	%rbp
	.cfi_def_cfa_offset 16
	pushq	%r15
	.cfi_def_cfa_offset 24
	pushq	%r14
	.cfi_def_cfa_offset 32
	pushq	%rbx
	.cfi_def_cfa_offset 40
	pushq	%rax
	.cfi_def_cfa_offset 48
	.cfi_offset %rbx, -40
	.cfi_offset %r14, -32
	.cfi_offset %r15, -24
	.cfi_offset %rbp, -16
	movq	%rsi, %r14
	movq	%rdi, %r15
	movq	%r14, %rax
	orq	$1, %rax
	movq	%rax, (%r15)
	movl	8(%r14), %ebp
	testl	%ebp, %ebp
	jle	.LBB15_2
# %bb.1:
	leaq	8(%r15), %rdi
	addl	$-1, %ebp
	movq	cFtheMain$d21(%rip), %rsi
	callq	s_alloc
	movq	%rax, %rbx
	movq	$E__ftheMain$d21+3, (%rbx)
	movl	%ebp, 8(%rbx)
	orq	$1, %rbx
	movq	%rbx, 8(%r15)
	addq	$16, %r15
	movq	cCJhc_Prim_Prim_$x3a(%rip), %rsi
	movq	%r15, %rdi
	callq	s_alloc
	movq	$_g203573783+1, (%rax)
	movq	%rbx, 8(%rax)
	jmp	.LBB15_3
.LBB15_2:
	movl	$1, %edi
	callq	assert
	movl	$65538, %eax            # imm = 0x10002
.LBB15_3:
	movq	%rax, (%r14)
	addq	$8, %rsp
	popq	%rbx
	popq	%r14
	popq	%r15
	popq	%rbp
	retq
.Lfunc_end15:
	.size	E__ftheMain$d21, .Lfunc_end15-E__ftheMain$d21
	.cfi_endproc
                                        # -- End function
	.p2align	4, 0x90         # -- Begin function E__ftheMain$d16
	.type	E__ftheMain$d16,@function
E__ftheMain$d16:                        # @"E__ftheMain$d16"
	.cfi_startproc
# %bb.0:
	pushq	%r15
	.cfi_def_cfa_offset 16
	pushq	%r14
	.cfi_def_cfa_offset 24
	pushq	%rbx
	.cfi_def_cfa_offset 32
	.cfi_offset %rbx, -32
	.cfi_offset %r14, -24
	.cfi_offset %r15, -16
	movq	%rsi, %r14
	movq	%rdi, %r15
	movl	$_g1579042839+1, %esi
	callq	fR$__fJhc_Basics_foldr
	movq	%rax, %rbx
	movq	%rbx, (%r14)
	movq	%r15, %rdi
	movq	%rbx, %rsi
	callq	gc_add_root
	movq	%rbx, %rax
	popq	%rbx
	popq	%r14
	popq	%r15
	retq
.Lfunc_end16:
	.size	E__ftheMain$d16, .Lfunc_end16-E__ftheMain$d16
	.cfi_endproc
                                        # -- End function
	.p2align	4, 0x90         # -- Begin function E__ftheMain$d20
	.type	E__ftheMain$d20,@function
E__ftheMain$d20:                        # @"E__ftheMain$d20"
	.cfi_startproc
# %bb.0:
	pushq	%rbp
	.cfi_def_cfa_offset 16
	pushq	%r15
	.cfi_def_cfa_offset 24
	pushq	%r14
	.cfi_def_cfa_offset 32
	pushq	%r13
	.cfi_def_cfa_offset 40
	pushq	%r12
	.cfi_def_cfa_offset 48
	pushq	%rbx
	.cfi_def_cfa_offset 56
	pushq	%rax
	.cfi_def_cfa_offset 64
	.cfi_offset %rbx, -56
	.cfi_offset %r12, -48
	.cfi_offset %r13, -40
	.cfi_offset %r14, -32
	.cfi_offset %r15, -24
	.cfi_offset %rbp, -16
	movq	%rsi, %r14
	movq	%rdi, %r12
	movq	$2, (%r12)
	leaq	8(%r12), %r15
	movq	cFW$__fInstance$__iData_Binary_put_Jhc_Type_Basic_Char$d2(%rip), %rsi
	movq	%r15, %rdi
	callq	s_alloc
	movq	%rax, %rbx
	movq	$E__fW$__fInstance$__iData_Binary_put_Jhc_Type_Basic_Char$d2+3, (%rbx)
	movq	$2, 8(%rbx)
	orq	$1, %rbx
	movq	$5898242, 8(%r12)       # imm = 0x5A0002
	movq	%rbx, 16(%r12)
	leaq	24(%r12), %rdi
	movq	cP2__W$__fData_Binary_storableB$d2(%rip), %rsi
	callq	s_alloc
	movq	%rax, %r13
	movq	$4128770, (%r13)        # imm = 0x3F0002
	movq	$5898242, 8(%r13)       # imm = 0x5A0002
	movq	%rbx, 16(%r13)
	movq	%r13, 24(%r12)
	leaq	32(%r12), %rdi
	movq	cP2__W$__fData_Binary_storableB$d3(%rip), %rsi
	callq	s_alloc
	movq	%rax, %rbp
	movq	$4194306, (%rbp)        # imm = 0x400002
	movq	%r13, 8(%rbp)
	movq	%rbp, (%r12)
	movq	cCData_Binary_Builder(%rip), %rsi
	movq	%r15, %rdi
	callq	s_alloc
	movq	%rax, %rbx
	movq	%rbp, (%rbx)
	movq	$1, 8(%rbx)
	movq	%rbx, (%r14)
	movq	%r12, %rdi
	movq	%rbx, %rsi
	callq	gc_add_root
	movq	%rbx, %rax
	addq	$8, %rsp
	popq	%rbx
	popq	%r12
	popq	%r13
	popq	%r14
	popq	%r15
	popq	%rbp
	retq
.Lfunc_end17:
	.size	E__ftheMain$d20, .Lfunc_end17-E__ftheMain$d20
	.cfi_endproc
                                        # -- End function
	.p2align	4, 0x90         # -- Begin function E__fW$__fInstance$__iData_Binary_put_Jhc_Type_Basic_Char$d2
	.type	E__fW$__fInstance$__iData_Binary_put_Jhc_Type_Basic_Char$d2,@function
E__fW$__fInstance$__iData_Binary_put_Jhc_Type_Basic_Char$d2: # @"E__fW$__fInstance$__iData_Binary_put_Jhc_Type_Basic_Char$d2"
	.cfi_startproc
# %bb.0:
	pushq	%rbx
	.cfi_def_cfa_offset 16
	.cfi_offset %rbx, -16
	movq	%rsi, %rbx
	movq	%rbx, %rax
	orq	$1, %rax
	movq	%rax, (%rdi)
	addq	$8, %rdi
	movq	8(%rbx), %rsi
	callq	eval
	andl	$1020, %eax             # imm = 0x3FC
	orq	$2, %rax
	movq	%rax, (%rbx)
	popq	%rbx
	retq
.Lfunc_end18:
	.size	E__fW$__fInstance$__iData_Binary_put_Jhc_Type_Basic_Char$d2, .Lfunc_end18-E__fW$__fInstance$__iData_Binary_put_Jhc_Type_Basic_Char$d2
	.cfi_endproc
                                        # -- End function
	.p2align	4, 0x90         # -- Begin function E__ftheMain$d15
	.type	E__ftheMain$d15,@function
E__ftheMain$d15:                        # @"E__ftheMain$d15"
	.cfi_startproc
# %bb.0:
	pushq	%r15
	.cfi_def_cfa_offset 16
	pushq	%r14
	.cfi_def_cfa_offset 24
	pushq	%r13
	.cfi_def_cfa_offset 32
	pushq	%r12
	.cfi_def_cfa_offset 40
	pushq	%rbx
	.cfi_def_cfa_offset 48
	.cfi_offset %rbx, -48
	.cfi_offset %r12, -40
	.cfi_offset %r13, -32
	.cfi_offset %r14, -24
	.cfi_offset %r15, -16
	movq	%rsi, %r14
	movq	%rdi, %r15
	movl	$_c11, %esi
	callq	eval
	cmpq	$65538, %rax            # imm = 0x10002
	je	.LBB19_1
# %bb.2:
	movq	(%rax), %r12
	movq	8(%rax), %r13
	movq	%r12, (%r15)
	movq	%r13, 8(%r15)
	leaq	16(%r15), %rdi
	movq	cFW$__fR$__fJhc_List_383__f(%rip), %rsi
	callq	s_alloc
	movq	%rax, %rbx
	movq	$E__fW$__fR$__fJhc_List_383__f+3, (%rbx)
	movl	$247, 16(%rbx)
	movq	%r13, 8(%rbx)
	orq	$1, %rbx
	movq	%rbx, 16(%r15)
	leaq	24(%r15), %rdi
	movq	cCJhc_Prim_Prim_$x3a(%rip), %rsi
	callq	s_alloc
	movq	%rax, %rsi
	movq	%r12, (%rsi)
	movq	%rbx, 8(%rsi)
	jmp	.LBB19_3
.LBB19_1:
	movl	$65538, %esi            # imm = 0x10002
.LBB19_3:
	movq	%r15, %rdi
	callq	ftheMain$d14
	movq	%rax, %rbx
	movq	%rbx, (%r14)
	movq	%r15, %rdi
	movq	%rbx, %rsi
	callq	gc_add_root
	movq	%rbx, %rax
	popq	%rbx
	popq	%r12
	popq	%r13
	popq	%r14
	popq	%r15
	retq
.Lfunc_end19:
	.size	E__ftheMain$d15, .Lfunc_end19-E__ftheMain$d15
	.cfi_endproc
                                        # -- End function
	.p2align	4, 0x90         # -- Begin function ftheMain$d14
	.type	ftheMain$d14,@function
ftheMain$d14:                           # @"ftheMain$d14"
	.cfi_startproc
# %bb.0:
	pushq	%r15
	.cfi_def_cfa_offset 16
	pushq	%r14
	.cfi_def_cfa_offset 24
	pushq	%r12
	.cfi_def_cfa_offset 32
	pushq	%rbx
	.cfi_def_cfa_offset 40
	subq	$24, %rsp
	.cfi_def_cfa_offset 64
	.cfi_offset %rbx, -40
	.cfi_offset %r12, -32
	.cfi_offset %r14, -24
	.cfi_offset %r15, -16
	movq	%rdi, %r15
	callq	eval
	cmpq	$65538, %rax            # imm = 0x10002
	je	.LBB20_1
# %bb.2:
	movq	(%rax), %rbx
	movq	8(%rax), %r12
	movq	%r12, (%rsp)
	movq	%rbx, 8(%rsp)
	movaps	(%rsp), %xmm0
	movups	%xmm0, (%r15)
	leaq	16(%r15), %rdi
	movq	cFtheMain$d13(%rip), %rsi
	callq	s_alloc
	movq	%rax, %r14
	movq	$E__ftheMain$d13+3, (%r14)
	movq	%rbx, 8(%r14)
	orq	$1, %r14
	movq	%r14, 16(%r15)
	leaq	24(%r15), %rdi
	movq	cFtheMain$d14(%rip), %rsi
	callq	s_alloc
	movq	%rax, %rbx
	movq	$E__ftheMain$d14+3, (%rbx)
	movq	%r12, 8(%rbx)
	orq	$1, %rbx
	movq	%rbx, 24(%r15)
	addq	$32, %r15
	movq	cCJhc_Prim_Prim_$x3a(%rip), %rsi
	movq	%r15, %rdi
	callq	s_alloc
	movq	%r14, (%rax)
	movq	%rbx, 8(%rax)
	jmp	.LBB20_3
.LBB20_1:
	movl	$65538, %eax            # imm = 0x10002
.LBB20_3:
	addq	$24, %rsp
	popq	%rbx
	popq	%r12
	popq	%r14
	popq	%r15
	retq
.Lfunc_end20:
	.size	ftheMain$d14, .Lfunc_end20-ftheMain$d14
	.cfi_endproc
                                        # -- End function
	.p2align	4, 0x90         # -- Begin function E__fW$__fR$__fJhc_List_383__f
	.type	E__fW$__fR$__fJhc_List_383__f,@function
E__fW$__fR$__fJhc_List_383__f:          # @"E__fW$__fR$__fJhc_List_383__f"
	.cfi_startproc
# %bb.0:
	pushq	%rbp
	.cfi_def_cfa_offset 16
	pushq	%r15
	.cfi_def_cfa_offset 24
	pushq	%r14
	.cfi_def_cfa_offset 32
	pushq	%r13
	.cfi_def_cfa_offset 40
	pushq	%r12
	.cfi_def_cfa_offset 48
	pushq	%rbx
	.cfi_def_cfa_offset 56
	pushq	%rax
	.cfi_def_cfa_offset 64
	.cfi_offset %rbx, -56
	.cfi_offset %r12, -48
	.cfi_offset %r13, -40
	.cfi_offset %r14, -32
	.cfi_offset %r15, -24
	.cfi_offset %rbp, -16
	movq	%rsi, %r14
	movq	%rdi, %rbx
	movq	%r14, %rax
	orq	$1, %rax
	movq	%rax, (%rbx)
	movl	16(%r14), %ebp
	testl	%ebp, %ebp
	jle	.LBB21_3
# %bb.1:
	leaq	8(%rbx), %rdi
	movq	8(%r14), %rsi
	callq	eval
	cmpq	$65538, %rax            # imm = 0x10002
	je	.LBB21_4
# %bb.2:
	movq	(%rax), %r12
	movq	8(%rax), %r13
	movq	%r12, 8(%rbx)
	movq	%r13, 16(%rbx)
	addl	$-1, %ebp
	leaq	24(%rbx), %rdi
	movq	cFW$__fR$__fJhc_List_383__f(%rip), %rsi
	callq	s_alloc
	movq	%rax, %r15
	movq	$E__fW$__fR$__fJhc_List_383__f+3, (%r15)
	movl	%ebp, 16(%r15)
	movq	%r13, 8(%r15)
	orq	$1, %r15
	movq	%r15, 24(%rbx)
	addq	$32, %rbx
	movq	cCJhc_Prim_Prim_$x3a(%rip), %rsi
	movq	%rbx, %rdi
	callq	s_alloc
	movq	%r12, (%rax)
	movq	%r15, 8(%rax)
	jmp	.LBB21_5
.LBB21_3:
	movl	$1, %edi
	callq	assert
.LBB21_4:
	movl	$65538, %eax            # imm = 0x10002
.LBB21_5:
	movq	%rax, (%r14)
	addq	$8, %rsp
	popq	%rbx
	popq	%r12
	popq	%r13
	popq	%r14
	popq	%r15
	popq	%rbp
	retq
.Lfunc_end21:
	.size	E__fW$__fR$__fJhc_List_383__f, .Lfunc_end21-E__fW$__fR$__fJhc_List_383__f
	.cfi_endproc
                                        # -- End function
	.p2align	4, 0x90         # -- Begin function E__ftheMain$d13
	.type	E__ftheMain$d13,@function
E__ftheMain$d13:                        # @"E__ftheMain$d13"
	.cfi_startproc
# %bb.0:
	pushq	%r15
	.cfi_def_cfa_offset 16
	pushq	%r14
	.cfi_def_cfa_offset 24
	pushq	%r13
	.cfi_def_cfa_offset 32
	pushq	%r12
	.cfi_def_cfa_offset 40
	pushq	%rbx
	.cfi_def_cfa_offset 48
	.cfi_offset %rbx, -48
	.cfi_offset %r12, -40
	.cfi_offset %r13, -32
	.cfi_offset %r14, -24
	.cfi_offset %r15, -16
	movq	%rsi, %r14
	movq	%rdi, %r12
	movq	%r14, %rax
	orq	$1, %rax
	movq	%rax, (%r12)
	movq	8(%r14), %r13
	movq	%r13, 8(%r12)
	leaq	16(%r12), %r15
	movq	cFW$__fInstance$__iData_Binary_put_Jhc_Type_Basic_Char$d2(%rip), %rsi
	movq	%r15, %rdi
	callq	s_alloc
	movq	%rax, %rbx
	movq	$E__fW$__fInstance$__iData_Binary_put_Jhc_Type_Basic_Char$d2+3, (%rbx)
	movq	%r13, 8(%rbx)
	orq	$1, %rbx
	movq	$5898242, 16(%r12)      # imm = 0x5A0002
	movq	%rbx, 24(%r12)
	leaq	32(%r12), %rdi
	movq	cP2__W$__fData_Binary_storableB$d2(%rip), %rsi
	callq	s_alloc
	movq	%rax, %r13
	movq	$4128770, (%r13)        # imm = 0x3F0002
	movq	$5898242, 8(%r13)       # imm = 0x5A0002
	movq	%rbx, 16(%r13)
	movq	%r13, 32(%r12)
	leaq	40(%r12), %rdi
	movq	cP2__W$__fData_Binary_storableB$d3(%rip), %rsi
	callq	s_alloc
	movq	%rax, %rbx
	movq	$4194306, (%rbx)        # imm = 0x400002
	movq	%r13, 8(%rbx)
	movq	%rbx, 8(%r12)
	movq	cCData_Binary_Builder(%rip), %rsi
	movq	%r15, %rdi
	callq	s_alloc
	movq	%rbx, (%rax)
	movq	$1, 8(%rax)
	movq	%rax, (%r14)
	popq	%rbx
	popq	%r12
	popq	%r13
	popq	%r14
	popq	%r15
	retq
.Lfunc_end22:
	.size	E__ftheMain$d13, .Lfunc_end22-E__ftheMain$d13
	.cfi_endproc
                                        # -- End function
	.p2align	4, 0x90         # -- Begin function E__ftheMain$d14
	.type	E__ftheMain$d14,@function
E__ftheMain$d14:                        # @"E__ftheMain$d14"
	.cfi_startproc
# %bb.0:
	pushq	%rbx
	.cfi_def_cfa_offset 16
	.cfi_offset %rbx, -16
	movq	%rsi, %rbx
	movq	%rbx, %rax
	orq	$1, %rax
	movq	%rax, (%rdi)
	addq	$8, %rdi
	movq	8(%rbx), %rsi
	callq	ftheMain$d14
	movq	%rax, (%rbx)
	popq	%rbx
	retq
.Lfunc_end23:
	.size	E__ftheMain$d14, .Lfunc_end23-E__ftheMain$d14
	.cfi_endproc
                                        # -- End function
	.p2align	4, 0x90         # -- Begin function E__ftheMain$d19
	.type	E__ftheMain$d19,@function
E__ftheMain$d19:                        # @"E__ftheMain$d19"
	.cfi_startproc
# %bb.0:
	pushq	%r15
	.cfi_def_cfa_offset 16
	pushq	%r14
	.cfi_def_cfa_offset 24
	pushq	%rbx
	.cfi_def_cfa_offset 32
	.cfi_offset %rbx, -32
	.cfi_offset %r14, -24
	.cfi_offset %r15, -16
	movq	%rsi, %r14
	movq	%rdi, %r15
	movl	$_c11, %esi
	callq	ftheMain$d18
	movq	%rax, %rbx
	movq	%rbx, (%r14)
	movq	%r15, %rdi
	movq	%rbx, %rsi
	callq	gc_add_root
	movq	%rbx, %rax
	popq	%rbx
	popq	%r14
	popq	%r15
	retq
.Lfunc_end24:
	.size	E__ftheMain$d19, .Lfunc_end24-E__ftheMain$d19
	.cfi_endproc
                                        # -- End function
	.p2align	4, 0x90         # -- Begin function ftheMain$d18
	.type	ftheMain$d18,@function
ftheMain$d18:                           # @"ftheMain$d18"
	.cfi_startproc
# %bb.0:
	pushq	%r15
	.cfi_def_cfa_offset 16
	pushq	%r14
	.cfi_def_cfa_offset 24
	pushq	%r12
	.cfi_def_cfa_offset 32
	pushq	%rbx
	.cfi_def_cfa_offset 40
	subq	$24, %rsp
	.cfi_def_cfa_offset 64
	.cfi_offset %rbx, -40
	.cfi_offset %r12, -32
	.cfi_offset %r14, -24
	.cfi_offset %r15, -16
	movq	%rdi, %r15
	callq	eval
	cmpq	$65538, %rax            # imm = 0x10002
	je	.LBB25_1
# %bb.2:
	movq	(%rax), %rbx
	movq	8(%rax), %r12
	movq	%rbx, (%rsp)
	movq	%r12, 8(%rsp)
	movaps	(%rsp), %xmm0
	movups	%xmm0, (%r15)
	leaq	16(%r15), %rdi
	movq	cFtheMain$d17(%rip), %rsi
	callq	s_alloc
	movq	%rax, %r14
	movq	$E__ftheMain$d17+3, (%r14)
	movq	%rbx, 8(%r14)
	orq	$1, %r14
	movq	%r14, 16(%r15)
	leaq	24(%r15), %rdi
	movq	cFtheMain$d18(%rip), %rsi
	callq	s_alloc
	movq	%rax, %rbx
	movq	$E__ftheMain$d18+3, (%rbx)
	movq	%r12, 8(%rbx)
	orq	$1, %rbx
	movq	%rbx, 24(%r15)
	addq	$32, %r15
	movq	cCJhc_Prim_Prim_$x3a(%rip), %rsi
	movq	%r15, %rdi
	callq	s_alloc
	movq	%r14, (%rax)
	movq	%rbx, 8(%rax)
	jmp	.LBB25_3
.LBB25_1:
	movl	$65538, %eax            # imm = 0x10002
.LBB25_3:
	addq	$24, %rsp
	popq	%rbx
	popq	%r12
	popq	%r14
	popq	%r15
	retq
.Lfunc_end25:
	.size	ftheMain$d18, .Lfunc_end25-ftheMain$d18
	.cfi_endproc
                                        # -- End function
	.p2align	4, 0x90         # -- Begin function E__ftheMain$d17
	.type	E__ftheMain$d17,@function
E__ftheMain$d17:                        # @"E__ftheMain$d17"
	.cfi_startproc
# %bb.0:
	pushq	%r15
	.cfi_def_cfa_offset 16
	pushq	%r14
	.cfi_def_cfa_offset 24
	pushq	%r13
	.cfi_def_cfa_offset 32
	pushq	%r12
	.cfi_def_cfa_offset 40
	pushq	%rbx
	.cfi_def_cfa_offset 48
	.cfi_offset %rbx, -48
	.cfi_offset %r12, -40
	.cfi_offset %r13, -32
	.cfi_offset %r14, -24
	.cfi_offset %r15, -16
	movq	%rsi, %r14
	movq	%rdi, %r12
	movq	%r14, %rax
	orq	$1, %rax
	movq	%rax, (%r12)
	movq	8(%r14), %r13
	movq	%r13, 8(%r12)
	leaq	16(%r12), %r15
	movq	cFW$__fInstance$__iData_Binary_put_Jhc_Type_Basic_Char$d2(%rip), %rsi
	movq	%r15, %rdi
	callq	s_alloc
	movq	%rax, %rbx
	movq	$E__fW$__fInstance$__iData_Binary_put_Jhc_Type_Basic_Char$d2+3, (%rbx)
	movq	%r13, 8(%rbx)
	orq	$1, %rbx
	movq	$5898242, 16(%r12)      # imm = 0x5A0002
	movq	%rbx, 24(%r12)
	leaq	32(%r12), %rdi
	movq	cP2__W$__fData_Binary_storableB$d2(%rip), %rsi
	callq	s_alloc
	movq	%rax, %r13
	movq	$4128770, (%r13)        # imm = 0x3F0002
	movq	$5898242, 8(%r13)       # imm = 0x5A0002
	movq	%rbx, 16(%r13)
	movq	%r13, 32(%r12)
	leaq	40(%r12), %rdi
	movq	cP2__W$__fData_Binary_storableB$d3(%rip), %rsi
	callq	s_alloc
	movq	%rax, %rbx
	movq	$4194306, (%rbx)        # imm = 0x400002
	movq	%r13, 8(%rbx)
	movq	%rbx, 8(%r12)
	movq	cCData_Binary_Builder(%rip), %rsi
	movq	%r15, %rdi
	callq	s_alloc
	movq	%rbx, (%rax)
	movq	$1, 8(%rax)
	movq	%rax, (%r14)
	popq	%rbx
	popq	%r12
	popq	%r13
	popq	%r14
	popq	%r15
	retq
.Lfunc_end26:
	.size	E__ftheMain$d17, .Lfunc_end26-E__ftheMain$d17
	.cfi_endproc
                                        # -- End function
	.p2align	4, 0x90         # -- Begin function E__ftheMain$d18
	.type	E__ftheMain$d18,@function
E__ftheMain$d18:                        # @"E__ftheMain$d18"
	.cfi_startproc
# %bb.0:
	pushq	%rbx
	.cfi_def_cfa_offset 16
	.cfi_offset %rbx, -16
	movq	%rsi, %rbx
	movq	%rbx, %rax
	orq	$1, %rax
	movq	%rax, (%rdi)
	addq	$8, %rdi
	movq	8(%rbx), %rsi
	callq	ftheMain$d18
	movq	%rax, (%rbx)
	popq	%rbx
	retq
.Lfunc_end27:
	.size	E__ftheMain$d18, .Lfunc_end27-E__ftheMain$d18
	.cfi_endproc
                                        # -- End function
	.p2align	4, 0x90         # -- Begin function fW$__fHos_User_SysCall_hosAddMappingToCurTask
	.type	fW$__fHos_User_SysCall_hosAddMappingToCurTask,@function
fW$__fHos_User_SysCall_hosAddMappingToCurTask: # @"fW$__fHos_User_SysCall_hosAddMappingToCurTask"
	.cfi_startproc
# %bb.0:
	pushq	%rbp
	.cfi_def_cfa_offset 16
	pushq	%r15
	.cfi_def_cfa_offset 24
	pushq	%r14
	.cfi_def_cfa_offset 32
	pushq	%r13
	.cfi_def_cfa_offset 40
	pushq	%r12
	.cfi_def_cfa_offset 48
	pushq	%rbx
	.cfi_def_cfa_offset 56
	subq	$40, %rsp
	.cfi_def_cfa_offset 96
	.cfi_offset %rbx, -56
	.cfi_offset %r12, -48
	.cfi_offset %r13, -40
	.cfi_offset %r14, -32
	.cfi_offset %r15, -24
	.cfi_offset %rbp, -16
	movq	%rcx, %rbp
	movq	%rdi, %rbx
	movq	%rbp, (%rbx)
	movq	%rdx, %r14
	movq	%rsi, %r15
	leaq	8(%rbx), %r12
	movq	%r12, saved_gc(%rip)
	movl	$11, %edi
	callq	malloc
	movq	%rax, %r13
	movq	cCJhc_Type_Ptr_Ptr(%rip), %rsi
	movq	%r12, %rdi
	callq	s_alloc
	movq	%r13, (%rax)
	testq	%r13, %r13
	je	.LBB28_69
# %bb.1:
	movq	%rbp, %rax
	testb	$2, %bpl
	jne	.LBB28_3
# %bb.2:
	movq	(%rbp), %rax
.LBB28_3:
	shrq	$16, %rax
	cmpq	$5, %rax
	ja	.LBB28_70
# %bb.4:
	jmpq	*.LJTI28_0(,%rax,8)
.LBB28_5:
	movq	8(%rbp), %rsi
	movb	$1, (%r13)
	movq	%r12, %rdi
	callq	eval
	movq	%rax, %rcx
	testb	$2, %al
	jne	.LBB28_7
# %bb.6:
	movq	(%rax), %rcx
.LBB28_7:
	cmpq	$65535, %rcx            # imm = 0xFFFF
	ja	.LBB28_33
# %bb.8:
	movq	8(%rax), %rsi
	movq	%r12, %rdi
	callq	eval
	shrl	$2, %eax
	andl	$65535, %eax            # imm = 0xFFFF
	je	.LBB28_58
# %bb.9:
	xorl	%edi, %edi
	cmpl	$1, %eax
	sete	%dil
	callq	assert
	movb	$1, 1(%r13)
	jmp	.LBB28_68
.LBB28_10:
	movq	8(%rbp), %rsi
	movq	16(%rbp), %rbp
	movb	$127, (%r13)
	movq	%rbp, 8(%rbx)
	addq	$16, %rbx
	movq	%rbx, %rdi
	callq	eval
	movq	%rax, %rcx
	testb	$2, %al
	jne	.LBB28_12
# %bb.11:
	movq	(%rax), %rcx
.LBB28_12:
	cmpq	$65535, %rcx            # imm = 0xFFFF
	ja	.LBB28_31
.LBB28_13:
	movq	8(%rax), %rsi
	movq	%rbx, %rdi
	callq	eval
	shrl	$2, %eax
	andl	$65535, %eax            # imm = 0xFFFF
	je	.LBB28_21
.LBB28_30:
	xorl	%edi, %edi
	cmpl	$1, %eax
	sete	%dil
	callq	assert
	movb	$1, %al
	jmp	.LBB28_57
.LBB28_14:
	movq	%r15, 8(%rsp)           # 8-byte Spill
	movq	%r14, %r15
	movq	8(%rbp), %rsi
	movq	16(%rbp), %r14
	movq	24(%rbp), %rbp
	movb	$4, (%r13)
	movq	%rbp, 16(%rsp)
	movq	%r14, 24(%rsp)
	movaps	16(%rsp), %xmm0
	movups	%xmm0, (%r12)
	addq	$24, %rbx
	movq	%rbx, %rdi
	callq	eval
	shrl	$2, %eax
	andl	$65535, %eax            # imm = 0xFFFF
	je	.LBB28_42
# %bb.15:
	xorl	%edi, %edi
	cmpl	$1, %eax
	sete	%dil
	callq	assert
	movb	$1, %al
	jmp	.LBB28_43
.LBB28_16:
	movq	%r15, 8(%rsp)           # 8-byte Spill
	movq	%r14, %r15
	movq	8(%rbp), %r14
	movq	16(%rbp), %rsi
	movq	%r14, 8(%rbx)
	leaq	16(%rbx), %rbp
	movq	%rbp, %rdi
	callq	eval
	cmpq	$2, %rax
	je	.LBB28_50
# %bb.17:
	movq	(%rax), %rbp
	movb	$3, (%r13)
	movq	%rbp, 16(%rbx)
	addq	$24, %rbx
	movq	%rbx, %rdi
	movq	%r14, %rsi
	callq	eval
	movq	%rax, %rcx
	testb	$2, %al
	jne	.LBB28_19
# %bb.18:
	movq	(%rax), %rcx
.LBB28_19:
	cmpq	$65535, %rcx            # imm = 0xFFFF
	movq	%r15, %r14
	ja	.LBB28_55
# %bb.20:
	movq	8(%rax), %rsi
	movq	%rbx, %rdi
	callq	eval
	shrl	$2, %eax
	andl	$65535, %eax            # imm = 0xFFFF
	movq	8(%rsp), %r15           # 8-byte Reload
	jne	.LBB28_30
.LBB28_21:
	xorl	%eax, %eax
	jmp	.LBB28_57
.LBB28_22:
	movq	8(%rbp), %rsi
	movq	%r12, %rdi
	callq	eval
	movq	%rax, %rcx
	testb	$2, %al
	jne	.LBB28_24
# %bb.23:
	movq	(%rax), %rcx
.LBB28_24:
	cmpq	$65535, %rcx            # imm = 0xFFFF
	ja	.LBB28_35
# %bb.25:
	movq	8(%rax), %rsi
	movb	$5, (%r13)
	jmp	.LBB28_36
.LBB28_26:
	movq	8(%rbp), %rsi
	movq	16(%rbp), %rbp
	movb	$-1, (%r13)
	movq	%rbp, 8(%rbx)
	addq	$16, %rbx
	movq	%rbx, %rdi
	callq	eval
	movq	%rax, %rcx
	testb	$2, %al
	jne	.LBB28_28
# %bb.27:
	movq	(%rax), %rcx
.LBB28_28:
	cmpq	$65535, %rcx            # imm = 0xFFFF
	jbe	.LBB28_13
.LBB28_31:
	movq	8(%rax), %rsi
	movq	%rbx, %rdi
	callq	eval
	shrl	$2, %eax
	andl	$65535, %eax            # imm = 0xFFFF
	je	.LBB28_32
.LBB28_56:
	xorl	%edi, %edi
	cmpl	$1, %eax
	sete	%dil
	callq	assert
	movb	$3, %al
	jmp	.LBB28_57
.LBB28_33:
	movq	8(%rax), %rsi
	movq	%r12, %rdi
	callq	eval
	shrl	$2, %eax
	andl	$65535, %eax            # imm = 0xFFFF
	je	.LBB28_59
# %bb.34:
	xorl	%edi, %edi
	cmpl	$1, %eax
	sete	%dil
	callq	assert
	movb	$3, 1(%r13)
	jmp	.LBB28_68
.LBB28_35:
	movq	8(%rax), %rsi
	movb	$6, (%r13)
.LBB28_36:
	movq	%r12, %rdi
	callq	eval
	movq	%rax, %rcx
	testb	$2, %al
	jne	.LBB28_38
# %bb.37:
	movq	(%rax), %rcx
.LBB28_38:
	cmpq	$65535, %rcx            # imm = 0xFFFF
	ja	.LBB28_40
# %bb.39:
	movq	8(%rax), %rsi
	movq	%r12, %rdi
	callq	eval
	movl	(%rax), %eax
	movl	%eax, 1(%r13)
	jmp	.LBB28_68
.LBB28_40:
	movq	8(%rax), %rsi
	movq	%r12, %rdi
	callq	eval
	movl	$-2147483648, %ecx      # imm = 0x80000000
	orl	(%rax), %ecx
	movl	%ecx, 1(%r13)
	jmp	.LBB28_68
.LBB28_42:
	xorl	%eax, %eax
.LBB28_43:
	movb	%al, 1(%r13)
	movq	%rbx, %rdi
	movq	%r14, %rsi
	callq	eval
	movq	%rax, %rcx
	testb	$2, %al
	jne	.LBB28_45
# %bb.44:
	movq	(%rax), %rcx
.LBB28_45:
	cmpq	$65535, %rcx            # imm = 0xFFFF
	movq	%r15, %r14
	ja	.LBB28_48
# %bb.46:
	movq	8(%rax), %rsi
	movq	%rbx, %rdi
	callq	eval
	shrl	$2, %eax
	andl	$65535, %eax            # imm = 0xFFFF
	movq	8(%rsp), %r15           # 8-byte Reload
	je	.LBB28_60
# %bb.47:
	xorl	%edi, %edi
	cmpl	$1, %eax
	sete	%dil
	callq	assert
	movb	$1, %al
	jmp	.LBB28_62
.LBB28_48:
	movq	8(%rax), %rsi
	movq	%rbx, %rdi
	callq	eval
	shrl	$2, %eax
	andl	$65535, %eax            # imm = 0xFFFF
	movq	8(%rsp), %r15           # 8-byte Reload
	je	.LBB28_61
# %bb.49:
	xorl	%edi, %edi
	cmpl	$1, %eax
	sete	%dil
	callq	assert
	movb	$3, %al
	jmp	.LBB28_62
.LBB28_50:
	movb	$2, (%r13)
	movq	%rbp, %rdi
	movq	%r14, %rsi
	callq	eval
	movq	%rax, %rcx
	testb	$2, %al
	jne	.LBB28_52
# %bb.51:
	movq	(%rax), %rcx
.LBB28_52:
	cmpq	$65535, %rcx            # imm = 0xFFFF
	movq	%r15, %r14
	ja	.LBB28_63
# %bb.53:
	movq	8(%rax), %rsi
	movq	%rbp, %rdi
	callq	eval
	shrl	$2, %eax
	andl	$65535, %eax            # imm = 0xFFFF
	movq	8(%rsp), %r15           # 8-byte Reload
	je	.LBB28_65
# %bb.54:
	xorl	%edi, %edi
	cmpl	$1, %eax
	sete	%dil
	callq	assert
	movb	$1, %al
	jmp	.LBB28_67
.LBB28_55:
	movq	8(%rax), %rsi
	movq	%rbx, %rdi
	callq	eval
	shrl	$2, %eax
	andl	$65535, %eax            # imm = 0xFFFF
	movq	8(%rsp), %r15           # 8-byte Reload
	jne	.LBB28_56
.LBB28_32:
	movb	$2, %al
.LBB28_57:
	movb	%al, 1(%r13)
	movq	%rbx, %rdi
	movq	%rbp, %rsi
	callq	eval
	movq	(%rax), %rax
	movq	%rax, 2(%r13)
	jmp	.LBB28_68
.LBB28_58:
	movb	$0, 1(%r13)
	jmp	.LBB28_68
.LBB28_59:
	movb	$2, 1(%r13)
	jmp	.LBB28_68
.LBB28_60:
	xorl	%eax, %eax
	jmp	.LBB28_62
.LBB28_61:
	movb	$2, %al
.LBB28_62:
	movb	%al, 2(%r13)
	movq	%rbx, %rdi
	movq	%rbp, %rsi
	callq	eval
	movq	(%rax), %rax
	movq	%rax, 3(%r13)
	jmp	.LBB28_68
.LBB28_63:
	movq	8(%rax), %rsi
	movq	%rbp, %rdi
	callq	eval
	shrl	$2, %eax
	andl	$65535, %eax            # imm = 0xFFFF
	movq	8(%rsp), %r15           # 8-byte Reload
	je	.LBB28_66
# %bb.64:
	xorl	%edi, %edi
	cmpl	$1, %eax
	sete	%dil
	callq	assert
	movb	$3, %al
	jmp	.LBB28_67
.LBB28_65:
	xorl	%eax, %eax
	jmp	.LBB28_67
.LBB28_66:
	movb	$2, %al
.LBB28_67:
	movb	%al, 1(%r13)
	movq	$0, 2(%r13)
.LBB28_68:
	movq	%r12, saved_gc(%rip)
	movl	$2, %edi
	movl	$4294967295, %esi       # imm = 0xFFFFFFFF
	xorl	%r9d, %r9d
	movq	%r15, %rdx
	movq	%r14, %rcx
	movq	%r13, %r8
	callq	syscall
	movq	%rax, %rbx
	movq	%r12, saved_gc(%rip)
	movq	%r13, %rdi
	callq	free
	movq	cCJhc_Type_Word_Word64(%rip), %rsi
	movq	%r12, %rdi
	callq	s_alloc
	movq	%rbx, (%rax)
	addq	$40, %rsp
	popq	%rbx
	popq	%r12
	popq	%r13
	popq	%r14
	popq	%r15
	popq	%rbp
	retq
.LBB28_69:
	movl	$_c461, %esi
	movl	$_c475, %edx
	movq	%r12, %rdi
	callq	fJhc_Basics_$pp
	movq	%r12, %rdi
	movq	%rax, %rsi
	callq	fJhc_IO_putErrLn
	movl	$255, %edi
	callq	jhc_exit
.LBB28_70:
	movl	$14803, %edi            # imm = 0x39D3
	callq	jhc_case_fell_off
.Lfunc_end28:
	.size	fW$__fHos_User_SysCall_hosAddMappingToCurTask, .Lfunc_end28-fW$__fHos_User_SysCall_hosAddMappingToCurTask
	.cfi_endproc
	.section	.rodata,"a",@progbits
	.p2align	3
.LJTI28_0:
	.quad	.LBB28_5
	.quad	.LBB28_16
	.quad	.LBB28_14
	.quad	.LBB28_22
	.quad	.LBB28_10
	.quad	.LBB28_26
                                        # -- End function
	.text
	.p2align	4, 0x90         # -- Begin function fW$__fHos_User_SysCall_hosWaitOnChannels
	.type	fW$__fHos_User_SysCall_hosWaitOnChannels,@function
fW$__fHos_User_SysCall_hosWaitOnChannels: # @"fW$__fHos_User_SysCall_hosWaitOnChannels"
	.cfi_startproc
# %bb.0:
	pushq	%rbp
	.cfi_def_cfa_offset 16
	pushq	%r15
	.cfi_def_cfa_offset 24
	pushq	%r14
	.cfi_def_cfa_offset 32
	pushq	%r13
	.cfi_def_cfa_offset 40
	pushq	%r12
	.cfi_def_cfa_offset 48
	pushq	%rbx
	.cfi_def_cfa_offset 56
	pushq	%rax
	.cfi_def_cfa_offset 64
	.cfi_offset %rbx, -56
	.cfi_offset %r12, -48
	.cfi_offset %r13, -40
	.cfi_offset %r14, -32
	.cfi_offset %r15, -24
	.cfi_offset %rbp, -16
	movq	%rsi, %r15
	movq	%rdi, %r12
	movq	%r12, saved_gc(%rip)
	movl	$4, %edi
	callq	malloc
	movq	%rax, %r14
	movq	cCJhc_Type_Ptr_Ptr(%rip), %rsi
	movq	%r12, %rdi
	callq	s_alloc
	movq	%r14, (%rax)
	testq	%r14, %r14
	je	.LBB29_1
# %bb.2:
	movq	%r12, saved_gc(%rip)
	movl	$1, %edi
	callq	assert
	movq	%r12, saved_gc(%rip)
	movl	$259, %edi              # imm = 0x103
	movl	$1, %esi
	xorl	%r8d, %r8d
	xorl	%r9d, %r9d
	movq	%r15, %rdx
	movq	%r14, %rcx
	callq	syscall
	movq	%rax, %rbx
	btq	$32, %rbx
	jb	.LBB29_5
# %bb.3:
	movl	(%r14), %ebp
	movq	cCJhc_Type_Word_Word32(%rip), %rsi
	movq	%r12, %rdi
	callq	s_alloc
	movq	%rax, %r15
	movl	%ebp, (%r15)
	movq	%r15, (%r12)
	leaq	8(%r12), %rdi
	movq	cCJhc_Type_Word_Word32(%rip), %rsi
	callq	s_alloc
	movq	%rax, %r13
	movl	%ebx, (%r13)
	movq	%r13, 8(%r12)
	leaq	16(%r12), %rdi
	movq	cCJhc_Prim_Prim_$LcR(%rip), %rsi
	callq	s_alloc
	movq	%rax, %rbx
	movq	%r13, (%rbx)
	movq	%r15, 8(%rbx)
	movq	%rbx, 16(%r12)
	leaq	24(%r12), %rdi
	movq	cCJhc_Type_Basic_Right(%rip), %rsi
	callq	s_alloc
	movq	$65538, (%rax)          # imm = 0x10002
	movq	%rbx, 8(%rax)
	jmp	.LBB29_4
.LBB29_5:
	andl	$-2, %ebx
	cmpq	$66304, %rbx            # imm = 0x10300
	jne	.LBB29_6
.LBB29_4:
	movq	%r12, saved_gc(%rip)
	movq	%r14, %rdi
	addq	$8, %rsp
	popq	%rbx
	popq	%r12
	popq	%r13
	popq	%r14
	popq	%r15
	popq	%rbp
	jmp	free                    # TAILCALL
.LBB29_1:
	movl	$_c461, %esi
	movl	$_c475, %edx
	movq	%r12, %rdi
	callq	fJhc_Basics_$pp
	movq	%r12, %rdi
	movq	%rax, %rsi
	jmp	.LBB29_7
.LBB29_6:
	movl	$_c517, %esi
	movq	%r12, %rdi
.LBB29_7:
	callq	fJhc_IO_putErrLn
	movl	$255, %edi
	callq	jhc_exit
.Lfunc_end29:
	.size	fW$__fHos_User_SysCall_hosWaitOnChannels, .Lfunc_end29-fW$__fHos_User_SysCall_hosWaitOnChannels
	.cfi_endproc
                                        # -- End function
	.p2align	4, 0x90         # -- Begin function fData_Binary_getFrom
	.type	fData_Binary_getFrom,@function
fData_Binary_getFrom:                   # @fData_Binary_getFrom
	.cfi_startproc
# %bb.0:
	pushq	%r14
	.cfi_def_cfa_offset 16
	pushq	%rbx
	.cfi_def_cfa_offset 24
	pushq	%rax
	.cfi_def_cfa_offset 32
	.cfi_offset %rbx, -24
	.cfi_offset %r14, -16
	movq	%rdi, %rbx
	movl	$_c694, %ecx
	callq	bRfData_Binary_get
	movq	%rbx, %rdi
	movq	%rax, %rsi
	callq	eval
	movq	%rax, %rcx
	testb	$2, %al
	jne	.LBB30_2
# %bb.1:
	movq	(%rax), %rcx
.LBB30_2:
	cmpq	$65535, %rcx            # imm = 0xFFFF
	ja	.LBB30_4
# %bb.3:
	movq	8(%rax), %r14
	movq	%r14, (%rbx)
	addq	$8, %rbx
	movq	cCJhc_Type_Basic_Left(%rip), %rsi
	movq	%rbx, %rdi
	callq	s_alloc
	movq	$2, (%rax)
	jmp	.LBB30_5
.LBB30_4:
	movq	8(%rax), %rsi
	movq	%rbx, %rdi
	callq	eval
	movq	(%rax), %r14
	movq	%r14, (%rbx)
	addq	$8, %rbx
	movq	cCJhc_Type_Basic_Right(%rip), %rsi
	movq	%rbx, %rdi
	callq	s_alloc
	movq	$65538, (%rax)          # imm = 0x10002
.LBB30_5:
	movq	%rax, %rcx
	addq	$8, %rcx
	movq	%r14, (%rcx)
	addq	$8, %rsp
	popq	%rbx
	popq	%r14
	retq
.Lfunc_end30:
	.size	fData_Binary_getFrom, .Lfunc_end30-fData_Binary_getFrom
	.cfi_endproc
                                        # -- End function
	.p2align	4, 0x90         # -- Begin function fHos_User_SysCall_hosDebugLog
	.type	fHos_User_SysCall_hosDebugLog,@function
fHos_User_SysCall_hosDebugLog:          # @fHos_User_SysCall_hosDebugLog
	.cfi_startproc
# %bb.0:
	pushq	%rbp
	.cfi_def_cfa_offset 16
	pushq	%r15
	.cfi_def_cfa_offset 24
	pushq	%r14
	.cfi_def_cfa_offset 32
	pushq	%r13
	.cfi_def_cfa_offset 40
	pushq	%r12
	.cfi_def_cfa_offset 48
	pushq	%rbx
	.cfi_def_cfa_offset 56
	subq	$56, %rsp
	.cfi_def_cfa_offset 112
	.cfi_offset %rbx, -56
	.cfi_offset %r12, -48
	.cfi_offset %r13, -40
	.cfi_offset %r14, -32
	.cfi_offset %r15, -24
	.cfi_offset %rbp, -16
	movq	%rsi, %r14
	movq	%rdi, %r12
	movq	%r14, (%r12)
	leaq	8(%r12), %rbx
	movq	%rbx, %rdi
	callq	eval
	xorl	%ebp, %ebp
	cmpq	$65538, %rax            # imm = 0x10002
	je	.LBB31_3
	.p2align	4, 0x90
.LBB31_1:                               # =>This Inner Loop Header: Depth=1
	movq	8(%rax), %rsi
	addl	$1, %ebp
	movq	%rbx, %rdi
	callq	eval
	cmpq	$65538, %rax            # imm = 0x10002
	jne	.LBB31_1
.LBB31_3:
	movl	%ebp, 4(%rsp)           # 4-byte Spill
	movslq	%ebp, %rdi
	movq	%rbx, saved_gc(%rip)
	callq	malloc
	movq	%rax, %rbp
	movq	cCJhc_Type_Ptr_Ptr(%rip), %rsi
	movq	%rbx, %rdi
	callq	s_alloc
	movq	%rax, %r13
	movq	%rbp, (%r13)
	testq	%rbp, %rbp
	je	.LBB31_8
# %bb.4:
	movq	%r13, 8(%r12)
	leaq	16(%r12), %rbx
	movq	cFHos_User_SysCall_hosDebugLog$d2(%rip), %rsi
	movq	%rbx, %rdi
	callq	s_alloc
	movq	%rax, %r15
	movq	$E__fHos_User_SysCall_hosDebugLog$d2+3, (%r15)
	movq	%r13, 16(%rsp)          # 8-byte Spill
	movq	%r13, 8(%r15)
	orq	$1, %r15
	leaq	24(%r12), %rbp
	movq	%r12, 8(%rsp)           # 8-byte Spill
	movq	%r15, 16(%r12)
	movq	%rbp, %rdi
	movq	%r14, %rsi
	callq	eval
	cmpq	$65538, %rax            # imm = 0x10002
	je	.LBB31_7
# %bb.5:
	addq	$40, 8(%rsp)            # 8-byte Folded Spill
	movq	8(%rsp), %r14           # 8-byte Reload
	.p2align	4, 0x90
.LBB31_6:                               # =>This Inner Loop Header: Depth=1
	movq	(%rax), %r12
	movq	8(%rax), %rax
	movq	%rax, 24(%rsp)          # 8-byte Spill
	movq	%r12, 32(%rsp)
	movq	%rax, 40(%rsp)
	movaps	32(%rsp), %xmm0
	movups	%xmm0, (%rbp)
	movq	%r14, %rdi
	movq	%r15, %rsi
	callq	eval
	movq	(%rax), %r13
	movq	%r14, %rdi
	movq	%r12, %rsi
	callq	eval
	shrq	$2, %rax
	movb	%al, (%r13)
	addq	$1, %r13
	movq	cCJhc_Type_Ptr_Ptr(%rip), %rsi
	movq	%r14, %rdi
	callq	s_alloc
	movq	%rax, %r15
	movq	%r13, (%r15)
	movq	%r15, (%rbx)
	movq	%rbp, %rdi
	movq	24(%rsp), %rsi          # 8-byte Reload
	callq	eval
	cmpq	$65538, %rax            # imm = 0x10002
	jne	.LBB31_6
.LBB31_7:
	movq	16(%rsp), %rax          # 8-byte Reload
	movq	(%rax), %rbp
	movl	4(%rsp), %edx           # 4-byte Reload
	movq	%rbx, saved_gc(%rip)
	xorl	%edi, %edi
	xorl	%ecx, %ecx
	xorl	%r8d, %r8d
	xorl	%r9d, %r9d
	movq	%rbp, %rsi
	callq	syscall
	movq	%rbx, saved_gc(%rip)
	movq	%rbp, %rdi
	addq	$56, %rsp
	popq	%rbx
	popq	%r12
	popq	%r13
	popq	%r14
	popq	%r15
	popq	%rbp
	jmp	free                    # TAILCALL
.LBB31_8:
	movl	$_c461, %esi
	movl	$_c475, %edx
	movq	%rbx, %rdi
	callq	fJhc_Basics_$pp
	movq	%rbx, %rdi
	movq	%rax, %rsi
	callq	fJhc_IO_putErrLn
	movl	$255, %edi
	callq	jhc_exit
.Lfunc_end31:
	.size	fHos_User_SysCall_hosDebugLog, .Lfunc_end31-fHos_User_SysCall_hosDebugLog
	.cfi_endproc
                                        # -- End function
	.p2align	4, 0x90         # -- Begin function E__fInstance$__iJhc_Show_show_default
	.type	E__fInstance$__iJhc_Show_show_default,@function
E__fInstance$__iJhc_Show_show_default:  # @"E__fInstance$__iJhc_Show_show_default"
	.cfi_startproc
# %bb.0:
	pushq	%rbx
	.cfi_def_cfa_offset 16
	.cfi_offset %rbx, -16
	movq	%rsi, %rbx
	movq	%rbx, %rax
	orq	$1, %rax
	movq	%rax, (%rdi)
	addq	$8, %rdi
	movq	8(%rbx), %rsi
	movq	16(%rbx), %rcx
	movl	$_c428, %edx
	movl	$65538, %r8d            # imm = 0x10002
	callq	fJhc_Show_showsPrec
	movq	%rax, (%rbx)
	popq	%rbx
	retq
.Lfunc_end32:
	.size	E__fInstance$__iJhc_Show_show_default, .Lfunc_end32-E__fInstance$__iJhc_Show_show_default
	.cfi_endproc
                                        # -- End function
	.p2align	4, 0x90         # -- Begin function fJhc_Basics_$pp
	.type	fJhc_Basics_$pp,@function
fJhc_Basics_$pp:                        # @"fJhc_Basics_$pp"
	.cfi_startproc
# %bb.0:
	pushq	%r15
	.cfi_def_cfa_offset 16
	pushq	%r14
	.cfi_def_cfa_offset 24
	pushq	%r13
	.cfi_def_cfa_offset 32
	pushq	%r12
	.cfi_def_cfa_offset 40
	pushq	%rbx
	.cfi_def_cfa_offset 48
	.cfi_offset %rbx, -48
	.cfi_offset %r12, -40
	.cfi_offset %r13, -32
	.cfi_offset %r14, -24
	.cfi_offset %r15, -16
	movq	%rdx, %r14
	movq	%rdi, %rbx
	movq	%r14, (%rbx)
	leaq	8(%rbx), %r15
	movq	%r15, %rdi
	callq	eval
	cmpq	$65538, %rax            # imm = 0x10002
	je	.LBB33_2
# %bb.1:
	movq	(%rax), %r12
	movq	8(%rax), %r13
	movq	%r12, 8(%rbx)
	movq	%r13, 16(%rbx)
	leaq	24(%rbx), %rdi
	movq	cFR$__fJhc_Basics_$pp(%rip), %rsi
	callq	s_alloc
	movq	%rax, %r15
	movq	$E__fR$__fJhc_Basics_$pp+3, (%r15)
	movq	%r13, 8(%r15)
	movq	%r14, 16(%r15)
	orq	$1, %r15
	movq	%r15, 24(%rbx)
	addq	$32, %rbx
	movq	cCJhc_Prim_Prim_$x3a(%rip), %rsi
	movq	%rbx, %rdi
	callq	s_alloc
	movq	%r12, (%rax)
	movq	%r15, 8(%rax)
	popq	%rbx
	popq	%r12
	popq	%r13
	popq	%r14
	popq	%r15
	retq
.LBB33_2:
	movq	%r15, %rdi
	movq	%r14, %rsi
	popq	%rbx
	popq	%r12
	popq	%r13
	popq	%r14
	popq	%r15
	jmp	eval                    # TAILCALL
.Lfunc_end33:
	.size	fJhc_Basics_$pp, .Lfunc_end33-fJhc_Basics_$pp
	.cfi_endproc
                                        # -- End function
	.p2align	4, 0x90         # -- Begin function fPrelude_lookup
	.type	fPrelude_lookup,@function
fPrelude_lookup:                        # @fPrelude_lookup
	.cfi_startproc
# %bb.0:
	pushq	%rbp
	.cfi_def_cfa_offset 16
	pushq	%r15
	.cfi_def_cfa_offset 24
	pushq	%r14
	.cfi_def_cfa_offset 32
	pushq	%r13
	.cfi_def_cfa_offset 40
	pushq	%r12
	.cfi_def_cfa_offset 48
	pushq	%rbx
	.cfi_def_cfa_offset 56
	subq	$56, %rsp
	.cfi_def_cfa_offset 112
	.cfi_offset %rbx, -56
	.cfi_offset %r12, -48
	.cfi_offset %r13, -40
	.cfi_offset %r14, -32
	.cfi_offset %r15, -24
	.cfi_offset %rbp, -16
	movq	%rsi, %r14
	movq	%rdi, %r12
	movq	%r14, (%r12)
	leaq	8(%r12), %rdi
	movq	%rdx, %rsi
	callq	eval
	cmpq	$65538, %rax            # imm = 0x10002
	je	.LBB34_1
# %bb.2:
	movq	(%rax), %rsi
	movq	8(%rax), %rbx
	movq	%rbx, 8(%r12)
	leaq	16(%r12), %rdi
	callq	eval
	movq	(%rax), %rbp
	movq	8(%rax), %r15
	movq	%rbp, 32(%rsp)
	movq	%r15, 40(%rsp)
	movaps	32(%rsp), %xmm0
	movups	%xmm0, 16(%r12)
	leaq	32(%r12), %r13
	movl	$_c1, %esi
	movq	%r13, %rdi
	movq	%r14, %rdx
	movq	%rbp, %rcx
	callq	fW$__fJhc_Class_Ord_$ee
	testw	%ax, %ax
	jne	.LBB34_7
# %bb.3:
	movq	%rbx, (%rsp)
	movq	%r15, 8(%rsp)
	movq	%r13, %rax
	leaq	48(%r12), %r13
	movaps	(%rsp), %xmm0
	movq	%rax, 24(%rsp)          # 8-byte Spill
	movups	%xmm0, (%rax)
	movl	$_c1, %esi
	movq	%r13, %rdi
	movq	%r14, %rdx
	movq	%rbp, %rcx
	callq	fW$__fJhc_Class_Ord_$ee
	testw	%ax, %ax
	jne	.LBB34_7
# %bb.4:
	addq	$56, %r12
	movl	$2, %ebp
	.p2align	4, 0x90
.LBB34_5:                               # =>This Inner Loop Header: Depth=1
	movq	%r13, %rdi
	movq	%rbx, %rsi
	callq	eval
	cmpq	$65538, %rax            # imm = 0x10002
	je	.LBB34_8
# %bb.6:                                #   in Loop: Header=BB34_5 Depth=1
	movq	(%rax), %rsi
	movq	8(%rax), %rbx
	movq	%rbx, (%r13)
	movq	%r12, %rdi
	callq	eval
	movq	(%rax), %rcx
	movq	8(%rax), %r15
	movq	%rbx, (%rsp)
	movq	%r15, 8(%rsp)
	movaps	(%rsp), %xmm0
	movq	24(%rsp), %rax          # 8-byte Reload
	movups	%xmm0, (%rax)
	movl	$_c1, %esi
	movq	%r13, %rdi
	movq	%r14, %rdx
	callq	fW$__fJhc_Class_Ord_$ee
	testw	%ax, %ax
	je	.LBB34_5
.LBB34_7:
	movzwl	%ax, %eax
	xorl	%edi, %edi
	cmpl	$1, %eax
	sete	%dil
	callq	assert
	movq	cCJhc_Type_Basic_Just(%rip), %rsi
	movq	%r13, %rdi
	callq	s_alloc
	movq	%rax, %rbp
	movq	%r15, (%rbp)
	jmp	.LBB34_8
.LBB34_1:
	movl	$2, %ebp
.LBB34_8:
	movq	%rbp, %rax
	addq	$56, %rsp
	popq	%rbx
	popq	%r12
	popq	%r13
	popq	%r14
	popq	%r15
	popq	%rbp
	retq
.Lfunc_end34:
	.size	fPrelude_lookup, .Lfunc_end34-fPrelude_lookup
	.cfi_endproc
                                        # -- End function
	.p2align	4, 0x90         # -- Begin function E__fJhc_Basics_$pp
	.type	E__fJhc_Basics_$pp,@function
E__fJhc_Basics_$pp:                     # @"E__fJhc_Basics_$pp"
	.cfi_startproc
# %bb.0:
	pushq	%rbp
	.cfi_def_cfa_offset 16
	pushq	%r15
	.cfi_def_cfa_offset 24
	pushq	%r14
	.cfi_def_cfa_offset 32
	pushq	%r13
	.cfi_def_cfa_offset 40
	pushq	%r12
	.cfi_def_cfa_offset 48
	pushq	%rbx
	.cfi_def_cfa_offset 56
	pushq	%rax
	.cfi_def_cfa_offset 64
	.cfi_offset %rbx, -56
	.cfi_offset %r12, -48
	.cfi_offset %r13, -40
	.cfi_offset %r14, -32
	.cfi_offset %r15, -24
	.cfi_offset %rbp, -16
	movq	%rsi, %r14
	movq	%rdi, %rbx
	movq	%r14, %rax
	orq	$1, %rax
	movq	%rax, (%rbx)
	movq	16(%r14), %rsi
	movq	24(%r14), %r15
	movq	%r15, 8(%rbx)
	leaq	16(%rbx), %r12
	movq	%r12, %rdi
	callq	eval
	cmpq	$65538, %rax            # imm = 0x10002
	je	.LBB35_1
# %bb.2:
	movq	(%rax), %r13
	movq	8(%rax), %rbp
	movq	%r13, 16(%rbx)
	movq	%rbp, 24(%rbx)
	leaq	32(%rbx), %rdi
	movq	cFR$__fJhc_Basics_$pp(%rip), %rsi
	callq	s_alloc
	movq	%rax, %r12
	movq	$E__fR$__fJhc_Basics_$pp+3, (%r12)
	movq	%rbp, 8(%r12)
	movq	%r15, 16(%r12)
	orq	$1, %r12
	movq	%r12, 32(%rbx)
	addq	$40, %rbx
	movq	cCJhc_Prim_Prim_$x3a(%rip), %rsi
	movq	%rbx, %rdi
	callq	s_alloc
	movq	%r13, (%rax)
	movq	%r12, 8(%rax)
	jmp	.LBB35_3
.LBB35_1:
	movq	%r12, %rdi
	movq	%r15, %rsi
	callq	eval
.LBB35_3:
	movq	%rax, (%r14)
	addq	$8, %rsp
	popq	%rbx
	popq	%r12
	popq	%r13
	popq	%r14
	popq	%r15
	popq	%rbp
	retq
.Lfunc_end35:
	.size	E__fJhc_Basics_$pp, .Lfunc_end35-E__fJhc_Basics_$pp
	.cfi_endproc
                                        # -- End function
	.p2align	4, 0x90         # -- Begin function fJhc_IO_putErrLn
	.type	fJhc_IO_putErrLn,@function
fJhc_IO_putErrLn:                       # @fJhc_IO_putErrLn
	.cfi_startproc
# %bb.0:
	pushq	%r15
	.cfi_def_cfa_offset 16
	pushq	%r14
	.cfi_def_cfa_offset 24
	pushq	%rbx
	.cfi_def_cfa_offset 32
	.cfi_offset %rbx, -32
	.cfi_offset %r14, -24
	.cfi_offset %r15, -16
	movq	%rdi, %r14
	callq	eval
	cmpq	$65538, %rax            # imm = 0x10002
	je	.LBB36_3
# %bb.1:
	leaq	8(%r14), %r15
	.p2align	4, 0x90
.LBB36_2:                               # =>This Inner Loop Header: Depth=1
	movq	(%rax), %rsi
	movq	8(%rax), %rbx
	movq	%rbx, (%r14)
	movq	%r15, %rdi
	callq	eval
	shrq	$2, %rax
	movq	%r15, saved_gc(%rip)
	movl	%eax, %edi
	callq	jhc_utf8_putchar
	movq	%r14, %rdi
	movq	%rbx, %rsi
	callq	eval
	cmpq	$65538, %rax            # imm = 0x10002
	jne	.LBB36_2
.LBB36_3:
	movq	%r14, saved_gc(%rip)
	movl	$10, %edi
	popq	%rbx
	popq	%r14
	popq	%r15
	jmp	jhc_utf8_putchar        # TAILCALL
.Lfunc_end36:
	.size	fJhc_IO_putErrLn, .Lfunc_end36-fJhc_IO_putErrLn
	.cfi_endproc
                                        # -- End function
	.p2align	4, 0x90         # -- Begin function E__ftheMain$d29
	.type	E__ftheMain$d29,@function
E__ftheMain$d29:                        # @"E__ftheMain$d29"
	.cfi_startproc
# %bb.0:
	pushq	%rbp
	.cfi_def_cfa_offset 16
	pushq	%r15
	.cfi_def_cfa_offset 24
	pushq	%r14
	.cfi_def_cfa_offset 32
	pushq	%r13
	.cfi_def_cfa_offset 40
	pushq	%r12
	.cfi_def_cfa_offset 48
	pushq	%rbx
	.cfi_def_cfa_offset 56
	pushq	%rax
	.cfi_def_cfa_offset 64
	.cfi_offset %rbx, -56
	.cfi_offset %r12, -48
	.cfi_offset %r13, -40
	.cfi_offset %r14, -32
	.cfi_offset %r15, -24
	.cfi_offset %rbp, -16
	movq	%rsi, %r14
	movq	%rdi, %r13
	movq	%r14, %rax
	orq	$1, %rax
	movq	%rax, (%r13)
	movq	8(%r14), %rdx
	movq	16(%r14), %rbx
	movq	%rbx, 8(%r13)
	leaq	16(%r13), %r15
	movl	$_c188, %esi
	movq	%r15, %rdi
	callq	fPrelude_lookup
	cmpq	$2, %rax
	je	.LBB37_1
# %bb.2:
	movq	%rbx, (%rsp)            # 8-byte Spill
	movq	(%rax), %rsi
	movq	%r15, %rdi
	callq	eval
	movl	$.L.str.10, %ebp
	cmpq	$65538, %rax            # imm = 0x10002
	je	.LBB37_7
# %bb.3:
	addq	$24, %r13
	movl	$_c191, %r12d
	.p2align	4, 0x90
.LBB37_4:                               # =>This Inner Loop Header: Depth=1
	movq	(%rax), %rsi
	movq	8(%rax), %rbx
	movq	%rbx, (%r15)
	movq	%r13, %rdi
	callq	eval
	movzbl	(%rbp), %ecx
	testl	%ecx, %ecx
	je	.LBB37_10
# %bb.5:                                #   in Loop: Header=BB37_4 Depth=1
	shrq	$2, %rax
	cmpl	%eax, %ecx
	jne	.LBB37_10
# %bb.6:                                #   in Loop: Header=BB37_4 Depth=1
	addq	$1, %rbp
	movq	%r15, %rdi
	movq	%rbx, %rsi
	callq	eval
	cmpq	$65538, %rax            # imm = 0x10002
	jne	.LBB37_4
.LBB37_7:
	cmpb	$0, (%rbp)
	je	.LBB37_9
# %bb.8:
	movl	$_c191, %r12d
	jmp	.LBB37_10
.LBB37_1:
	movl	$_c191, %r12d
	jmp	.LBB37_11
.LBB37_9:
	movl	$1, %edi
	callq	assert
	movl	$_c203, %r12d
.LBB37_10:
	movq	(%rsp), %rbx            # 8-byte Reload
.LBB37_11:
	movq	8(%rbx), %rsi
	movq	%r15, %rdi
	movq	%r12, %rdx
	callq	ftheMain$d25
	movq	%rax, (%r14)
	addq	$8, %rsp
	popq	%rbx
	popq	%r12
	popq	%r13
	popq	%r14
	popq	%r15
	popq	%rbp
	retq
.Lfunc_end37:
	.size	E__ftheMain$d29, .Lfunc_end37-E__ftheMain$d29
	.cfi_endproc
                                        # -- End function
	.p2align	4, 0x90         # -- Begin function E__ftheMain$d31
	.type	E__ftheMain$d31,@function
E__ftheMain$d31:                        # @"E__ftheMain$d31"
	.cfi_startproc
# %bb.0:
	pushq	%r15
	.cfi_def_cfa_offset 16
	pushq	%r14
	.cfi_def_cfa_offset 24
	pushq	%r12
	.cfi_def_cfa_offset 32
	pushq	%rbx
	.cfi_def_cfa_offset 40
	pushq	%rax
	.cfi_def_cfa_offset 48
	.cfi_offset %rbx, -40
	.cfi_offset %r12, -32
	.cfi_offset %r14, -24
	.cfi_offset %r15, -16
	movq	%rsi, %r14
	movq	%rdi, %rbx
	movq	%r14, %rax
	orq	$1, %rax
	movq	%rax, (%rbx)
	leaq	8(%rbx), %rdi
	movq	8(%r14), %rdx
	movl	$3276802, %esi          # imm = 0x320002
	callq	fW$__fJhc_List_span$d2
	movq	%rax, %r15
	movq	%rdx, %r12
	movq	%r15, 8(%rbx)
	movq	%r12, 16(%rbx)
	addq	$24, %rbx
	movq	cCJhc_Prim_Prim_$LcR(%rip), %rsi
	movq	%rbx, %rdi
	callq	s_alloc
	movq	%r15, (%rax)
	movq	%r12, 8(%rax)
	movq	%rax, (%r14)
	addq	$8, %rsp
	popq	%rbx
	popq	%r12
	popq	%r14
	popq	%r15
	retq
.Lfunc_end38:
	.size	E__ftheMain$d31, .Lfunc_end38-E__ftheMain$d31
	.cfi_endproc
                                        # -- End function
	.p2align	4, 0x90         # -- Begin function E__ftheMain$d32
	.type	E__ftheMain$d32,@function
E__ftheMain$d32:                        # @"E__ftheMain$d32"
	.cfi_startproc
# %bb.0:
	pushq	%r14
	.cfi_def_cfa_offset 16
	pushq	%rbx
	.cfi_def_cfa_offset 24
	pushq	%rax
	.cfi_def_cfa_offset 32
	.cfi_offset %rbx, -24
	.cfi_offset %r14, -16
	movq	%rsi, %r14
	movq	%rdi, %rbx
	movq	%r14, %rax
	orq	$1, %rax
	movq	%rax, (%rbx)
	addq	$8, %rbx
	movq	8(%r14), %rsi
	movq	%rbx, %rdi
	callq	eval
	movq	(%rax), %rsi
	movq	%rbx, %rdi
	callq	eval
	movq	%rax, (%r14)
	addq	$8, %rsp
	popq	%rbx
	popq	%r14
	retq
.Lfunc_end39:
	.size	E__ftheMain$d32, .Lfunc_end39-E__ftheMain$d32
	.cfi_endproc
                                        # -- End function
	.p2align	4, 0x90         # -- Begin function E__ftheMain$d33
	.type	E__ftheMain$d33,@function
E__ftheMain$d33:                        # @"E__ftheMain$d33"
	.cfi_startproc
# %bb.0:
	pushq	%r14
	.cfi_def_cfa_offset 16
	pushq	%rbx
	.cfi_def_cfa_offset 24
	pushq	%rax
	.cfi_def_cfa_offset 32
	.cfi_offset %rbx, -24
	.cfi_offset %r14, -16
	movq	%rsi, %r14
	movq	%rdi, %rbx
	movq	%r14, %rax
	orq	$1, %rax
	movq	%rax, (%rbx)
	addq	$8, %rbx
	movq	8(%r14), %rsi
	movq	%rbx, %rdi
	callq	eval
	movq	8(%rax), %rsi
	movq	%rbx, %rdi
	callq	eval
	cmpq	$65538, %rax            # imm = 0x10002
	je	.LBB40_2
# %bb.1:
	movq	8(%rax), %rsi
	movq	%rbx, %rdi
	callq	eval
	movq	%rax, (%r14)
	addq	$8, %rsp
	popq	%rbx
	popq	%r14
	retq
.LBB40_2:
	movl	$.L.str.12, %edi
	callq	jhc_error
.Lfunc_end40:
	.size	E__ftheMain$d33, .Lfunc_end40-E__ftheMain$d33
	.cfi_endproc
                                        # -- End function
	.p2align	4, 0x90         # -- Begin function E__ftheMain$d34
	.type	E__ftheMain$d34,@function
E__ftheMain$d34:                        # @"E__ftheMain$d34"
	.cfi_startproc
# %bb.0:
	pushq	%r14
	.cfi_def_cfa_offset 16
	pushq	%rbx
	.cfi_def_cfa_offset 24
	pushq	%rax
	.cfi_def_cfa_offset 32
	.cfi_offset %rbx, -24
	.cfi_offset %r14, -16
	movq	%rsi, %r14
	movq	%rdi, %rbx
	movq	%r14, %rax
	orq	$1, %rax
	movq	%rax, (%rbx)
	addq	$8, %rbx
	movq	8(%r14), %rdx
	movl	$_c537, %esi
	movq	%rbx, %rdi
	callq	fPrelude_lookup
	cmpq	$2, %rax
	je	.LBB41_2
# %bb.1:
	movq	(%rax), %rsi
	movq	%rbx, %rdi
	callq	fPrelude_Text_read
	movq	%rax, (%r14)
	addq	$8, %rsp
	popq	%rbx
	popq	%r14
	retq
.LBB41_2:
	movl	$.L.str.3, %edi
	callq	jhc_error
.Lfunc_end41:
	.size	E__ftheMain$d34, .Lfunc_end41-E__ftheMain$d34
	.cfi_endproc
                                        # -- End function
	.p2align	4, 0x90         # -- Begin function E__ftheMain$d35
	.type	E__ftheMain$d35,@function
E__ftheMain$d35:                        # @"E__ftheMain$d35"
	.cfi_startproc
# %bb.0:
	pushq	%rbp
	.cfi_def_cfa_offset 16
	pushq	%rbx
	.cfi_def_cfa_offset 24
	pushq	%rax
	.cfi_def_cfa_offset 32
	.cfi_offset %rbx, -24
	.cfi_offset %rbp, -16
	movq	%rsi, %rbx
	movq	%rbx, %rax
	orq	$1, %rax
	movq	%rax, (%rdi)
	addq	$8, %rdi
	movq	8(%rbx), %rsi
	movzwl	16(%rbx), %ebp
	callq	eval
	shrq	$2, %rax
	addw	%bp, %ax
	movzwl	%ax, %eax
	leaq	2(,%rax,4), %rax
	movq	%rax, (%rbx)
	addq	$8, %rsp
	popq	%rbx
	popq	%rbp
	retq
.Lfunc_end42:
	.size	E__ftheMain$d35, .Lfunc_end42-E__ftheMain$d35
	.cfi_endproc
                                        # -- End function
	.p2align	4, 0x90         # -- Begin function E__fNumeric_showHex
	.type	E__fNumeric_showHex,@function
E__fNumeric_showHex:                    # @E__fNumeric_showHex
	.cfi_startproc
# %bb.0:
	pushq	%rbp
	.cfi_def_cfa_offset 16
	pushq	%r15
	.cfi_def_cfa_offset 24
	pushq	%r14
	.cfi_def_cfa_offset 32
	pushq	%r13
	.cfi_def_cfa_offset 40
	pushq	%r12
	.cfi_def_cfa_offset 48
	pushq	%rbx
	.cfi_def_cfa_offset 56
	subq	$40, %rsp
	.cfi_def_cfa_offset 96
	.cfi_offset %rbx, -56
	.cfi_offset %r12, -48
	.cfi_offset %r13, -40
	.cfi_offset %r14, -32
	.cfi_offset %r15, -24
	.cfi_offset %rbp, -16
	movq	%rsi, %rcx
	movq	%rdi, %r13
	movq	%rcx, %rax
	orq	$1, %rax
	movq	%rax, (%r13)
	movq	8(%rcx), %rsi
	movq	%rcx, 24(%rsp)          # 8-byte Spill
	movq	16(%rcx), %rbp
	movq	%rbp, 8(%r13)
	leaq	16(%r13), %rdi
	callq	eval
	movq	%rax, %rbx
	shrq	$2, %rbx
	leaq	40(%r13), %rax
	movq	%rax, 32(%rsp)          # 8-byte Spill
	leaq	48(%r13), %rax
	movq	%rax, (%rsp)            # 8-byte Spill
	leaq	56(%r13), %rax
	movq	%rax, 8(%rsp)           # 8-byte Spill
	movq	(%rsp), %r12            # 8-byte Reload
	jmp	.LBB43_1
	.p2align	4, 0x90
.LBB43_2:                               #   in Loop: Header=BB43_1 Depth=1
	andl	$65520, %ebx            # imm = 0xFFF0
	shrl	$4, %ebx
	movq	(%rsp), %rax            # 8-byte Reload
	movq	%rbp, (%rax)
	movq	cCJhc_Prim_Prim_$x3a(%rip), %rsi
	movq	8(%rsp), %rdi           # 8-byte Reload
	callq	s_alloc
	movq	%rbp, (%rax)
	movq	16(%rsp), %rcx          # 8-byte Reload
	movq	%rcx, 8(%rax)
	movq	%rax, %rbp
.LBB43_1:                               # =>This Inner Loop Header: Depth=1
	movq	$66, 16(%r13)
	movq	%rbp, 16(%rsp)          # 8-byte Spill
	movq	%rbp, 24(%r13)
	movq	$1179650, 32(%r13)      # imm = 0x120002
	movl	%ebx, %esi
	shrl	$2, %esi
	orl	$2, %esi
	andl	$16382, %esi            # imm = 0x3FFE
	movq	$2, 40(%r13)
	movq	%r12, %rdi
	callq	eval
	movq	%rax, %r15
	movl	$2, %esi
	movq	%r12, %rdi
	callq	eval
	movq	%rax, %r14
	xorl	%r15d, %r14d
	movq	cFW$__fNumeric_showIntAtBase$d3(%rip), %rsi
	movq	32(%rsp), %rdi          # 8-byte Reload
	callq	s_alloc
	movq	%rax, %rbp
	movq	$E__fW$__fNumeric_showIntAtBase$d3+3, (%rbp)
	movq	$66, 8(%rbp)
	movw	%bx, 16(%rbp)
	orq	$1, %rbp
	movq	%rbp, 40(%r13)
	movq	cBap__1__W$__fNumeric_showIntAtBase__100414(%rip), %rsi
	movq	%r12, %rdi
	callq	s_alloc
	movq	$E__bap__1__W$__fNumeric_showIntAtBase__100414+3, (%rax)
	movq	$1179650, 8(%rax)       # imm = 0x120002
	movq	%rbp, 16(%rax)
	movq	%rax, %rbp
	orq	$1, %rbp
	testl	$262140, %r14d          # imm = 0x3FFFC
	jne	.LBB43_2
# %bb.3:
	movl	$1, %edi
	callq	assert
	movq	(%rsp), %rax            # 8-byte Reload
	movq	%rbp, (%rax)
	movq	cCJhc_Prim_Prim_$x3a(%rip), %rsi
	movq	8(%rsp), %rdi           # 8-byte Reload
	callq	s_alloc
	movq	%rbp, (%rax)
	movq	16(%rsp), %rcx          # 8-byte Reload
	movq	%rcx, 8(%rax)
	movq	24(%rsp), %rcx          # 8-byte Reload
	movq	%rax, (%rcx)
	addq	$40, %rsp
	popq	%rbx
	popq	%r12
	popq	%r13
	popq	%r14
	popq	%r15
	popq	%rbp
	retq
.Lfunc_end43:
	.size	E__fNumeric_showHex, .Lfunc_end43-E__fNumeric_showHex
	.cfi_endproc
                                        # -- End function
	.p2align	4, 0x90         # -- Begin function fPrelude_Text_read
	.type	fPrelude_Text_read,@function
fPrelude_Text_read:                     # @fPrelude_Text_read
	.cfi_startproc
# %bb.0:
	pushq	%r15
	.cfi_def_cfa_offset 16
	pushq	%r14
	.cfi_def_cfa_offset 24
	pushq	%r12
	.cfi_def_cfa_offset 32
	pushq	%rbx
	.cfi_def_cfa_offset 40
	pushq	%rax
	.cfi_def_cfa_offset 48
	.cfi_offset %rbx, -40
	.cfi_offset %r12, -32
	.cfi_offset %r14, -24
	.cfi_offset %r15, -16
	movq	%rsi, %r15
	movq	%rdi, %r12
	movq	$5898242, (%r12)        # imm = 0x5A0002
	movq	%r15, 8(%r12)
	leaq	16(%r12), %r14
	movq	$1245186, 16(%r12)      # imm = 0x130002
	leaq	24(%r12), %rdi
	movq	cFJhc_Text_Read_nonnull$d2(%rip), %rsi
	callq	s_alloc
	movq	%rax, %rbx
	movq	$E__fJhc_Text_Read_nonnull$d2+3, (%rbx)
	movq	$1245186, 8(%rbx)       # imm = 0x130002
	movq	%r15, 16(%rbx)
	orq	$1, %rbx
	movq	%rbx, 24(%r12)
	leaq	32(%r12), %r15
	movq	cCJhc_Prim_Prim_$x3a(%rip), %rsi
	movq	%r15, %rdi
	callq	s_alloc
	movq	%rbx, (%rax)
	movq	$65538, 8(%rax)         # imm = 0x10002
	movq	%r15, %rdi
	movq	%rax, %rsi
	callq	fJhc_Text_Read_nonnull$d4
	movq	%rax, 8(%r12)
	movl	$42, %esi
	movl	$5898242, %edx          # imm = 0x5A0002
	movq	%r14, %rdi
	movq	%rax, %rcx
	callq	fJhc_Text_Read_readDec$d3
	movq	%r12, %rdi
	movq	%rax, %rsi
	callq	fPrelude_Text_read$d5
	cmpq	$65538, %rax            # imm = 0x10002
	je	.LBB44_3
# %bb.1:
	movq	(%rax), %r14
	movq	8(%rax), %rsi
	movq	%r14, (%r12)
	addq	$8, %r12
	movq	%r12, %rdi
	callq	eval
	cmpq	$65538, %rax            # imm = 0x10002
	jne	.LBB44_2
# %bb.4:
	movq	%r12, %rdi
	movq	%r14, %rsi
	addq	$8, %rsp
	popq	%rbx
	popq	%r12
	popq	%r14
	popq	%r15
	jmp	eval                    # TAILCALL
.LBB44_3:
	movl	$.L.str.13, %edi
	callq	jhc_error
.LBB44_2:
	movl	$.L.str.14, %edi
	callq	jhc_error
.Lfunc_end44:
	.size	fPrelude_Text_read, .Lfunc_end44-fPrelude_Text_read
	.cfi_endproc
                                        # -- End function
	.p2align	4, 0x90         # -- Begin function fW$__fMain_ataIdentify
	.type	fW$__fMain_ataIdentify,@function
fW$__fMain_ataIdentify:                 # @"fW$__fMain_ataIdentify"
	.cfi_startproc
# %bb.0:
	pushq	%rbp
	.cfi_def_cfa_offset 16
	pushq	%r15
	.cfi_def_cfa_offset 24
	pushq	%r14
	.cfi_def_cfa_offset 32
	pushq	%r13
	.cfi_def_cfa_offset 40
	pushq	%r12
	.cfi_def_cfa_offset 48
	pushq	%rbx
	.cfi_def_cfa_offset 56
	subq	$40, %rsp
	.cfi_def_cfa_offset 96
	.cfi_offset %rbx, -56
	.cfi_offset %r12, -48
	.cfi_offset %r13, -40
	.cfi_offset %r14, -32
	.cfi_offset %r15, -24
	.cfi_offset %rbp, -16
	movl	%ecx, 4(%rsp)           # 4-byte Spill
	movl	%edx, (%rsp)            # 4-byte Spill
	movl	%esi, 16(%rsp)          # 4-byte Spill
	movq	%rdi, %r12
	movl	%r8d, 20(%rsp)          # 4-byte Spill
	movl	%r8d, %eax
	leaq	2(,%rax,4), %rbp
	movq	%rbp, (%r12)
	leaq	8(%r12), %rbx
	movq	cFInstance$__iJhc_Show_show_default(%rip), %rsi
	movq	%rbx, %rdi
	callq	s_alloc
	movq	%rax, %r15
	movq	$E__fInstance$__iJhc_Show_show_default+3, (%r15)
	movq	$6029314, 8(%r15)       # imm = 0x5C0002
	movq	%rbp, 16(%r15)
	orq	$1, %r15
	movq	%r15, 8(%r12)
	leaq	16(%r12), %r14
	movl	$_c671, %esi
	movq	%r14, %rdi
	callq	eval
	cmpq	$65538, %rax            # imm = 0x10002
	movq	%r12, 24(%rsp)          # 8-byte Spill
	je	.LBB45_1
# %bb.2:
	movq	(%rax), %rcx
	movq	%rcx, 8(%rsp)           # 8-byte Spill
	movq	8(%rax), %r13
	movq	%rcx, 16(%r12)
	leaq	24(%r12), %rbp
	movq	%r13, 24(%r12)
	leaq	32(%r12), %rdi
	movq	cFR$__fJhc_Basics_$pp(%rip), %rsi
	callq	s_alloc
	movq	%r12, %rcx
	movq	%rax, %r12
	movq	$E__fR$__fJhc_Basics_$pp+3, (%r12)
	movq	%r13, 8(%r12)
	movq	%r15, 16(%r12)
	orq	$1, %r12
	movq	%r12, 32(%rcx)
	leaq	40(%rcx), %rdi
	movq	cCJhc_Prim_Prim_$x3a(%rip), %rsi
	callq	s_alloc
	movq	8(%rsp), %rcx           # 8-byte Reload
	movq	%rcx, (%rax)
	movq	%r12, 8(%rax)
	jmp	.LBB45_3
.LBB45_1:
	movq	%r14, %rdi
	movq	%r15, %rsi
	callq	eval
	leaq	24(%r12), %rbp
.LBB45_3:
	movq	%rbx, %rdi
	movq	%rax, %rsi
	callq	fHos_User_SysCall_hosDebugLog
	movzwl	16(%rsp), %r13d         # 2-byte Folded Reload
	movzwl	20(%rsp), %edx          # 2-byte Folded Reload
	movl	$236, %ecx
	xorl	%r8d, %r8d
	movq	%rbx, %rdi
	movl	%r13d, %esi
	movl	%edx, 8(%rsp)           # 4-byte Spill
	callq	fW$__fMain_ataSimpleCommand
	leal	7(%r13), %edx
                                        # kill: def %dx killed %dx killed %edx
	#APP
	inb	%dx, %al
	#NO_APP
	movzbl	%al, %r15d
	leaq	(,%r15,4), %rax
	movq	%rax, 32(%rsp)          # 8-byte Spill
	leaq	2(,%r15,4), %r12
	.p2align	4, 0x90
.LBB45_4:                               # =>This Inner Loop Header: Depth=1
	movq	%rbx, saved_gc(%rip)
	movq	$2752514, (%rbx)        # imm = 0x2A0002
	movq	%r12, (%r14)
	movq	%rbp, %rdi
	movq	%r12, %rsi
	callq	eval
	btl	$9, %eax
	jb	.LBB45_4
# %bb.5:
	movl	$1, %edi
	callq	assert
	testb	%r15b, %r15b
	je	.LBB45_24
# %bb.6:
	testb	$1, %r15b
	jne	.LBB45_24
# %bb.7:
	cmpb	$0, 32(%rsp)            # 1-byte Folded Reload
	js	.LBB45_23
# %bb.8:
	movq	%rbx, saved_gc(%rip)
	movl	$512, %edi              # imm = 0x200
	callq	malloc
	movq	%rax, %r15
	movq	cCJhc_Type_Ptr_Ptr(%rip), %rsi
	movq	%rbx, %rdi
	callq	s_alloc
	movq	%rax, %r13
	movq	%r15, (%r13)
	testq	%r15, %r15
	je	.LBB45_25
# %bb.9:
	movq	24(%rsp), %rax          # 8-byte Reload
	movq	%r13, 8(%rax)
	leaq	32(%rax), %r15
	.p2align	4, 0x90
.LBB45_10:                              # =>This Inner Loop Header: Depth=1
	movq	%r14, saved_gc(%rip)
	movq	$2818050, (%r14)        # imm = 0x2B0002
	movq	%r12, (%rbp)
	movq	%r15, %rdi
	movq	%r12, %rsi
	callq	eval
	shrl	$5, %eax
	andl	$1, %eax
	je	.LBB45_10
# %bb.11:
	movl	%eax, %edi
	callq	assert
	movq	cCJhc_Type_Word_Int(%rip), %rsi
	movq	%r14, %rdi
	callq	s_alloc
	movq	%rax, %r12
	movl	$0, (%r12)
	movq	%r12, (%r14)
	movq	cFW$__fInstance$__iJhc_Enum_enumFromTo_Jhc_Type_Word_Int$d2(%rip), %rsi
	movq	%rbp, %rdi
	callq	s_alloc
	movq	%rax, %rbx
	movq	$E__fW$__fInstance$__iJhc_Enum_enumFromTo_Jhc_Type_Word_Int$d2+3, (%rbx)
	movabsq	$4294967551, %rax       # imm = 0x1000000FF
	movq	%rax, 8(%rbx)
	orq	$1, %rbx
	movq	%rbx, (%rbp)
	movq	cCJhc_Prim_Prim_$x3a(%rip), %rsi
	movq	%r15, %rdi
	callq	s_alloc
	movq	%r12, (%rax)
	movq	%rbx, 8(%rax)
	movq	%r14, %rdi
	movq	%rax, %rsi
	callq	eval
	cmpq	$65538, %rax            # imm = 0x10002
	movl	16(%rsp), %r12d         # 4-byte Reload
	je	.LBB45_13
	.p2align	4, 0x90
.LBB45_12:                              # =>This Inner Loop Header: Depth=1
	movq	(%rax), %rsi
	movq	8(%rax), %rbx
	movq	%rbx, (%r14)
	movq	%rbp, %rdi
	callq	eval
	movl	(%rax), %ecx
	movq	%rbp, saved_gc(%rip)
	movl	%r12d, %edx
	#APP
	inw	%dx, %ax
	#NO_APP
	movq	(%r13), %rdx
	addl	%ecx, %ecx
	movslq	%ecx, %rcx
	movw	%ax, (%rdx,%rcx)
	movq	%r14, %rdi
	movq	%rbx, %rsi
	callq	eval
	cmpq	$65538, %rax            # imm = 0x10002
	jne	.LBB45_12
.LBB45_13:
	movl	$_c688, %esi
	movq	%r14, %rdi
	callq	fHos_User_SysCall_hosDebugLog
	movq	(%r13), %r12
	movzwl	98(%r12), %ebx
	btl	$8, %ebx
	jb	.LBB45_15
# %bb.14:
	testb	$2, %bh
	movl	$_c166, %eax
	movl	$_c167, %r13d
	cmoveq	%rax, %r13
	jmp	.LBB45_19
.LBB45_23:
	movl	$1, %edi
	callq	assert
.LBB45_24:
	movzwl	(%rsp), %edx            # 2-byte Folded Reload
	movzwl	4(%rsp), %ecx           # 2-byte Folded Reload
	movq	%rbx, %rdi
	movl	%r13d, %esi
	movl	8(%rsp), %r8d           # 4-byte Reload
	addq	$40, %rsp
	popq	%rbx
	popq	%r12
	popq	%r13
	popq	%r14
	popq	%r15
	popq	%rbp
	jmp	fW$__fMain_atapiIdentify # TAILCALL
.LBB45_15:
	testb	$4, %bl
	jne	.LBB45_17
# %bb.16:
	movl	$2, %eax
	jmp	.LBB45_18
.LBB45_17:
	xorl	%eax, %eax
	testb	$31, 176(%r12)
	setne	%al
	leaq	2(,%rax,4), %rax
.LBB45_18:
	movq	%rax, 8(%rsp)           # 8-byte Spill
	movq	%rax, (%r14)
	movq	cFW$__fMain_idRead$d4(%rip), %rsi
	movq	%rbp, %rdi
	callq	s_alloc
	movq	%rax, %r13
	movq	$E__fW$__fMain_idRead$d4+3, (%r13)
	movw	%bx, 16(%r13)
	movq	8(%rsp), %rax           # 8-byte Reload
	movq	%rax, 8(%r13)
	orq	$1, %r13
.LBB45_19:
	movq	%r13, (%r14)
	movzwl	2(%r12), %eax
	movzwl	6(%r12), %ecx
	imulq	%rax, %rcx
	movzwl	12(%r12), %r14d
	imulq	%rcx, %r14
	cmpq	$1048577, %r14          # imm = 0x100001
	jb	.LBB45_22
# %bb.20:
	movzwl	98(%r12), %ebx
	movl	$1, %edi
	callq	assert
	testb	$2, %bh
	je	.LBB45_22
# %bb.21:
	movl	120(%r12), %r14d
.LBB45_22:
	movq	cCJhc_Type_Word_Word64(%rip), %rsi
	movq	%rbp, %rdi
	callq	s_alloc
	movq	%rax, %rbx
	movq	%r14, (%rbx)
	movq	%rbp, saved_gc(%rip)
	movq	%r12, %rdi
	callq	free
	movq	%rbx, (%rbp)
	movq	cFW$__fMain_ataIdentify$d4(%rip), %rsi
	movq	%r15, %rdi
	callq	s_alloc
	movq	%rax, %rbp
	movq	$E__fW$__fMain_ataIdentify$d4+3, (%rbp)
	movq	%rbx, 8(%rbp)
	movq	%r13, 16(%rbp)
	movl	20(%rsp), %eax          # 4-byte Reload
	movw	%ax, 24(%rbp)
	movl	16(%rsp), %eax          # 4-byte Reload
	movw	%ax, 26(%rbp)
	movl	(%rsp), %eax            # 4-byte Reload
	movw	%ax, 28(%rbp)
	movl	4(%rsp), %eax           # 4-byte Reload
	movw	%ax, 30(%rbp)
	orq	$1, %rbp
	movq	24(%rsp), %rdi          # 8-byte Reload
	movq	%rbp, 32(%rdi)
	addq	$40, %rdi
	movq	cCJhc_Type_Basic_Just(%rip), %rsi
	callq	s_alloc
	movq	%rbp, (%rax)
	addq	$40, %rsp
	popq	%rbx
	popq	%r12
	popq	%r13
	popq	%r14
	popq	%r15
	popq	%rbp
	retq
.LBB45_25:
	movl	$_c461, %esi
	movl	$_c475, %edx
	movq	%rbx, %rdi
	callq	fJhc_Basics_$pp
	movq	%rbx, %rdi
	movq	%rax, %rsi
	callq	fJhc_IO_putErrLn
	movl	$255, %edi
	callq	jhc_exit
.Lfunc_end45:
	.size	fW$__fMain_ataIdentify, .Lfunc_end45-fW$__fMain_ataIdentify
	.cfi_endproc
                                        # -- End function
	.p2align	4, 0x90         # -- Begin function ftheMain$d37
	.type	ftheMain$d37,@function
ftheMain$d37:                           # @"ftheMain$d37"
	.cfi_startproc
# %bb.0:
	pushq	%r15
	.cfi_def_cfa_offset 16
	pushq	%r14
	.cfi_def_cfa_offset 24
	pushq	%r12
	.cfi_def_cfa_offset 32
	pushq	%rbx
	.cfi_def_cfa_offset 40
	subq	$24, %rsp
	.cfi_def_cfa_offset 64
	.cfi_offset %rbx, -40
	.cfi_offset %r12, -32
	.cfi_offset %r14, -24
	.cfi_offset %r15, -16
	movq	%rdi, %r15
	callq	eval
	cmpq	$65538, %rax            # imm = 0x10002
	je	.LBB46_1
# %bb.2:
	movq	(%rax), %rbx
	movq	8(%rax), %r12
	movq	%r12, (%rsp)
	movq	%rbx, 8(%rsp)
	movaps	(%rsp), %xmm0
	movups	%xmm0, (%r15)
	leaq	16(%r15), %rdi
	movq	cFtheMain$d36(%rip), %rsi
	callq	s_alloc
	movq	%rax, %r14
	movq	$E__ftheMain$d36+3, (%r14)
	movq	%rbx, 8(%r14)
	orq	$1, %r14
	movq	%r14, 16(%r15)
	leaq	24(%r15), %rdi
	movq	cFtheMain$d37(%rip), %rsi
	callq	s_alloc
	movq	%rax, %rbx
	movq	$E__ftheMain$d37+3, (%rbx)
	movq	%r12, 8(%rbx)
	orq	$1, %rbx
	movq	%rbx, 24(%r15)
	addq	$32, %r15
	movq	cCJhc_Prim_Prim_$x3a(%rip), %rsi
	movq	%r15, %rdi
	callq	s_alloc
	movq	%r14, (%rax)
	movq	%rbx, 8(%rax)
	jmp	.LBB46_3
.LBB46_1:
	movl	$65538, %eax            # imm = 0x10002
.LBB46_3:
	addq	$24, %rsp
	popq	%rbx
	popq	%r12
	popq	%r14
	popq	%r15
	retq
.Lfunc_end46:
	.size	ftheMain$d37, .Lfunc_end46-ftheMain$d37
	.cfi_endproc
                                        # -- End function
	.p2align	4, 0x90         # -- Begin function E__ftheMain$d38
	.type	E__ftheMain$d38,@function
E__ftheMain$d38:                        # @"E__ftheMain$d38"
	.cfi_startproc
# %bb.0:
	pushq	%r14
	.cfi_def_cfa_offset 16
	pushq	%rbx
	.cfi_def_cfa_offset 24
	pushq	%rax
	.cfi_def_cfa_offset 32
	.cfi_offset %rbx, -24
	.cfi_offset %r14, -16
	movq	%rsi, %r14
	movq	%rdi, %rbx
	movq	%r14, %rax
	orq	$1, %rax
	movq	%rax, (%rbx)
	addq	$8, %rbx
	movq	8(%r14), %rsi
	movq	%rbx, %rdi
	callq	fJhc_Basics_117__g
	movq	%rbx, %rdi
	movq	%rax, %rsi
	callq	ftheMain$d40
	movq	%rax, (%r14)
	addq	$8, %rsp
	popq	%rbx
	popq	%r14
	retq
.Lfunc_end47:
	.size	E__ftheMain$d38, .Lfunc_end47-E__ftheMain$d38
	.cfi_endproc
                                        # -- End function
	.p2align	4, 0x90         # -- Begin function fJhc_Monad_60__go
	.type	fJhc_Monad_60__go,@function
fJhc_Monad_60__go:                      # @fJhc_Monad_60__go
	.cfi_startproc
# %bb.0:
	pushq	%r15
	.cfi_def_cfa_offset 16
	pushq	%r14
	.cfi_def_cfa_offset 24
	pushq	%r13
	.cfi_def_cfa_offset 32
	pushq	%r12
	.cfi_def_cfa_offset 40
	pushq	%rbx
	.cfi_def_cfa_offset 48
	.cfi_offset %rbx, -48
	.cfi_offset %r12, -40
	.cfi_offset %r13, -32
	.cfi_offset %r14, -24
	.cfi_offset %r15, -16
	movq	%rdi, %r13
	callq	eval
	cmpq	$65538, %rax            # imm = 0x10002
	je	.LBB48_1
# %bb.2:
	movq	(%rax), %rsi
	movq	8(%rax), %r15
	movq	%r15, (%r13)
	leaq	8(%r13), %r14
	movq	%r14, %rdi
	callq	eval
	movq	(%rax), %r12
	movq	%r14, saved_gc(%rip)
	movl	$8, %edi
	callq	malloc
	movq	%rax, %rbx
	movq	cCJhc_Type_Ptr_Ptr(%rip), %rsi
	movq	%r14, %rdi
	callq	s_alloc
	movq	%rbx, (%rax)
	testq	%rbx, %rbx
	je	.LBB48_5
# %bb.3:
	movq	%r14, saved_gc(%rip)
	movl	$8, %edi
	xorl	%ecx, %ecx
	xorl	%r8d, %r8d
	xorl	%r9d, %r9d
	movq	%r12, %rsi
	movq	%rbx, %rdx
	callq	syscall
	movq	(%rbx), %r12
	movq	%r14, saved_gc(%rip)
	movq	%rbx, %rdi
	callq	free
	movq	cCJhc_Type_Word_Word64(%rip), %rsi
	movq	%r14, %rdi
	callq	s_alloc
	movq	%rax, %rbx
	movq	%r12, (%rbx)
	movq	%rbx, 8(%r13)
	leaq	16(%r13), %rdi
	movq	%r15, %rsi
	callq	fJhc_Monad_60__go
	movq	%rax, %r14
	movq	%r14, 16(%r13)
	addq	$24, %r13
	movq	cCJhc_Prim_Prim_$x3a(%rip), %rsi
	movq	%r13, %rdi
	callq	s_alloc
	movq	%rbx, (%rax)
	movq	%r14, 8(%rax)
	jmp	.LBB48_4
.LBB48_1:
	movl	$65538, %eax            # imm = 0x10002
.LBB48_4:
	popq	%rbx
	popq	%r12
	popq	%r13
	popq	%r14
	popq	%r15
	retq
.LBB48_5:
	movl	$_c461, %esi
	movl	$_c475, %edx
	movq	%r14, %rdi
	callq	fJhc_Basics_$pp
	movq	%r14, %rdi
	movq	%rax, %rsi
	callq	fJhc_IO_putErrLn
	movl	$255, %edi
	callq	jhc_exit
.Lfunc_end48:
	.size	fJhc_Monad_60__go, .Lfunc_end48-fJhc_Monad_60__go
	.cfi_endproc
                                        # -- End function
	.p2align	4, 0x90         # -- Begin function fR$__fJhc_Basics_zip
	.type	fR$__fJhc_Basics_zip,@function
fR$__fJhc_Basics_zip:                   # @"fR$__fJhc_Basics_zip"
	.cfi_startproc
# %bb.0:
	pushq	%rbp
	.cfi_def_cfa_offset 16
	pushq	%r15
	.cfi_def_cfa_offset 24
	pushq	%r14
	.cfi_def_cfa_offset 32
	pushq	%r13
	.cfi_def_cfa_offset 40
	pushq	%r12
	.cfi_def_cfa_offset 48
	pushq	%rbx
	.cfi_def_cfa_offset 56
	subq	$56, %rsp
	.cfi_def_cfa_offset 112
	.cfi_offset %rbx, -56
	.cfi_offset %r12, -48
	.cfi_offset %r13, -40
	.cfi_offset %r14, -32
	.cfi_offset %r15, -24
	.cfi_offset %rbp, -16
	movq	%rdx, %r14
	movq	%rdi, %r12
	movq	%r14, (%r12)
	leaq	8(%r12), %r15
	movq	%r15, %rdi
	callq	eval
	cmpq	$65538, %rax            # imm = 0x10002
	je	.LBB49_4
# %bb.1:
	movq	(%rax), %rbx
	movq	8(%rax), %r13
	movq	%r13, 32(%rsp)
	movq	%rbx, 40(%rsp)
	movaps	32(%rsp), %xmm0
	movups	%xmm0, (%r15)
	leaq	24(%r12), %r15
	movq	%r15, %rdi
	movq	%r14, %rsi
	callq	eval
	cmpq	$65538, %rax            # imm = 0x10002
	je	.LBB49_4
# %bb.2:
	movq	(%rax), %rbp
	movq	8(%rax), %rax
	movq	%rax, 8(%rsp)           # 8-byte Spill
	movq	%rax, 16(%rsp)
	movq	%rbp, 24(%rsp)
	movaps	16(%rsp), %xmm0
	movups	%xmm0, (%r15)
	leaq	40(%r12), %rdi
	movq	cCJhc_Prim_Prim_$LcR(%rip), %rsi
	callq	s_alloc
	movq	%rax, %r14
	movq	%rbx, (%r14)
	movq	%rbp, 8(%r14)
	movq	%r14, 40(%r12)
	leaq	48(%r12), %rdi
	movq	cFR$__fJhc_Basics_zip(%rip), %rsi
	callq	s_alloc
	movq	%rax, %rbx
	movq	$E__fR$__fJhc_Basics_zip+3, (%rbx)
	movq	%r13, 8(%rbx)
	movq	8(%rsp), %rax           # 8-byte Reload
	movq	%rax, 16(%rbx)
	orq	$1, %rbx
	movq	%rbx, 48(%r12)
	addq	$56, %r12
	movq	cCJhc_Prim_Prim_$x3a(%rip), %rsi
	movq	%r12, %rdi
	callq	s_alloc
	movq	%r14, (%rax)
	movq	%rbx, 8(%rax)
	jmp	.LBB49_5
.LBB49_4:
	movl	$65538, %eax            # imm = 0x10002
.LBB49_5:
	addq	$56, %rsp
	popq	%rbx
	popq	%r12
	popq	%r13
	popq	%r14
	popq	%r15
	popq	%rbp
	retq
.Lfunc_end49:
	.size	fR$__fJhc_Basics_zip, .Lfunc_end49-fR$__fJhc_Basics_zip
	.cfi_endproc
                                        # -- End function
	.p2align	4, 0x90         # -- Begin function fW$__fMain_ataSimpleCommand
	.type	fW$__fMain_ataSimpleCommand,@function
fW$__fMain_ataSimpleCommand:            # @"fW$__fMain_ataSimpleCommand"
	.cfi_startproc
# %bb.0:
	pushq	%rbp
	.cfi_def_cfa_offset 16
	pushq	%r15
	.cfi_def_cfa_offset 24
	pushq	%r14
	.cfi_def_cfa_offset 32
	pushq	%r13
	.cfi_def_cfa_offset 40
	pushq	%r12
	.cfi_def_cfa_offset 48
	pushq	%rbx
	.cfi_def_cfa_offset 56
	pushq	%rax
	.cfi_def_cfa_offset 64
	.cfi_offset %rbx, -56
	.cfi_offset %r12, -48
	.cfi_offset %r13, -40
	.cfi_offset %r14, -32
	.cfi_offset %r15, -24
	.cfi_offset %rbp, -16
	movl	%r8d, (%rsp)            # 4-byte Spill
	movl	%ecx, 4(%rsp)           # 4-byte Spill
	movl	%edx, %r12d
	movl	%esi, %r13d
	movq	%rdi, %rbx
	leaq	16(%rbx), %rbp
	movl	%r13d, %r15d
	addl	$7, %r15d
	movl	%r15d, %edx
	#APP
	inb	%dx, %al
	#NO_APP
	movzbl	%al, %eax
	leaq	2(,%rax,4), %r14
	.p2align	4, 0x90
.LBB50_1:                               # =>This Inner Loop Header: Depth=1
	movq	%rbx, saved_gc(%rip)
	movq	$2883586, (%rbx)        # imm = 0x2C0002
	movq	%r14, 8(%rbx)
	movq	%rbp, %rdi
	movq	%r14, %rsi
	callq	eval
	btl	$9, %eax
	jb	.LBB50_1
# %bb.2:
	movl	$1, %edi
	callq	assert
	leal	6(%r13), %edx
	movzwl	%r12w, %eax
	movq	%rbx, saved_gc(%rip)
	cmpl	$1, %eax
	jne	.LBB50_7
# %bb.3:
	movb	$-96, %al
                                        # kill: def %dx killed %dx killed %edx
	#APP
	outb	%al, %dx
	#NO_APP
	.p2align	4, 0x90
.LBB50_4:                               # =>This Inner Loop Header: Depth=1
	movq	%rbx, saved_gc(%rip)
	movq	$2949122, (%rbx)        # imm = 0x2D0002
	movq	%r14, 8(%rbx)
	movq	%rbp, %rdi
	movq	%r14, %rsi
	callq	eval
	btl	$9, %eax
	jb	.LBB50_4
# %bb.5:
	movl	$1, %edi
	callq	assert
	leal	1(%r13), %edx
	movq	%rbx, saved_gc(%rip)
	movl	(%rsp), %eax            # 4-byte Reload
                                        # kill: def %al killed %al killed %eax
                                        # kill: def %dx killed %dx killed %edx
	#APP
	outb	%al, %dx
	#NO_APP
	leal	2(%r13), %edx
	movq	%rbx, saved_gc(%rip)
	xorl	%eax, %eax
                                        # kill: def %dx killed %dx killed %edx
	#APP
	outb	%al, %dx
	#NO_APP
	movq	%rbx, saved_gc(%rip)
	leal	3(%r13), %edx
	xorl	%eax, %eax
                                        # kill: def %dx killed %dx killed %edx
	#APP
	outb	%al, %dx
	#NO_APP
	leal	4(%r13), %edx
	movq	%rbx, saved_gc(%rip)
	xorl	%eax, %eax
                                        # kill: def %dx killed %dx killed %edx
	#APP
	outb	%al, %dx
	#NO_APP
	leal	5(%r13), %edx
	movq	%rbx, saved_gc(%rip)
	xorl	%eax, %eax
                                        # kill: def %dx killed %dx killed %edx
	#APP
	outb	%al, %dx
	#NO_APP
	movq	%rbx, saved_gc(%rip)
	movl	4(%rsp), %eax           # 4-byte Reload
                                        # kill: def %al killed %al killed %eax
	movl	%r15d, %edx
	#APP
	outb	%al, %dx
	#NO_APP
	jmp	.LBB50_6
.LBB50_7:
	movb	$-80, %al
                                        # kill: def %dx killed %dx killed %edx
	#APP
	outb	%al, %dx
	#NO_APP
	.p2align	4, 0x90
.LBB50_8:                               # =>This Inner Loop Header: Depth=1
	movq	%rbx, saved_gc(%rip)
	movq	$3014658, (%rbx)        # imm = 0x2E0002
	movq	%r14, 8(%rbx)
	movq	%rbp, %rdi
	movq	%r14, %rsi
	callq	eval
	btl	$9, %eax
	jb	.LBB50_8
# %bb.9:
	movl	$1, %edi
	callq	assert
	leal	1(%r13), %edx
	movq	%rbx, saved_gc(%rip)
	movl	(%rsp), %eax            # 4-byte Reload
                                        # kill: def %al killed %al killed %eax
                                        # kill: def %dx killed %dx killed %edx
	#APP
	outb	%al, %dx
	#NO_APP
	leal	2(%r13), %edx
	movq	%rbx, saved_gc(%rip)
	xorl	%eax, %eax
                                        # kill: def %dx killed %dx killed %edx
	#APP
	outb	%al, %dx
	#NO_APP
	movq	%rbx, saved_gc(%rip)
	leal	3(%r13), %edx
	xorl	%eax, %eax
                                        # kill: def %dx killed %dx killed %edx
	#APP
	outb	%al, %dx
	#NO_APP
	leal	4(%r13), %edx
	movq	%rbx, saved_gc(%rip)
	xorl	%eax, %eax
                                        # kill: def %dx killed %dx killed %edx
	#APP
	outb	%al, %dx
	#NO_APP
	leal	5(%r13), %edx
	movq	%rbx, saved_gc(%rip)
	xorl	%eax, %eax
                                        # kill: def %dx killed %dx killed %edx
	#APP
	outb	%al, %dx
	#NO_APP
	movq	%rbx, saved_gc(%rip)
	movl	4(%rsp), %eax           # 4-byte Reload
                                        # kill: def %al killed %al killed %eax
	movl	%r15d, %edx
	#APP
	outb	%al, %dx
	#NO_APP
.LBB50_6:
	addq	$8, %rsp
	popq	%rbx
	popq	%r12
	popq	%r13
	popq	%r14
	popq	%r15
	popq	%rbp
	retq
.Lfunc_end50:
	.size	fW$__fMain_ataSimpleCommand, .Lfunc_end50-fW$__fMain_ataSimpleCommand
	.cfi_endproc
                                        # -- End function
	.p2align	4, 0x90         # -- Begin function bRfData_Binary_get
	.type	bRfData_Binary_get,@function
bRfData_Binary_get:                     # @bRfData_Binary_get
	.cfi_startproc
# %bb.0:
	pushq	%rbp
	.cfi_def_cfa_offset 16
	pushq	%r15
	.cfi_def_cfa_offset 24
	pushq	%r14
	.cfi_def_cfa_offset 32
	pushq	%r13
	.cfi_def_cfa_offset 40
	pushq	%r12
	.cfi_def_cfa_offset 48
	pushq	%rbx
	.cfi_def_cfa_offset 56
	subq	$104, %rsp
	.cfi_def_cfa_offset 160
	.cfi_offset %rbx, -56
	.cfi_offset %r12, -48
	.cfi_offset %r13, -40
	.cfi_offset %r14, -32
	.cfi_offset %r15, -24
	.cfi_offset %rbp, -16
	movq	%rdx, %rbx
	movq	%rdi, %r14
	movq	%rsi, %rax
	testb	$2, %sil
	jne	.LBB51_2
# %bb.1:
	movq	(%rsi), %rax
.LBB51_2:
	shrq	$16, %rax
	addq	$-79, %rax
	cmpq	$11, %rax
	ja	.LBB51_52
# %bb.3:
	jmpq	*.LJTI51_0(,%rax,8)
.LBB51_38:
	movq	%rbx, (%r14)
	leaq	8(%r14), %rbp
	movq	%rbp, %rdi
	movq	%rcx, %rsi
	callq	eval
	movq	(%rax), %rcx
	movl	$5898242, %esi          # imm = 0x5A0002
	movq	%rbp, %rdi
	movq	%rbx, %rdx
	callq	fW$__fData_Binary_getStorable
	movq	%rax, %rcx
	testb	$2, %al
	jne	.LBB51_40
# %bb.39:
	movq	(%rax), %rcx
.LBB51_40:
	cmpq	$65535, %rcx            # imm = 0xFFFF
	jbe	.LBB51_13
# %bb.41:
	movq	8(%rax), %rsi
	movq	%rbp, %rdi
	callq	eval
	movq	(%rax), %rbx
	movq	8(%rax), %r15
	movq	16(%rax), %r13
	movq	%r13, (%rsp)
	movq	%rbx, 8(%rsp)
	movq	%r15, 16(%rsp)
	movq	%r15, 16(%rbp)
	movaps	(%rsp), %xmm0
	movups	%xmm0, (%rbp)
	leaq	32(%r14), %rbp
	movq	%rbp, %rdi
	movq	%rbx, %rsi
	callq	eval
	movl	%eax, %ecx
	andl	$1020, %ecx             # imm = 0x3FC
	cmpq	$1020, %rcx             # imm = 0x3FC
	jne	.LBB51_43
# %bb.42:
	movq	cCJhc_Prim_Prim_$LccR(%rip), %rsi
	movq	%rbp, %rdi
	callq	s_alloc
	movq	%rax, %rbx
	movq	$131074, (%rbx)         # imm = 0x20002
	movq	%r15, 8(%rbx)
	movq	%r13, 16(%rbx)
	movq	%rbx, 32(%r14)
	addq	$40, %r14
	movq	cCJhc_Type_Basic_Right(%rip), %rsi
	movq	%r14, %rdi
	callq	s_alloc
	movq	$65538, (%rax)          # imm = 0x10002
	movq	%rbx, 8(%rax)
	jmp	.LBB51_51
.LBB51_33:
	movq	%rbx, (%r14)
	leaq	8(%r14), %rbp
	movq	%rbp, %rdi
	movq	%rcx, %rsi
	callq	eval
	movq	(%rax), %rcx
	movl	$5898242, %esi          # imm = 0x5A0002
	movq	%rbp, %rdi
	movq	%rbx, %rdx
	callq	fW$__fData_Binary_getStorable
	movq	%r14, %rdi
	movq	%rax, %rsi
	callq	eval
	movq	%rax, %rcx
	testb	$2, %al
	jne	.LBB51_35
# %bb.34:
	movq	(%rax), %rcx
.LBB51_35:
	cmpq	$65535, %rcx            # imm = 0xFFFF
	ja	.LBB51_37
# %bb.36:
	movq	8(%rax), %rbx
	movq	%rbx, (%r14)
	movq	cCJhc_Type_Basic_Left(%rip), %rsi
	movq	%rbp, %rdi
	jmp	.LBB51_9
.LBB51_17:
	movq	8(%rsi), %rax
	movq	%rax, 56(%rsp)          # 8-byte Spill
	movq	%rax, (%r14)
	leaq	8(%r14), %rbp
	movl	$5832706, %esi          # imm = 0x590002
	movq	%rbp, %rdi
	movq	%rbx, %rdx
	callq	bRfData_Binary_get
	movq	%rbp, %rdi
	movq	%rax, %rsi
	callq	eval
	movq	%rax, %rcx
	testb	$2, %al
	jne	.LBB51_19
# %bb.18:
	movq	(%rax), %rcx
.LBB51_19:
	cmpq	$65535, %rcx            # imm = 0xFFFF
	jbe	.LBB51_13
# %bb.20:
	movq	8(%rax), %rsi
	movq	%rbp, %rdi
	callq	eval
	movq	(%rax), %rsi
	movq	8(%rax), %r12
	movq	16(%rax), %r15
	movq	%r12, 80(%rsp)
	movq	%r15, 88(%rsp)
	movaps	80(%rsp), %xmm0
	movups	%xmm0, (%rbp)
	leaq	24(%r14), %rdi
	movq	%rdi, 40(%rsp)          # 8-byte Spill
	callq	eval
	movq	(%rax), %rbp
	testq	%rbp, %rbp
	je	.LBB51_21
# %bb.25:
	leaq	32(%r14), %r13
	leaq	56(%r14), %rax
	movq	%rax, 32(%rsp)          # 8-byte Spill
	movq	%r14, 24(%rsp)          # 8-byte Spill
	leaq	64(%r14), %rax
	movq	%rax, 48(%rsp)          # 8-byte Spill
	movl	$65538, %r14d           # imm = 0x10002
	.p2align	4, 0x90
.LBB51_26:                              # =>This Inner Loop Header: Depth=1
	movq	40(%rsp), %rax          # 8-byte Reload
	movq	%r14, (%rax)
	movq	%r13, %rdi
	movq	56(%rsp), %rsi          # 8-byte Reload
	movq	%r12, %rdx
	movq	%r15, %rcx
	callq	bRfData_Binary_get
	movq	%r13, %rdi
	movq	%rax, %rsi
	callq	eval
	movq	%rax, %rcx
	testb	$2, %al
	jne	.LBB51_28
# %bb.27:                               #   in Loop: Header=BB51_26 Depth=1
	movq	(%rax), %rcx
.LBB51_28:                              #   in Loop: Header=BB51_26 Depth=1
	cmpq	$65535, %rcx            # imm = 0xFFFF
	jbe	.LBB51_29
# %bb.22:                               #   in Loop: Header=BB51_26 Depth=1
	movq	8(%rax), %rsi
	movq	%r13, %rdi
	callq	eval
	movq	(%rax), %rbx
	movq	8(%rax), %rcx
	movq	%rcx, 72(%rsp)          # 8-byte Spill
	movq	16(%rax), %r15
	movq	%rcx, (%rsp)
	movq	%rbx, 8(%rsp)
	movq	%r15, 16(%rsp)
	movq	%r15, 16(%r13)
	movaps	(%rsp), %xmm0
	movups	%xmm0, (%r13)
	movq	cCJhc_Prim_Prim_$x3a(%rip), %rsi
	movq	%r14, 64(%rsp)          # 8-byte Spill
	movq	32(%rsp), %r14          # 8-byte Reload
	movq	%r14, %rdi
	callq	s_alloc
	movq	%rax, %r12
	movq	%rbx, (%r12)
	movq	$65538, 8(%r12)         # imm = 0x10002
	movq	%r12, (%r14)
	movq	cFJhc_Basics_$pp(%rip), %rsi
	movq	48(%rsp), %rdi          # 8-byte Reload
	callq	s_alloc
	movq	$E__fJhc_Basics_$pp+3, (%rax)
	movq	$2, 8(%rax)
	movq	64(%rsp), %rcx          # 8-byte Reload
	movq	%rcx, 16(%rax)
	movq	%r12, 24(%rax)
	movq	72(%rsp), %r12          # 8-byte Reload
	movq	%rax, %rbx
	orq	$1, %rbx
	movq	%rbx, %r14
	addq	$-1, %rbp
	jne	.LBB51_26
# %bb.23:
	movq	24(%rsp), %r14          # 8-byte Reload
	movq	32(%rsp), %r13          # 8-byte Reload
	jmp	.LBB51_24
.LBB51_4:
	movl	$_c1, %esi
	movq	%r14, %rdi
	movq	%rbx, %rdx
	callq	bRfData_Binary_get
	movq	%r14, %rdi
	movq	%rax, %rsi
	callq	eval
	movq	%rax, %rcx
	testb	$2, %al
	jne	.LBB51_6
# %bb.5:
	movq	(%rax), %rcx
.LBB51_6:
	cmpq	$65535, %rcx            # imm = 0xFFFF
	ja	.LBB51_10
# %bb.7:
	movq	8(%rax), %rbx
	movq	%rbx, (%r14)
	addq	$8, %r14
	jmp	.LBB51_8
.LBB51_30:
	movq	%rbx, (%r14)
	addq	$8, %r14
	movq	%r14, %rdi
	movq	%rcx, %rsi
	callq	eval
	movq	(%rax), %rcx
	movl	$5898242, %esi          # imm = 0x5A0002
	jmp	.LBB51_31
.LBB51_32:
	movq	%rbx, (%r14)
	addq	$8, %r14
	movq	%r14, %rdi
	movq	%rcx, %rsi
	callq	eval
	movq	(%rax), %rcx
	movl	$5832706, %esi          # imm = 0x590002
.LBB51_31:
	movq	%r14, %rdi
	movq	%rbx, %rdx
	addq	$104, %rsp
	popq	%rbx
	popq	%r12
	popq	%r13
	popq	%r14
	popq	%r15
	popq	%rbp
	jmp	fW$__fData_Binary_getStorable # TAILCALL
.LBB51_37:
	movq	8(%rax), %rsi
	movq	%r14, %rdi
	callq	eval
	movq	(%rax), %rbp
	movq	8(%rax), %r12
	movq	16(%rax), %r15
	movq	%r15, (%rsp)
	movq	%rbp, 8(%rsp)
	movq	%r12, 16(%rsp)
	movq	%r12, 16(%r14)
	movaps	(%rsp), %xmm0
	movups	%xmm0, (%r14)
	leaq	24(%r14), %rdi
	movq	cFData_Binary_get$d2(%rip), %rsi
	callq	s_alloc
	movq	%rax, %rbx
	movq	$E__fData_Binary_get$d2+3, (%rbx)
	movq	%rbp, 8(%rbx)
	orq	$1, %rbx
	movq	%rbx, 24(%r14)
	leaq	32(%r14), %rdi
	movq	cCJhc_Prim_Prim_$LccR(%rip), %rsi
	callq	s_alloc
	movq	%rax, %rbp
	movq	%rbx, (%rbp)
	movq	%r12, 8(%rbp)
	movq	%r15, 16(%rbp)
	movq	%rbp, 32(%r14)
	addq	$40, %r14
	jmp	.LBB51_15
.LBB51_10:
	movq	8(%rax), %rsi
	movq	%r14, %rdi
	callq	eval
	movq	(%rax), %r13
	movq	8(%rax), %rdx
	movq	16(%rax), %rcx
	movq	%r13, (%r14)
	leaq	8(%r14), %rbx
	movl	$_c1, %esi
	movq	%rbx, %rdi
	callq	bRfData_Binary_get
	movq	%rbx, %rdi
	movq	%rax, %rsi
	callq	eval
	movq	%rax, %rcx
	testb	$2, %al
	jne	.LBB51_12
# %bb.11:
	movq	(%rax), %rcx
.LBB51_12:
	cmpq	$65535, %rcx            # imm = 0xFFFF
	ja	.LBB51_14
.LBB51_13:
	movq	8(%rax), %rbx
	movq	%rbx, 8(%r14)
	addq	$16, %r14
.LBB51_8:
	movq	cCJhc_Type_Basic_Left(%rip), %rsi
	movq	%r14, %rdi
.LBB51_9:
	callq	s_alloc
	movq	$2, (%rax)
	movq	%rbx, 8(%rax)
	jmp	.LBB51_51
.LBB51_43:
	shrq	$2, %rax
	cmpb	$-2, %al
	je	.LBB51_44
# %bb.45:
	testb	%al, %al
	je	.LBB51_48
# %bb.46:
	cmpb	$1, %al
	jne	.LBB51_49
# %bb.47:
	movl	$4849666, %esi          # imm = 0x4A0002
	jmp	.LBB51_50
.LBB51_14:
	movq	8(%rax), %rsi
	movq	%rbx, %rdi
	callq	eval
	movq	(%rax), %rbp
	movq	8(%rax), %r15
	movq	16(%rax), %r12
	movq	%r15, (%rsp)
	movq	%rbp, 8(%rsp)
	movq	%r12, 16(%rsp)
	movq	%r12, 16(%rbx)
	movaps	(%rsp), %xmm0
	movups	%xmm0, (%rbx)
	leaq	32(%r14), %rdi
	movq	cCJhc_Prim_Prim_$LcR(%rip), %rsi
	callq	s_alloc
	movq	%rax, %rbx
	movq	%r13, (%rbx)
	movq	%rbp, 8(%rbx)
	movq	%rbx, 32(%r14)
	leaq	40(%r14), %rdi
	movq	cCJhc_Prim_Prim_$LccR(%rip), %rsi
	callq	s_alloc
	movq	%rax, %rbp
	movq	%rbx, (%rbp)
	movq	%r15, 8(%rbp)
	movq	%r12, 16(%rbp)
	movq	%rbp, 40(%r14)
	addq	$48, %r14
.LBB51_15:
	movq	cCJhc_Type_Basic_Right(%rip), %rsi
	movq	%r14, %rdi
	jmp	.LBB51_16
.LBB51_21:
	leaq	56(%r14), %r13
	movl	$65538, %ebx            # imm = 0x10002
.LBB51_24:
	movq	%r15, (%rsp)
	movq	%rbx, 8(%rsp)
	movq	%r12, 16(%rsp)
	movq	40(%rsp), %rax          # 8-byte Reload
	movq	%r12, 16(%rax)
	movaps	(%rsp), %xmm0
	movups	%xmm0, (%rax)
	leaq	48(%r14), %rdi
	movq	cCJhc_Prim_Prim_$LccR(%rip), %rsi
	callq	s_alloc
	movq	%rax, %rbp
	movq	%rbx, (%rbp)
	movq	%r12, 8(%rbp)
	movq	%r15, 16(%rbp)
	movq	%rbp, 48(%r14)
	movq	cCJhc_Type_Basic_Right(%rip), %rsi
	movq	%r13, %rdi
.LBB51_16:
	callq	s_alloc
	movq	$65538, (%rax)          # imm = 0x10002
	movq	%rbp, 8(%rax)
.LBB51_51:
	addq	$104, %rsp
	popq	%rbx
	popq	%r12
	popq	%r13
	popq	%r14
	popq	%r15
	popq	%rbp
	retq
.LBB51_29:
	movq	8(%rax), %rbx
	movq	24(%rsp), %rdi          # 8-byte Reload
	movq	%rbx, 32(%rdi)
	addq	$40, %rdi
	movq	cCJhc_Type_Basic_Left(%rip), %rsi
	jmp	.LBB51_9
.LBB51_44:
	movl	$4784130, %esi          # imm = 0x490002
	jmp	.LBB51_50
.LBB51_48:
	movl	$4915202, %esi          # imm = 0x4B0002
	jmp	.LBB51_50
.LBB51_49:
	movq	cP1__Data_Binary_get$d6(%rip), %rsi
	movq	%rbp, %rdi
	callq	s_alloc
	movq	%rax, %r12
	movq	$327682, (%r12)         # imm = 0x50002
	movq	%rbx, 8(%r12)
	movq	%r12, 32(%r14)
	addq	$40, %r14
	movq	cP3__Data_Binary_get$d7(%rip), %rsi
	movq	%r14, %rdi
	callq	s_alloc
	movq	%rax, %rsi
	movq	$4980738, (%rsi)        # imm = 0x4C0002
	movq	%r12, 8(%rsi)
.LBB51_50:
	movq	%rbp, %rdi
	movq	%r15, %rdx
	callq	bapply__87809
	movq	%rbp, %rdi
	movq	%rax, %rsi
	movq	%r13, %rdx
	callq	bapply__87809
	movq	%rbp, %rdi
	movq	%rax, %rsi
	callq	bapply__87810
	jmp	.LBB51_51
.LBB51_52:
	movl	$8156, %edi             # imm = 0x1FDC
	callq	jhc_case_fell_off
.Lfunc_end51:
	.size	bRfData_Binary_get, .Lfunc_end51-bRfData_Binary_get
	.cfi_endproc
	.section	.rodata,"a",@progbits
	.p2align	3
.LJTI51_0:
	.quad	.LBB51_38
	.quad	.LBB51_52
	.quad	.LBB51_17
	.quad	.LBB51_4
	.quad	.LBB51_52
	.quad	.LBB51_33
	.quad	.LBB51_52
	.quad	.LBB51_52
	.quad	.LBB51_52
	.quad	.LBB51_52
	.quad	.LBB51_32
	.quad	.LBB51_30
                                        # -- End function
	.text
	.p2align	4, 0x90         # -- Begin function fW$__fData_Binary_getStorable
	.type	fW$__fData_Binary_getStorable,@function
fW$__fData_Binary_getStorable:          # @"fW$__fData_Binary_getStorable"
	.cfi_startproc
# %bb.0:
	pushq	%rbp
	.cfi_def_cfa_offset 16
	pushq	%r15
	.cfi_def_cfa_offset 24
	pushq	%r14
	.cfi_def_cfa_offset 32
	pushq	%r13
	.cfi_def_cfa_offset 40
	pushq	%r12
	.cfi_def_cfa_offset 48
	pushq	%rbx
	.cfi_def_cfa_offset 56
	pushq	%rax
	.cfi_def_cfa_offset 64
	.cfi_offset %rbx, -56
	.cfi_offset %r12, -48
	.cfi_offset %r13, -40
	.cfi_offset %r14, -32
	.cfi_offset %r15, -24
	.cfi_offset %rbp, -16
	movq	%rcx, %r14
	movq	%rdx, %r12
	movq	%rsi, %rbx
	movq	%rdi, %r15
	movq	%rbx, %rax
	testb	$2, %bl
	jne	.LBB52_2
# %bb.1:
	movq	(%rbx), %rax
.LBB52_2:
	shrq	$16, %rax
	addq	$-77, %rax
	cmpq	$13, %rax
	ja	.LBB52_66
# %bb.3:
	jmpq	*.LJTI52_0(,%rax,8)
.LBB52_4:
	cmpq	$11, %r14
	jb	.LBB52_38
# %bb.5:
	movl	$1, %edi
	callq	assert
	movq	%rbx, (%r15)
	leaq	8(%r15), %r13
	movq	%r13, %rdi
	movq	%r12, %rsi
	callq	eval
	movq	(%rax), %rbp
	testb	$2, %bl
	jne	.LBB52_7
# %bb.6:
	movq	(%rbx), %rbx
.LBB52_7:
	shrq	$16, %rbx
	addq	$-87, %rbx
	cmpq	$3, %rbx
	ja	.LBB52_67
# %bb.8:
	jmpq	*.LJTI52_1(,%rbx,8)
.LBB52_9:
	movzwl	(%rbp), %eax
	jmp	.LBB52_56
.LBB52_10:
	cmpq	$8, %r14
	jb	.LBB52_38
# %bb.11:
	movl	$1, %edi
	callq	assert
	movq	%rbx, (%r15)
	leaq	8(%r15), %r13
	movq	%r13, %rdi
	movq	%r12, %rsi
	callq	eval
	movq	(%rax), %rbp
	testb	$2, %bl
	jne	.LBB52_13
# %bb.12:
	movq	(%rbx), %rbx
.LBB52_13:
	shrq	$16, %rbx
	addq	$-87, %rbx
	cmpq	$3, %rbx
	ja	.LBB52_67
# %bb.14:
	jmpq	*.LJTI52_2(,%rbx,8)
.LBB52_15:
	movzwl	(%rbp), %eax
	jmp	.LBB52_48
.LBB52_16:
	cmpq	$2, %r14
	jb	.LBB52_38
# %bb.17:
	movl	$1, %edi
	callq	assert
	movq	%rbx, (%r15)
	leaq	8(%r15), %r13
	movq	%r13, %rdi
	movq	%r12, %rsi
	callq	eval
	movq	(%rax), %rbp
	testb	$2, %bl
	jne	.LBB52_19
# %bb.18:
	movq	(%rbx), %rbx
.LBB52_19:
	shrq	$16, %rbx
	addq	$-87, %rbx
	cmpq	$3, %rbx
	ja	.LBB52_67
# %bb.20:
	jmpq	*.LJTI52_4(,%rbx,8)
.LBB52_21:
	movzwl	(%rbp), %eax
	jmp	.LBB52_52
.LBB52_22:
	cmpq	$4, %r14
	jb	.LBB52_38
# %bb.23:
	movl	$1, %edi
	callq	assert
	movq	%rbx, (%r15)
	leaq	8(%r15), %r13
	movq	%r13, %rdi
	movq	%r12, %rsi
	callq	eval
	movq	(%rax), %rbp
	testb	$2, %bl
	jne	.LBB52_25
# %bb.24:
	movq	(%rbx), %rbx
.LBB52_25:
	shrq	$16, %rbx
	addq	$-87, %rbx
	cmpq	$3, %rbx
	ja	.LBB52_67
# %bb.26:
	jmpq	*.LJTI52_3(,%rbx,8)
.LBB52_27:
	movzwl	(%rbp), %eax
	jmp	.LBB52_62
.LBB52_28:
	testq	%r14, %r14
	je	.LBB52_38
# %bb.29:
	movl	$1, %edi
	callq	assert
	movq	%rbx, (%r15)
	leaq	8(%r15), %r13
	movq	%r13, %rdi
	movq	%r12, %rsi
	callq	eval
	movq	(%rax), %rbp
	testb	$2, %bl
	jne	.LBB52_31
# %bb.30:
	movq	(%rbx), %rbx
.LBB52_31:
	shrq	$16, %rbx
	addq	$-87, %rbx
	cmpq	$3, %rbx
	ja	.LBB52_67
# %bb.32:
	jmpq	*.LJTI52_5(,%rbx,8)
.LBB52_33:
	movzwl	(%rbp), %eax
	jmp	.LBB52_42
.LBB52_38:
	movl	$_c49, %eax
	jmp	.LBB52_65
.LBB52_39:
	movq	(%rbp), %rbx
	movq	cCJhc_Type_Word_Word64(%rip), %rsi
	movq	%r13, %rdi
	callq	s_alloc
	movq	%rax, %r12
	movq	%rbx, (%r12)
	jmp	.LBB52_43
.LBB52_40:
	movl	(%rbp), %ebx
	movq	cCJhc_Type_Word_Word32(%rip), %rsi
	movq	%r13, %rdi
	callq	s_alloc
	movq	%rax, %r12
	movl	%ebx, (%r12)
	jmp	.LBB52_43
.LBB52_41:
	movzbl	(%rbp), %eax
.LBB52_42:
	leaq	2(,%rax,4), %r12
.LBB52_43:
	movq	%r12, 8(%r15)
	leaq	16(%r15), %rdi
	addq	$1, %rbp
	movq	cCJhc_Type_Ptr_Ptr(%rip), %rsi
	callq	s_alloc
	movq	%rax, %r13
	movq	%rbp, (%r13)
	movq	%r13, 16(%r15)
	leaq	24(%r15), %rdi
	addq	$-1, %r14
	movq	cCJhc_Type_Word_Word64(%rip), %rsi
	callq	s_alloc
	movq	%rax, %rbp
	movq	%r14, (%rbp)
	movq	%rbp, 24(%r15)
	leaq	32(%r15), %rdi
	movq	cCJhc_Prim_Prim_$LccR(%rip), %rsi
	callq	s_alloc
	movq	%rax, %rbx
	movq	%r12, (%rbx)
	movq	%r13, 8(%rbx)
	movq	%rbp, 16(%rbx)
	movq	%rbx, 32(%r15)
	addq	$40, %r15
	movq	cCJhc_Type_Basic_Right(%rip), %rsi
	movq	%r15, %rdi
	callq	s_alloc
	movq	$65538, (%rax)          # imm = 0x10002
	movq	%rbx, 8(%rax)
	jmp	.LBB52_65
.LBB52_44:
	movq	(%rbp), %rbx
	movq	cCJhc_Type_Word_Word64(%rip), %rsi
	movq	%r13, %rdi
	callq	s_alloc
	movq	%rax, %r12
	movq	%rbx, (%r12)
	jmp	.LBB52_57
.LBB52_45:
	movl	(%rbp), %ebx
	movq	cCJhc_Type_Word_Word32(%rip), %rsi
	movq	%r13, %rdi
	callq	s_alloc
	movq	%rax, %r12
	movl	%ebx, (%r12)
	jmp	.LBB52_49
.LBB52_46:
	movq	(%rbp), %rbx
	movq	cCJhc_Type_Word_Word64(%rip), %rsi
	movq	%r13, %rdi
	callq	s_alloc
	movq	%rax, %r12
	movq	%rbx, (%r12)
	jmp	.LBB52_49
.LBB52_47:
	movzbl	(%rbp), %eax
.LBB52_48:
	leaq	2(,%rax,4), %r12
.LBB52_49:
	movq	%r12, 8(%r15)
	leaq	16(%r15), %rdi
	addq	$8, %rbp
	movq	cCJhc_Type_Ptr_Ptr(%rip), %rsi
	callq	s_alloc
	movq	%rax, %r13
	movq	%rbp, (%r13)
	movq	%r13, 16(%r15)
	leaq	24(%r15), %rdi
	addq	$-8, %r14
	jmp	.LBB52_64
.LBB52_50:
	movq	(%rbp), %rbx
	movq	cCJhc_Type_Word_Word64(%rip), %rsi
	movq	%r13, %rdi
	callq	s_alloc
	movq	%rax, %r12
	movq	%rbx, (%r12)
	jmp	.LBB52_59
.LBB52_51:
	movzbl	(%rbp), %eax
.LBB52_52:
	leaq	2(,%rax,4), %r12
	jmp	.LBB52_59
.LBB52_53:
	movq	(%rbp), %rbx
	movq	cCJhc_Type_Word_Word64(%rip), %rsi
	movq	%r13, %rdi
	callq	s_alloc
	movq	%rax, %r12
	movq	%rbx, (%r12)
	jmp	.LBB52_63
.LBB52_54:
	movl	(%rbp), %ebx
	movq	cCJhc_Type_Word_Word32(%rip), %rsi
	movq	%r13, %rdi
	callq	s_alloc
	movq	%rax, %r12
	movl	%ebx, (%r12)
	jmp	.LBB52_57
.LBB52_55:
	movzbl	(%rbp), %eax
.LBB52_56:
	leaq	2(,%rax,4), %r12
.LBB52_57:
	movq	%r12, 8(%r15)
	leaq	16(%r15), %rdi
	addq	$11, %rbp
	movq	cCJhc_Type_Ptr_Ptr(%rip), %rsi
	callq	s_alloc
	movq	%rax, %r13
	movq	%rbp, (%r13)
	movq	%r13, 16(%r15)
	leaq	24(%r15), %rdi
	addq	$-11, %r14
	jmp	.LBB52_64
.LBB52_58:
	movl	(%rbp), %ebx
	movq	cCJhc_Type_Word_Word32(%rip), %rsi
	movq	%r13, %rdi
	callq	s_alloc
	movq	%rax, %r12
	movl	%ebx, (%r12)
.LBB52_59:
	movq	%r12, 8(%r15)
	leaq	16(%r15), %rdi
	addq	$2, %rbp
	movq	cCJhc_Type_Ptr_Ptr(%rip), %rsi
	callq	s_alloc
	movq	%rax, %r13
	movq	%rbp, (%r13)
	movq	%r13, 16(%r15)
	leaq	24(%r15), %rdi
	addq	$-2, %r14
	jmp	.LBB52_64
.LBB52_60:
	movl	(%rbp), %ebx
	movq	cCJhc_Type_Word_Word32(%rip), %rsi
	movq	%r13, %rdi
	callq	s_alloc
	movq	%rax, %r12
	movl	%ebx, (%r12)
	jmp	.LBB52_63
.LBB52_61:
	movzbl	(%rbp), %eax
.LBB52_62:
	leaq	2(,%rax,4), %r12
.LBB52_63:
	movq	%r12, 8(%r15)
	leaq	16(%r15), %rdi
	addq	$4, %rbp
	movq	cCJhc_Type_Ptr_Ptr(%rip), %rsi
	callq	s_alloc
	movq	%rax, %r13
	movq	%rbp, (%r13)
	movq	%r13, 16(%r15)
	leaq	24(%r15), %rdi
	addq	$-4, %r14
.LBB52_64:
	movq	cCJhc_Type_Word_Word64(%rip), %rsi
	callq	s_alloc
	movq	%rax, %rbx
	movq	%r14, (%rbx)
	movq	%rbx, 24(%r15)
	leaq	32(%r15), %rdi
	movq	cCJhc_Prim_Prim_$LccR(%rip), %rsi
	callq	s_alloc
	movq	%rax, %rbp
	movq	%r12, (%rbp)
	movq	%r13, 8(%rbp)
	movq	%rbx, 16(%rbp)
	movq	%rbp, 32(%r15)
	addq	$40, %r15
	movq	cCJhc_Type_Basic_Right(%rip), %rsi
	movq	%r15, %rdi
	callq	s_alloc
	movq	$65538, (%rax)          # imm = 0x10002
	movq	%rbp, 8(%rax)
.LBB52_65:
	addq	$8, %rsp
	popq	%rbx
	popq	%r12
	popq	%r13
	popq	%r14
	popq	%r15
	popq	%rbp
	retq
.LBB52_66:
	movl	$13846, %edi            # imm = 0x3616
	callq	jhc_case_fell_off
.LBB52_67:
	movl	$14428, %edi            # imm = 0x385C
	callq	jhc_case_fell_off
.Lfunc_end52:
	.size	fW$__fData_Binary_getStorable, .Lfunc_end52-fW$__fData_Binary_getStorable
	.cfi_endproc
	.section	.rodata,"a",@progbits
	.p2align	3
.LJTI52_0:
	.quad	.LBB52_4
	.quad	.LBB52_66
	.quad	.LBB52_66
	.quad	.LBB52_66
	.quad	.LBB52_66
	.quad	.LBB52_66
	.quad	.LBB52_66
	.quad	.LBB52_66
	.quad	.LBB52_66
	.quad	.LBB52_66
	.quad	.LBB52_16
	.quad	.LBB52_22
	.quad	.LBB52_10
	.quad	.LBB52_28
.LJTI52_1:
	.quad	.LBB52_9
	.quad	.LBB52_54
	.quad	.LBB52_44
	.quad	.LBB52_55
.LJTI52_2:
	.quad	.LBB52_15
	.quad	.LBB52_45
	.quad	.LBB52_46
	.quad	.LBB52_47
.LJTI52_3:
	.quad	.LBB52_27
	.quad	.LBB52_60
	.quad	.LBB52_53
	.quad	.LBB52_61
.LJTI52_4:
	.quad	.LBB52_21
	.quad	.LBB52_58
	.quad	.LBB52_50
	.quad	.LBB52_51
.LJTI52_5:
	.quad	.LBB52_33
	.quad	.LBB52_40
	.quad	.LBB52_39
	.quad	.LBB52_41
                                        # -- End function
	.text
	.p2align	4, 0x90         # -- Begin function E__fData_Binary_get$d2
	.type	E__fData_Binary_get$d2,@function
E__fData_Binary_get$d2:                 # @"E__fData_Binary_get$d2"
	.cfi_startproc
# %bb.0:
	pushq	%rbx
	.cfi_def_cfa_offset 16
	.cfi_offset %rbx, -16
	movq	%rsi, %rbx
	movq	%rbx, %rax
	orq	$1, %rax
	movq	%rax, (%rdi)
	addq	$8, %rdi
	movq	8(%rbx), %rsi
	callq	eval
	andl	$1020, %eax             # imm = 0x3FC
	orq	$2, %rax
	movq	%rax, (%rbx)
	popq	%rbx
	retq
.Lfunc_end53:
	.size	E__fData_Binary_get$d2, .Lfunc_end53-E__fData_Binary_get$d2
	.cfi_endproc
                                        # -- End function
	.p2align	4, 0x90         # -- Begin function bapply__87809
	.type	bapply__87809,@function
bapply__87809:                          # @bapply__87809
	.cfi_startproc
# %bb.0:
	pushq	%r15
	.cfi_def_cfa_offset 16
	pushq	%r14
	.cfi_def_cfa_offset 24
	pushq	%r13
	.cfi_def_cfa_offset 32
	pushq	%r12
	.cfi_def_cfa_offset 40
	pushq	%rbx
	.cfi_def_cfa_offset 48
	subq	$64, %rsp
	.cfi_def_cfa_offset 112
	.cfi_offset %rbx, -48
	.cfi_offset %r12, -40
	.cfi_offset %r13, -32
	.cfi_offset %r14, -24
	.cfi_offset %r15, -16
	movq	%rdx, %r14
	movq	%rdi, %rbx
	movq	%rsi, %rax
	testb	$2, %sil
	jne	.LBB54_2
# %bb.1:
	movq	(%rsi), %rax
.LBB54_2:
	shrq	$16, %rax
	addq	$-7, %rax
	cmpq	$69, %rax
	ja	.LBB54_83
# %bb.3:
	jmpq	*.LJTI54_0(,%rax,8)
.LBB54_4:
	movq	%rbx, %rdi
	movq	%r14, %rsi
	callq	eval
	movq	%rax, %rbx
	shrq	$7, %rbx
	andl	$4, %ebx
	xorq	$6, %rbx
	jmp	.LBB54_77
.LBB54_39:
	movq	%rbx, %rdi
	movq	%r14, %rsi
	callq	eval
	movq	%rax, %rbx
	shrq	$2, %rbx
	cmpl	$64, %ebx
	jbe	.LBB54_40
# %bb.46:
	movl	$1, %edi
	callq	assert
	cmpl	$91, %ebx
	setb	%bl
	movl	$1, %edi
	callq	assert
	jmp	.LBB54_67
.LBB54_5:
	movq	%rbx, %rdi
	movq	%r14, %rsi
	callq	eval
	movq	%rax, %rbx
	shrq	$3, %rbx
	andl	$4, %ebx
.LBB54_6:
	orq	$2, %rbx
	jmp	.LBB54_77
.LBB54_40:
	cmpl	$48, %ebx
	jb	.LBB54_41
# %bb.66:
	movl	$1, %edi
	callq	assert
	cmpl	$58, %ebx
	setb	%bl
	jmp	.LBB54_67
.LBB54_7:
	movq	8(%rsi), %r15
	movq	16(%rsi), %r12
	movq	24(%rsi), %r13
	movq	%r14, 16(%rsp)
	movq	%r15, 24(%rsp)
	movq	%r12, 32(%rsp)
	movq	%r12, 16(%rbx)
	movaps	16(%rsp), %xmm0
	movups	%xmm0, (%rbx)
	addq	$24, %rbx
	movq	cP1__W$__fInstance$__iData_Monoid_mappend_Data_Binary_Builder$d2(%rip), %rsi
	movq	%rbx, %rdi
	callq	s_alloc
	movq	%rax, %rbx
	movq	$2490370, (%rbx)        # imm = 0x260002
	movq	%r15, 8(%rbx)
	movq	%r12, 16(%rbx)
	movq	%r13, 32(%rbx)
	movq	%r14, 24(%rbx)
	jmp	.LBB54_77
.LBB54_8:
	movq	8(%rsi), %r15
	movq	%r14, 16(%rsp)
	movq	%r15, 24(%rsp)
	movaps	16(%rsp), %xmm0
	movups	%xmm0, (%rbx)
	addq	$16, %rbx
	movq	cP1__W$__fData_Binary_storableB$d11(%rip), %rsi
	movq	%rbx, %rdi
	callq	s_alloc
	movq	%rax, %rbx
	movq	$1835010, (%rbx)        # imm = 0x1C0002
	jmp	.LBB54_60
.LBB54_9:
	movq	8(%rsi), %r15
	movq	%r14, 16(%rsp)
	movq	%r15, 24(%rsp)
	movaps	16(%rsp), %xmm0
	movups	%xmm0, (%rbx)
	addq	$16, %rbx
	movq	cP2__Data_Binary_get$d7(%rip), %rsi
	movq	%rbx, %rdi
	callq	s_alloc
	movq	%rax, %rbx
	movq	$3670018, (%rbx)        # imm = 0x380002
	jmp	.LBB54_60
.LBB54_10:
	movq	24(%rsi), %r15
	movq	8(%rsi), %r12
	movq	16(%rsi), %r13
	movq	%r14, 16(%rsp)
	movq	%r12, 24(%rsp)
	movq	%r13, 32(%rsp)
	movq	%r13, 16(%rbx)
	movaps	16(%rsp), %xmm0
	movups	%xmm0, (%rbx)
	addq	$24, %rbx
	movq	cP1__W$__fData_Binary_put$d6(%rip), %rsi
	movq	%rbx, %rdi
	callq	s_alloc
	movq	%rax, %rbx
	movq	$1638402, (%rbx)        # imm = 0x190002
	jmp	.LBB54_51
.LBB54_11:
	movq	8(%rsi), %r15
	movq	16(%rsi), %r12
	movq	24(%rsi), %r13
	movaps	32(%rsi), %xmm0
	movaps	%xmm0, 48(%rsp)         # 16-byte Spill
	movq	%r14, 16(%rsp)
	movq	%r15, 24(%rsp)
	movq	%r12, 32(%rsp)
	movq	%r13, 40(%rsp)
	movaps	32(%rsp), %xmm0
	movups	%xmm0, 16(%rbx)
	movaps	16(%rsp), %xmm0
	movups	%xmm0, (%rbx)
	addq	$32, %rbx
	movq	cP1__W$__fData_Binary_put$d8(%rip), %rsi
	movq	%rbx, %rdi
	callq	s_alloc
	movq	%rax, %rbx
	movq	$1703938, (%rbx)        # imm = 0x1A0002
	movq	%r15, 8(%rbx)
	movq	%r12, 16(%rbx)
	movq	%r13, 24(%rbx)
	movaps	48(%rsp), %xmm0         # 16-byte Reload
	movups	%xmm0, 40(%rbx)
	movq	%r14, 32(%rbx)
	jmp	.LBB54_77
.LBB54_12:
	movq	%rbx, %rdi
	movq	%r14, %rsi
	callq	eval
	shrq	$2, %rax
	xorl	%ecx, %ecx
	cmpl	$58, %eax
	setne	%cl
	leaq	2(,%rcx,4), %rbx
	jmp	.LBB54_77
.LBB54_13:
	movq	24(%rsi), %r15
	movq	8(%rsi), %r12
	movq	16(%rsi), %r13
	movq	%r14, 16(%rsp)
	movq	%r12, 24(%rsp)
	movq	%r13, 32(%rsp)
	movq	%r13, 16(%rbx)
	movaps	16(%rsp), %xmm0
	movups	%xmm0, (%rbx)
	addq	$24, %rbx
	movq	cP1__W$__fData_Binary_put$d4(%rip), %rsi
	movq	%rbx, %rdi
	callq	s_alloc
	movq	%rax, %rbx
	movq	$1572866, (%rbx)        # imm = 0x180002
	movq	%r15, 32(%rbx)
	movq	%r12, 8(%rbx)
	jmp	.LBB54_52
.LBB54_14:
	movq	%r14, (%rbx)
	addq	$8, %rbx
	movq	cP2__Data_Binary_get$d3(%rip), %rsi
	movq	%rbx, %rdi
	callq	s_alloc
	movq	%rax, %rbx
	movq	$3473410, (%rbx)        # imm = 0x350002
	movq	%r14, 8(%rbx)
	jmp	.LBB54_77
.LBB54_15:
	movq	24(%rsi), %r15
	movq	8(%rsi), %r12
	movq	16(%rsi), %r13
	movq	%r14, 16(%rsp)
	movq	%r13, 24(%rsp)
	movq	%r12, 32(%rsp)
	movq	%r12, 16(%rbx)
	movaps	16(%rsp), %xmm0
	movups	%xmm0, (%rbx)
	addq	$24, %rbx
	movq	cP1__W$__fData_Binary_put$d2(%rip), %rsi
	movq	%rbx, %rdi
	callq	s_alloc
	movq	%rax, %rbx
	movq	$1507330, (%rbx)        # imm = 0x170002
	jmp	.LBB54_51
.LBB54_16:
	movq	%rbx, %rdi
	movq	%r14, %rsi
	callq	eval
	movq	%rax, %rbx
	shrq	$2, %rbx
	cmpl	$48, %ebx
	jb	.LBB54_82
# %bb.17:
	movl	$1, %edi
	callq	assert
	xorl	%eax, %eax
	cmpl	$58, %ebx
	jmp	.LBB54_55
.LBB54_18:
	movq	8(%rsi), %r15
	movq	%r14, 16(%rsp)
	movq	%r15, 24(%rsp)
	movaps	16(%rsp), %xmm0
	movups	%xmm0, (%rbx)
	addq	$16, %rbx
	movq	cP1__W$__fData_Binary_storableB$d7(%rip), %rsi
	movq	%rbx, %rdi
	callq	s_alloc
	movq	%rax, %rbx
	movq	$2228226, (%rbx)        # imm = 0x220002
	jmp	.LBB54_60
.LBB54_20:
	movq	8(%rsi), %rsi
	movq	%rbx, %rdi
	movq	%r14, %rdx
	addq	$64, %rsp
	popq	%rbx
	popq	%r12
	popq	%r13
	popq	%r14
	popq	%r15
	jmp	fPrelude_Text_read$d2   # TAILCALL
.LBB54_21:
	movq	8(%rsi), %rsi
	movq	%rbx, %rdi
	movq	%r14, %rdx
	addq	$64, %rsp
	popq	%rbx
	popq	%r12
	popq	%r13
	popq	%r14
	popq	%r15
	jmp	fJhc_Text_Read_readDec$d5 # TAILCALL
.LBB54_22:
	movq	%rbx, %rdi
	movq	%r14, %rsi
	callq	eval
	movq	%rax, %r14
	movq	%r14, %r15
	shrq	$2, %r15
	cmpl	$65, %r15d
	jb	.LBB54_63
# %bb.23:
	movl	$1, %edi
	callq	assert
	cmpl	$91, %r15d
	jae	.LBB54_71
# %bb.24:
	movl	$1, %edi
	callq	assert
.LBB54_25:
	movl	$1, %edi
	callq	assert
	jmp	.LBB54_65
.LBB54_26:
	movq	8(%rsi), %r15
	movq	%r14, 16(%rsp)
	movq	%r15, 24(%rsp)
	movaps	16(%rsp), %xmm0
	movups	%xmm0, (%rbx)
	addq	$16, %rbx
	movq	cP1__Data_Binary_get$d5(%rip), %rsi
	movq	%rbx, %rdi
	callq	s_alloc
	movq	%rax, %rbx
	movq	$262146, (%rbx)         # imm = 0x40002
	jmp	.LBB54_60
.LBB54_27:
	movq	%rbx, %rdi
	movq	%r14, %rsi
	callq	eval
	movq	%rax, %rbx
	shrq	$2, %rbx
	cmpl	$48, %ebx
	jb	.LBB54_82
# %bb.28:
	movl	$1, %edi
	callq	assert
	cmpl	$58, %ebx
	jb	.LBB54_65
# %bb.29:
	cmpl	$97, %ebx
	jb	.LBB54_79
# %bb.30:
	movl	$1, %edi
	callq	assert
	xorl	%eax, %eax
	cmpl	$103, %ebx
	setb	%al
	leaq	2(,%rax,4), %rbx
	movl	$1, %edi
	callq	assert
	andl	$262140, %ebx           # imm = 0x3FFFC
	jmp	.LBB54_6
.LBB54_31:
	movq	8(%rsi), %r15
	movq	%r14, 16(%rsp)
	movq	%r15, 24(%rsp)
	movaps	16(%rsp), %xmm0
	movups	%xmm0, (%rbx)
	addq	$16, %rbx
	movq	cP1__W$__fData_Binary_storableB$d9(%rip), %rsi
	movq	%rbx, %rdi
	callq	s_alloc
	movq	%rax, %rbx
	movq	$2359298, (%rbx)        # imm = 0x240002
	jmp	.LBB54_60
.LBB54_32:
	movq	24(%rsi), %rax
	movq	8(%rsi), %rcx
	movq	16(%rsi), %r8
	movzwl	32(%rsi), %r9d
	movzbl	34(%rsi), %edx
	movq	%r14, (%rsp)
	movq	%rbx, %rdi
	movq	%rax, %rsi
	callq	fJhc_Show_showsPrec$d2
	jmp	.LBB54_78
.LBB54_33:
	movq	8(%rsi), %rax
	movq	16(%rsi), %rcx
	movzbl	26(%rsi), %r8d
	movzwl	24(%rsi), %edx
	movq	%rbx, %rdi
	movq	%rax, %rsi
	movq	%r14, %r9
	addq	$64, %rsp
	popq	%rbx
	popq	%r12
	popq	%r13
	popq	%r14
	popq	%r15
	jmp	fJhc_Show_showsPrec$d6  # TAILCALL
.LBB54_34:
	movzwl	12(%rsi), %ecx
	movzwl	10(%rsi), %edx
	movzwl	8(%rsi), %esi
	movq	%rbx, %rdi
	movq	%r14, %r8
	addq	$64, %rsp
	popq	%rbx
	popq	%r12
	popq	%r13
	popq	%r14
	popq	%r15
	jmp	fW$__fInstance$__iJhc_Show_showsPrec_Main_AtaController$d2 # TAILCALL
.LBB54_35:
	movq	8(%rsi), %rsi
	movq	%rbx, %rdi
	movq	%r14, %rdx
	addq	$64, %rsp
	popq	%rbx
	popq	%r12
	popq	%r13
	popq	%r14
	popq	%r15
	jmp	fJhc_Text_Read_lex$d19  # TAILCALL
.LBB54_36:
	movl	$_c76, %edx
	jmp	.LBB54_75
.LBB54_37:
	movq	8(%rsi), %r15
	movq	%r14, 16(%rsp)
	movq	%r15, 24(%rsp)
	movaps	16(%rsp), %xmm0
	movups	%xmm0, (%rbx)
	addq	$16, %rbx
	movq	cP1__Data_Binary_get$d4(%rip), %rsi
	movq	%rbx, %rdi
	callq	s_alloc
	movq	%rax, %rbx
	movq	$196610, (%rbx)         # imm = 0x30002
	jmp	.LBB54_60
.LBB54_38:
	movq	8(%rsi), %r15
	movq	16(%rsi), %r12
	movq	%r14, 16(%rsp)
	movq	%r15, 24(%rsp)
	movq	%r12, 32(%rsp)
	movq	%r12, 16(%rbx)
	movaps	16(%rsp), %xmm0
	movups	%xmm0, (%rbx)
	addq	$24, %rbx
	movq	cP1__Data_Binary_get$d7(%rip), %rsi
	movq	%rbx, %rdi
	callq	s_alloc
	movq	%rax, %rbx
	movq	$393218, (%rbx)         # imm = 0x60002
	movq	%r15, 8(%rbx)
	movq	%r12, 16(%rbx)
	movq	%r14, 24(%rbx)
	jmp	.LBB54_77
.LBB54_41:
	xorl	%ebx, %ebx
.LBB54_67:
	movzbl	%bl, %eax
	jmp	.LBB54_76
.LBB54_42:
	movq	8(%rsi), %rsi
	movq	%rbx, %rdi
	movq	%r14, %rdx
	addq	$64, %rsp
	popq	%rbx
	popq	%r12
	popq	%r13
	popq	%r14
	popq	%r15
	jmp	fJhc_Text_Read_lex$d20  # TAILCALL
.LBB54_44:
	movq	%r14, (%rbx)
	addq	$8, %rbx
	movq	cP2__Data_Binary_get$d4(%rip), %rsi
	movq	%rbx, %rdi
	callq	s_alloc
	movq	%rax, %rbx
	movq	$3538946, (%rbx)        # imm = 0x360002
	movq	%r14, 8(%rbx)
	jmp	.LBB54_77
.LBB54_47:
	movq	%rbx, %rdi
	movq	%r14, %rsi
	callq	eval
	movl	(%rax), %ebx
	cmpl	$10, %ebx
	jae	.LBB54_68
# %bb.48:
	movl	$1, %edi
	callq	assert
	movl	$48, %eax
	jmp	.LBB54_70
.LBB54_49:
	movq	8(%rsi), %r15
	movq	%r14, 16(%rsp)
	movq	%r15, 24(%rsp)
	movaps	16(%rsp), %xmm0
	movups	%xmm0, (%rbx)
	addq	$16, %rbx
	movq	cP1__W$__fData_Binary_storableB$d5(%rip), %rsi
	movq	%rbx, %rdi
	callq	s_alloc
	movq	%rax, %rbx
	movq	$2097154, (%rbx)        # imm = 0x200002
	jmp	.LBB54_60
.LBB54_50:
	movq	24(%rsi), %r15
	movq	8(%rsi), %r12
	movq	16(%rsi), %r13
	movq	%r14, 16(%rsp)
	movq	%r12, 24(%rsp)
	movq	%r13, 32(%rsp)
	movq	%r13, 16(%rbx)
	movaps	16(%rsp), %xmm0
	movups	%xmm0, (%rbx)
	addq	$24, %rbx
	movq	cP1__W$__fInstance$__iData_Binary_put_Jhc_Prim_Prim_$BEd5(%rip), %rsi
	movq	%rbx, %rdi
	callq	s_alloc
	movq	%rax, %rbx
	movq	$2424834, (%rbx)        # imm = 0x250002
.LBB54_51:
	movq	%r12, 8(%rbx)
	movq	%r15, 32(%rbx)
.LBB54_52:
	movq	%r13, 16(%rbx)
	movq	%r14, 24(%rbx)
	jmp	.LBB54_77
.LBB54_53:
	movq	%rbx, %rdi
	movq	%r14, %rsi
	callq	eval
	movq	%rax, %rbx
	shrq	$2, %rbx
	cmpl	$48, %ebx
	jb	.LBB54_82
# %bb.54:
	movl	$1, %edi
	callq	assert
	xorl	%eax, %eax
	cmpl	$56, %ebx
.LBB54_55:
	setb	%al
	jmp	.LBB54_76
.LBB54_56:
	movq	%r14, (%rbx)
	addq	$8, %rbx
	movq	cP1__Data_Binary_fl$_x64315462$d5406(%rip), %rsi
	movq	%rbx, %rdi
	callq	s_alloc
	movq	%rax, %rbx
	movq	$65538, (%rbx)          # imm = 0x10002
	movq	%r14, 8(%rbx)
	jmp	.LBB54_77
.LBB54_57:
	movq	8(%rsi), %r15
	movq	%r14, 16(%rsp)
	movq	%r15, 24(%rsp)
	movaps	16(%rsp), %xmm0
	movups	%xmm0, (%rbx)
	addq	$16, %rbx
	movq	cP1__Data_Binary_get$d3(%rip), %rsi
	movq	%rbx, %rdi
	callq	s_alloc
	movq	%rax, %rbx
	movq	$131074, (%rbx)         # imm = 0x20002
	jmp	.LBB54_60
.LBB54_58:
	movzwl	12(%rsi), %ecx
	movzwl	10(%rsi), %edx
	movzwl	8(%rsi), %esi
	movq	%rbx, %rdi
	movq	%r14, %r8
	addq	$64, %rsp
	popq	%rbx
	popq	%r12
	popq	%r13
	popq	%r14
	popq	%r15
	jmp	fW$__fInstance$__iJhc_Show_showsPrec_Main_AtaCapabilities$d2 # TAILCALL
.LBB54_59:
	movq	8(%rsi), %r15
	movq	%r14, 16(%rsp)
	movq	%r15, 24(%rsp)
	movaps	16(%rsp), %xmm0
	movups	%xmm0, (%rbx)
	addq	$16, %rbx
	movq	cP1__W$__fData_Binary_storableB$d3(%rip), %rsi
	movq	%rbx, %rdi
	callq	s_alloc
	movq	%rax, %rbx
	movq	$1966082, (%rbx)        # imm = 0x1E0002
.LBB54_60:
	movq	%r15, 8(%rbx)
	movq	%r14, 16(%rbx)
	jmp	.LBB54_77
.LBB54_61:
	movq	8(%rsi), %rsi
	movq	%rbx, %rdi
	movq	%r14, %rdx
	addq	$64, %rsp
	popq	%rbx
	popq	%r12
	popq	%r13
	popq	%r14
	popq	%r15
	jmp	ftheMain$d25            # TAILCALL
.LBB54_62:
	movq	%r14, (%rbx)
	addq	$8, %rbx
	movq	cP2__Data_Binary_get$d5(%rip), %rsi
	movq	%rbx, %rdi
	callq	s_alloc
	movq	%rax, %rbx
	movq	$3604482, (%rbx)        # imm = 0x370002
	movq	%r14, 8(%rbx)
	jmp	.LBB54_77
.LBB54_63:
	cmpl	$47, %r15d
	jbe	.LBB54_74
# %bb.64:
	movl	$1, %edi
	callq	assert
	cmpl	$58, %r15d
	jae	.LBB54_74
.LBB54_65:
	movl	$1, %edi
	callq	assert
	movl	$6, %ebx
	jmp	.LBB54_77
.LBB54_68:
	cmpl	$16, %ebx
	jae	.LBB54_84
# %bb.69:
	movl	$1, %edi
	callq	assert
	movl	$87, %eax
.LBB54_70:
	addl	%eax, %ebx
	leaq	2(,%rbx,4), %rbx
	jmp	.LBB54_77
.LBB54_71:
	cmpl	$96, %r15d
	jbe	.LBB54_73
# %bb.72:
	movl	$1, %edi
	callq	assert
	cmpl	$122, %r15d
	jbe	.LBB54_25
.LBB54_73:
	movl	$1, %edi
	callq	assert
.LBB54_74:
	movabsq	$17179869180, %rax      # imm = 0x3FFFFFFFC
	andq	%rax, %r14
	orq	$2, %r14
	movl	$_c78, %edx
.LBB54_75:
	movq	%rbx, %rdi
	movq	%r14, %rsi
	callq	fW$__fSpec$__Jhc_List_217_fJhc_List_elem
	movzwl	%ax, %eax
.LBB54_76:
	leaq	2(,%rax,4), %rbx
.LBB54_77:
	movq	%rbx, %rax
.LBB54_78:
	addq	$64, %rsp
	popq	%rbx
	popq	%r12
	popq	%r13
	popq	%r14
	popq	%r15
	retq
.LBB54_79:
	cmpl	$65, %ebx
	jb	.LBB54_82
# %bb.80:
	movl	$1, %edi
	callq	assert
	cmpl	$71, %ebx
	jb	.LBB54_65
# %bb.81:
	movl	$2, %ebx
	andl	$262140, %ebx           # imm = 0x3FFFC
	jmp	.LBB54_6
.LBB54_82:
	movl	$2, %ebx
	jmp	.LBB54_77
.LBB54_83:
	movl	$8971, %edi             # imm = 0x230B
	callq	jhc_case_fell_off
.LBB54_84:
	movl	$.L.str.8, %edi
	callq	jhc_error
.Lfunc_end54:
	.size	bapply__87809, .Lfunc_end54-bapply__87809
	.cfi_endproc
	.section	.rodata,"a",@progbits
	.p2align	3
.LJTI54_0:
	.quad	.LBB54_32
	.quad	.LBB54_33
	.quad	.LBB54_39
	.quad	.LBB54_36
	.quad	.LBB54_22
	.quad	.LBB54_35
	.quad	.LBB54_42
	.quad	.LBB54_39
	.quad	.LBB54_39
	.quad	.LBB54_39
	.quad	.LBB54_21
	.quad	.LBB54_47
	.quad	.LBB54_16
	.quad	.LBB54_27
	.quad	.LBB54_53
	.quad	.LBB54_20
	.quad	.LBB54_83
	.quad	.LBB54_83
	.quad	.LBB54_83
	.quad	.LBB54_83
	.quad	.LBB54_83
	.quad	.LBB54_83
	.quad	.LBB54_83
	.quad	.LBB54_83
	.quad	.LBB54_83
	.quad	.LBB54_83
	.quad	.LBB54_83
	.quad	.LBB54_83
	.quad	.LBB54_83
	.quad	.LBB54_83
	.quad	.LBB54_83
	.quad	.LBB54_83
	.quad	.LBB54_58
	.quad	.LBB54_34
	.quad	.LBB54_83
	.quad	.LBB54_4
	.quad	.LBB54_5
	.quad	.LBB54_4
	.quad	.LBB54_4
	.quad	.LBB54_4
	.quad	.LBB54_4
	.quad	.LBB54_5
	.quad	.LBB54_61
	.quad	.LBB54_12
	.quad	.LBB54_4
	.quad	.LBB54_56
	.quad	.LBB54_57
	.quad	.LBB54_37
	.quad	.LBB54_26
	.quad	.LBB54_38
	.quad	.LBB54_15
	.quad	.LBB54_13
	.quad	.LBB54_10
	.quad	.LBB54_11
	.quad	.LBB54_83
	.quad	.LBB54_8
	.quad	.LBB54_83
	.quad	.LBB54_59
	.quad	.LBB54_83
	.quad	.LBB54_49
	.quad	.LBB54_83
	.quad	.LBB54_18
	.quad	.LBB54_83
	.quad	.LBB54_31
	.quad	.LBB54_50
	.quad	.LBB54_7
	.quad	.LBB54_14
	.quad	.LBB54_44
	.quad	.LBB54_62
	.quad	.LBB54_9
                                        # -- End function
	.section	.rodata.cst16,"aM",@progbits,16
	.p2align	4               # -- Begin function bapply__87810
.LCPI55_0:
	.quad	2                       # 0x2
	.zero	8
	.text
	.p2align	4, 0x90
	.type	bapply__87810,@function
bapply__87810:                          # @bapply__87810
	.cfi_startproc
# %bb.0:
	pushq	%rbp
	.cfi_def_cfa_offset 16
	pushq	%r15
	.cfi_def_cfa_offset 24
	pushq	%r14
	.cfi_def_cfa_offset 32
	pushq	%r13
	.cfi_def_cfa_offset 40
	pushq	%r12
	.cfi_def_cfa_offset 48
	pushq	%rbx
	.cfi_def_cfa_offset 56
	subq	$40, %rsp
	.cfi_def_cfa_offset 96
	.cfi_offset %rbx, -56
	.cfi_offset %r12, -48
	.cfi_offset %r13, -40
	.cfi_offset %r14, -32
	.cfi_offset %r15, -24
	.cfi_offset %rbp, -16
	movq	%rdi, %rbx
	movq	%rsi, %rcx
	testb	$2, %sil
	jne	.LBB55_2
# %bb.1:
	movq	(%rsi), %rcx
.LBB55_2:
	shrq	$16, %rcx
	addq	$-1, %rcx
	cmpq	$37, %rcx
	ja	.LBB55_32
# %bb.3:
	movl	$2, %eax
	jmpq	*.LJTI55_0(,%rcx,8)
.LBB55_4:
	movq	8(%rsi), %rax
	movq	16(%rsi), %rcx
	movq	24(%rsi), %rdx
	movq	%rbx, %rdi
	movq	%rax, %rsi
	jmp	.LBB55_6
.LBB55_5:
	movq	8(%rsi), %rbp
	movq	16(%rsi), %rsi
	movq	%rbp, (%rbx)
	addq	$8, %rbx
	movq	%rbx, %rdi
	callq	eval
	movq	(%rax), %rdx
	movq	8(%rbp), %rsi
	movq	16(%rbp), %rcx
	movq	%rbx, %rdi
.LBB55_6:
	callq	fW$__fForeign_Storable_poke
	movl	$2, %eax
	jmp	.LBB55_31
.LBB55_7:
	movq	40(%rsi), %r13
	movq	8(%rsi), %r12
	movq	16(%rsi), %rax
	movq	24(%rsi), %r14
	movq	48(%rsi), %rcx
	movq	%rcx, 32(%rsp)          # 8-byte Spill
	movq	32(%rsi), %r15
	movq	%r15, (%rsp)
	movq	%r12, 8(%rsp)
	movq	%r14, 16(%rsp)
	movq	%r14, 16(%rbx)
	movdqa	(%rsp), %xmm0
	movdqu	%xmm0, (%rbx)
	leaq	24(%rbx), %rbp
	movq	%rbp, %rdi
	movq	%rax, %rsi
	movq	%r15, %rdx
	callq	bapply__87809
	movq	%rbp, %rdi
	movq	%rax, %rsi
	callq	bapply__87810
	movq	%r14, 24(%rbx)
	leaq	32(%rbx), %rdi
	movq	cFW$__fData_Binary_put$d9(%rip), %rsi
	callq	s_alloc
	movq	%rax, %rbp
	movq	$E__fW$__fData_Binary_put$d9+3, (%rbp)
	movq	%r13, 16(%rbp)
	movq	%r15, 8(%rbp)
	orq	$1, %rbp
	movq	%rbp, 32(%rbx)
	leaq	40(%rbx), %r15
	movq	%r15, %rdi
	movq	%r14, %rsi
	movq	%rbp, %rdx
	callq	bapply__87809
	movq	%r15, %rdi
	movq	%rax, %rsi
	callq	bapply__87810
	movq	%r12, 40(%rbx)
	addq	$48, %rbx
	movq	cFW$__fData_Binary_put$d10(%rip), %rsi
	movq	%rbx, %rdi
	callq	s_alloc
	movq	$E__fW$__fData_Binary_put$d10+3, (%rax)
	movq	%rbp, 8(%rax)
	movq	32(%rsp), %rcx          # 8-byte Reload
	movq	%rcx, 16(%rax)
	orq	$1, %rax
	movq	24(%r12), %rdx
	movq	8(%r12), %rsi
	movq	16(%r12), %rcx
	jmp	.LBB55_18
.LBB55_8:
	movq	8(%rsi), %rbp
	movq	16(%rsi), %r15
	movq	%rbp, (%rsp)
	movq	%r15, 8(%rsp)
	movdqa	(%rsp), %xmm0
	movdqu	%xmm0, (%rbx)
	leaq	16(%rbx), %rdi
	movq	cCJhc_Prim_Prim_$LccR(%rip), %rsi
	callq	s_alloc
	movq	%rax, %r14
	movq	$196610, (%r14)         # imm = 0x30002
	movq	%rbp, 8(%r14)
	movq	%r15, 16(%r14)
	movq	%r14, 16(%rbx)
	addq	$24, %rbx
	movq	cCJhc_Type_Basic_Right(%rip), %rsi
	movq	%rbx, %rdi
	callq	s_alloc
	movq	$65538, (%rax)          # imm = 0x10002
	jmp	.LBB55_13
.LBB55_9:
	movq	8(%rsi), %r14
	movq	16(%rsi), %r15
	movq	%r14, (%rsp)
	movq	%r15, 8(%rsp)
	movdqa	(%rsp), %xmm0
	movdqu	%xmm0, (%rbx)
	leaq	16(%rbx), %rdi
	movq	cCJhc_Prim_Prim_$LccR(%rip), %rsi
	callq	s_alloc
	movq	%rax, %rbp
	movq	$2, (%rbp)
	movq	%r14, 8(%rbp)
	movq	%r15, 16(%rbp)
	movq	%rbp, 16(%rbx)
	addq	$24, %rbx
	jmp	.LBB55_29
.LBB55_10:
	movq	8(%rsi), %r14
	jmp	.LBB55_12
.LBB55_11:
	movq	8(%rsi), %rax
	movq	8(%rax), %r14
.LBB55_12:
	movq	%r14, (%rbx)
	leaq	8(%rbx), %rdi
	movq	cFInstance$__iJhc_Show_show_default(%rip), %rsi
	callq	s_alloc
	movq	%rax, %rbp
	movq	$E__fInstance$__iJhc_Show_show_default+3, (%rbp)
	movq	$5898242, 8(%rbp)       # imm = 0x5A0002
	movq	%r14, 16(%rbp)
	orq	$1, %rbp
	movq	%rbp, 8(%rbx)
	leaq	16(%rbx), %rdi
	movq	cFJhc_Basics_$pp(%rip), %rsi
	callq	s_alloc
	movq	%rax, %r14
	movq	$E__fJhc_Basics_$pp+3, (%r14)
	movl	$_c455, %eax
	movq	%rax, %xmm0
	movdqa	.LCPI55_0(%rip), %xmm1  # xmm1 = <2,u>
	punpcklqdq	%xmm0, %xmm1    # xmm1 = xmm1[0],xmm0[0]
	movdqu	%xmm1, 8(%r14)
	movq	%rbp, 24(%r14)
	orq	$1, %r14
	movq	%r14, 16(%rbx)
	addq	$24, %rbx
	movq	cCJhc_Type_Basic_Left(%rip), %rsi
	movq	%rbx, %rdi
	callq	s_alloc
	movq	$2, (%rax)
.LBB55_13:
	movq	%r14, 8(%rax)
	jmp	.LBB55_31
.LBB55_14:
	movq	32(%rsi), %r12
	movq	8(%rsi), %rax
	movq	16(%rsi), %r14
	movq	24(%rsi), %r15
	movq	%r14, (%rsp)
	movq	%r15, 8(%rsp)
	movdqa	(%rsp), %xmm0
	movdqu	%xmm0, (%rbx)
	leaq	16(%rbx), %rbp
	movq	%rbp, %rdi
	movq	%rax, %rsi
	movq	%r15, %rdx
	callq	bapply__87809
	movq	%rbp, %rdi
	movq	%rax, %rsi
	callq	bapply__87810
	movq	%r14, 16(%rbx)
	addq	$24, %rbx
	movq	cFW$__fData_Binary_put$d3(%rip), %rsi
	movq	%rbx, %rdi
	callq	s_alloc
	movq	$E__fW$__fData_Binary_put$d3+3, (%rax)
	movq	%r12, 16(%rax)
	movq	%r15, 8(%rax)
	orq	$1, %rax
	movq	%rbx, %rdi
	movq	%r14, %rsi
	movq	%rax, %rdx
	callq	bapply__87809
	movq	%rbx, %rdi
	movq	%rax, %rsi
	callq	bapply__87810
	jmp	.LBB55_31
.LBB55_15:
	movq	32(%rsi), %r12
	movq	8(%rsi), %rbp
	movq	16(%rsi), %rax
	movq	24(%rsi), %r14
	movq	%rbp, (%rsp)
	movq	%r14, 8(%rsp)
	movdqa	(%rsp), %xmm0
	movdqu	%xmm0, (%rbx)
	leaq	16(%rbx), %r15
	movq	%r15, %rdi
	movq	%rax, %rsi
	movq	%r14, %rdx
	callq	bapply__87809
	movq	%r15, %rdi
	movq	%rax, %rsi
	callq	bapply__87810
	movq	%rbp, 16(%rbx)
	addq	$24, %rbx
	movq	cFW$__fData_Binary_put$d5(%rip), %rsi
	movq	%rbx, %rdi
	callq	s_alloc
	movq	$E__fW$__fData_Binary_put$d5+3, (%rax)
	jmp	.LBB55_17
.LBB55_16:
	movq	32(%rsi), %r12
	movq	8(%rsi), %rbp
	movq	16(%rsi), %rax
	movq	24(%rsi), %r14
	movq	%r14, (%rsp)
	movq	%rbp, 8(%rsp)
	movdqa	(%rsp), %xmm0
	movdqu	%xmm0, (%rbx)
	leaq	16(%rbx), %r15
	movq	%r15, %rdi
	movq	%rax, %rsi
	movq	%r14, %rdx
	callq	bapply__87809
	movq	%r15, %rdi
	movq	%rax, %rsi
	callq	bapply__87810
	movq	%rbp, 16(%rbx)
	addq	$24, %rbx
	movq	cFW$__fData_Binary_put$d7(%rip), %rsi
	movq	%rbx, %rdi
	callq	s_alloc
	movq	$E__fW$__fData_Binary_put$d7+3, (%rax)
.LBB55_17:
	movq	%r14, 8(%rax)
	movq	%r12, 16(%rax)
	orq	$1, %rax
	movq	24(%rbp), %rdx
	movq	8(%rbp), %rsi
	movq	16(%rbp), %rcx
.LBB55_18:
	movq	%rbx, %rdi
	movq	%rax, %r8
	callq	fW$__fInstance$__iData_Binary_put_Jhc_Prim_Prim_$BEd5
	jmp	.LBB55_31
.LBB55_19:
	movq	32(%rsi), %rdx
	movq	8(%rsi), %rax
	movq	16(%rsi), %rcx
	movq	24(%rsi), %r8
	movq	%rbx, %rdi
	movq	%rax, %rsi
	addq	$40, %rsp
	popq	%rbx
	popq	%r12
	popq	%r13
	popq	%r14
	popq	%r15
	popq	%rbp
	jmp	fW$__fInstance$__iData_Binary_put_Jhc_Prim_Prim_$BEd5 # TAILCALL
.LBB55_20:
	movq	8(%rsi), %rax
	movq	16(%rsi), %rdx
	movq	32(%rsi), %rcx
	movq	24(%rsi), %r8
	movq	%rbx, %rdi
	movq	%rax, %rsi
	addq	$40, %rsp
	popq	%rbx
	popq	%r12
	popq	%r13
	popq	%r14
	popq	%r15
	popq	%rbp
	jmp	fW$__fInstance$__iData_Monoid_mappend_Data_Binary_Builder$d2 # TAILCALL
.LBB55_21:
	movq	8(%rsi), %r15
	movq	16(%rsi), %rsi
	movq	%r15, (%rbx)
	leaq	8(%rbx), %r13
	movq	%r13, %rdi
	callq	eval
	movq	(%rax), %r14
	cmpq	$4, %r14
	jb	.LBB55_23
# %bb.22:
	movl	$1, %edi
	callq	assert
	movq	%r13, %rdi
	movq	%r15, %rsi
	callq	eval
	movq	(%rax), %rbp
	movl	(%rbp), %r12d
	movq	cCJhc_Type_Word_Word32(%rip), %rsi
	movq	%r13, %rdi
	callq	s_alloc
	movq	%rax, %r15
	movl	%r12d, (%r15)
	movq	%r15, 8(%rbx)
	leaq	16(%rbx), %rdi
	addq	$4, %rbp
	movq	cCJhc_Type_Ptr_Ptr(%rip), %rsi
	callq	s_alloc
	movq	%rax, %r12
	movq	%rbp, (%r12)
	movq	%r12, 16(%rbx)
	leaq	24(%rbx), %rdi
	addq	$-4, %r14
	movq	cCJhc_Type_Word_Word64(%rip), %rsi
	callq	s_alloc
	movq	%r13, 32(%rsp)          # 8-byte Spill
	movq	%rax, %r13
	movq	%r14, (%r13)
	movq	%r13, 24(%rbx)
	leaq	32(%rbx), %rdi
	movq	cCJhc_Prim_Prim_$LccR(%rip), %rsi
	callq	s_alloc
	movq	%rax, %rbp
	movq	%r15, (%rbp)
	movq	%r12, 8(%rbp)
	movq	%r13, 16(%rbp)
	movq	32(%rsp), %r13          # 8-byte Reload
	movq	%rbp, 32(%rbx)
	leaq	40(%rbx), %rdi
	movq	cCJhc_Type_Basic_Right(%rip), %rsi
	callq	s_alloc
	movq	$65538, (%rax)          # imm = 0x10002
	movq	%rbp, 8(%rax)
	jmp	.LBB55_24
.LBB55_23:
	movl	$_c49, %eax
.LBB55_24:
	movq	%rax, %rcx
	testb	$2, %al
	jne	.LBB55_26
# %bb.25:
	movq	(%rax), %rcx
.LBB55_26:
	cmpq	$65535, %rcx            # imm = 0xFFFF
	ja	.LBB55_28
# %bb.27:
	movq	8(%rax), %rbp
	movq	%rbp, 8(%rbx)
	addq	$16, %rbx
	movq	cCJhc_Type_Basic_Left(%rip), %rsi
	movq	%rbx, %rdi
	callq	s_alloc
	movq	$2, (%rax)
	jmp	.LBB55_30
.LBB55_28:
	movq	8(%rax), %rsi
	movq	%r13, %rdi
	callq	eval
	movq	(%rax), %rbp
	movq	8(%rax), %r15
	movq	16(%rax), %r12
	movq	%r15, 8(%rbx)
	movq	%r12, 16(%rbx)
	movq	%rbp, 24(%rbx)
	leaq	32(%rbx), %rdi
	movq	cCHos_Init_Msg_InitFoundProvider(%rip), %rsi
	callq	s_alloc
	movq	%rax, %r14
	movq	%rbp, (%r14)
	movq	%r14, 32(%rbx)
	leaq	40(%rbx), %rdi
	movq	cCJhc_Prim_Prim_$LccR(%rip), %rsi
	callq	s_alloc
	movq	%rax, %rbp
	movq	%r14, (%rbp)
	movq	%r15, 8(%rbp)
	movq	%r12, 16(%rbp)
	movq	%rbp, 40(%rbx)
	addq	$48, %rbx
.LBB55_29:
	movq	cCJhc_Type_Basic_Right(%rip), %rsi
	movq	%rbx, %rdi
	callq	s_alloc
	movq	$65538, (%rax)          # imm = 0x10002
.LBB55_30:
	movq	%rbp, 8(%rax)
.LBB55_31:
	addq	$40, %rsp
	popq	%rbx
	popq	%r12
	popq	%r13
	popq	%r14
	popq	%r15
	popq	%rbp
	retq
.LBB55_32:
	movl	$9191, %edi             # imm = 0x23E7
	callq	jhc_case_fell_off
.Lfunc_end55:
	.size	bapply__87810, .Lfunc_end55-bapply__87810
	.cfi_endproc
	.section	.rodata,"a",@progbits
	.p2align	3
.LJTI55_0:
	.quad	.LBB55_31
	.quad	.LBB55_8
	.quad	.LBB55_21
	.quad	.LBB55_9
	.quad	.LBB55_10
	.quad	.LBB55_11
	.quad	.LBB55_32
	.quad	.LBB55_32
	.quad	.LBB55_32
	.quad	.LBB55_32
	.quad	.LBB55_32
	.quad	.LBB55_32
	.quad	.LBB55_32
	.quad	.LBB55_32
	.quad	.LBB55_32
	.quad	.LBB55_32
	.quad	.LBB55_32
	.quad	.LBB55_32
	.quad	.LBB55_32
	.quad	.LBB55_32
	.quad	.LBB55_32
	.quad	.LBB55_32
	.quad	.LBB55_14
	.quad	.LBB55_15
	.quad	.LBB55_16
	.quad	.LBB55_7
	.quad	.LBB55_4
	.quad	.LBB55_5
	.quad	.LBB55_4
	.quad	.LBB55_5
	.quad	.LBB55_4
	.quad	.LBB55_5
	.quad	.LBB55_4
	.quad	.LBB55_5
	.quad	.LBB55_4
	.quad	.LBB55_5
	.quad	.LBB55_19
	.quad	.LBB55_20
                                        # -- End function
	.text
	.p2align	4, 0x90         # -- Begin function fJhc_Show_showsPrec$d2
	.type	fJhc_Show_showsPrec$d2,@function
fJhc_Show_showsPrec$d2:                 # @"fJhc_Show_showsPrec$d2"
	.cfi_startproc
# %bb.0:
	pushq	%rbp
	.cfi_def_cfa_offset 16
	pushq	%r15
	.cfi_def_cfa_offset 24
	pushq	%r14
	.cfi_def_cfa_offset 32
	pushq	%r13
	.cfi_def_cfa_offset 40
	pushq	%r12
	.cfi_def_cfa_offset 48
	pushq	%rbx
	.cfi_def_cfa_offset 56
	subq	$40, %rsp
	.cfi_def_cfa_offset 96
	.cfi_offset %rbx, -56
	.cfi_offset %r12, -48
	.cfi_offset %r13, -40
	.cfi_offset %r14, -32
	.cfi_offset %r15, -24
	.cfi_offset %rbp, -16
	movq	%r8, %r14
	movq	%rcx, %r15
	movq	96(%rsp), %rax
	movq	%r14, 16(%rsp)
	movq	%r15, 24(%rsp)
	movq	%rax, 32(%rsp)
	movl	%r9d, 12(%rsp)          # 4-byte Spill
	movl	%edx, %ebp
	movq	%rsi, %rbx
	movq	%rdi, %r13
	movq	%rax, 16(%r13)
	movaps	16(%rsp), %xmm0
	movups	%xmm0, (%r13)
	leaq	24(%r13), %rdi
	movq	cFJhc_Show_showsPrec$d3(%rip), %rsi
	callq	s_alloc
	movq	%rax, %r12
	movq	$E__fJhc_Show_showsPrec$d3+3, (%r12)
	movb	%bpl, 42(%r12)
	movq	%r15, 8(%r12)
	movq	%rbx, 32(%r12)
	movq	%r14, 16(%r12)
	movl	12(%rsp), %eax          # 4-byte Reload
	movw	%ax, 40(%r12)
	movq	96(%rsp), %rax
	movq	%rax, 24(%r12)
	orq	$1, %r12
	movq	%r12, 24(%r13)
	leaq	32(%r13), %rdi
	movq	cFJhc_Show_showString(%rip), %rsi
	callq	s_alloc
	movq	%rax, %rbp
	movq	$E__fJhc_Show_showString+3, (%rbp)
	movq	$_c100, 8(%rbp)
	movq	%r12, 16(%rbp)
	orq	$1, %rbp
	movq	%rbp, 32(%r13)
	leaq	40(%r13), %rdi
	movq	cFJhc_Show_showString(%rip), %rsi
	callq	s_alloc
	movq	%rax, %rbx
	movq	$E__fJhc_Show_showString+3, (%rbx)
	movq	$_c237, 8(%rbx)
	movq	%rbp, 16(%rbx)
	orq	$1, %rbx
	movq	%rbx, 40(%r13)
	leaq	48(%r13), %rdi
	movq	cFJhc_Show_showString(%rip), %rsi
	callq	s_alloc
	movq	%rax, %r14
	movq	$E__fJhc_Show_showString+3, (%r14)
	movq	$_c124, 8(%r14)
	movq	%rbx, 16(%r14)
	orq	$1, %r14
	movq	%r14, 48(%r13)
	leaq	56(%r13), %r15
	movl	$_c240, %esi
	movq	%r15, %rdi
	callq	eval
	cmpq	$65538, %rax            # imm = 0x10002
	je	.LBB56_1
# %bb.2:
	movq	(%rax), %r15
	movq	8(%rax), %rbp
	movq	%r15, 56(%r13)
	movq	%rbp, 64(%r13)
	leaq	72(%r13), %rdi
	movq	cFR$__fJhc_Basics_$pp(%rip), %rsi
	callq	s_alloc
	movq	%rax, %rbx
	movq	$E__fR$__fJhc_Basics_$pp+3, (%rbx)
	movq	%rbp, 8(%rbx)
	movq	%r14, 16(%rbx)
	orq	$1, %rbx
	movq	%rbx, 72(%r13)
	addq	$80, %r13
	movq	cCJhc_Prim_Prim_$x3a(%rip), %rsi
	movq	%r13, %rdi
	callq	s_alloc
	movq	%r15, (%rax)
	movq	%rbx, 8(%rax)
	jmp	.LBB56_3
.LBB56_1:
	movq	%r15, %rdi
	movq	%r14, %rsi
	callq	eval
.LBB56_3:
	addq	$40, %rsp
	popq	%rbx
	popq	%r12
	popq	%r13
	popq	%r14
	popq	%r15
	popq	%rbp
	retq
.Lfunc_end56:
	.size	fJhc_Show_showsPrec$d2, .Lfunc_end56-fJhc_Show_showsPrec$d2
	.cfi_endproc
                                        # -- End function
	.p2align	4, 0x90         # -- Begin function fJhc_Show_showsPrec$d6
	.type	fJhc_Show_showsPrec$d6,@function
fJhc_Show_showsPrec$d6:                 # @"fJhc_Show_showsPrec$d6"
	.cfi_startproc
# %bb.0:
	pushq	%rbp
	.cfi_def_cfa_offset 16
	pushq	%r15
	.cfi_def_cfa_offset 24
	pushq	%r14
	.cfi_def_cfa_offset 32
	pushq	%r13
	.cfi_def_cfa_offset 40
	pushq	%r12
	.cfi_def_cfa_offset 48
	pushq	%rbx
	.cfi_def_cfa_offset 56
	subq	$40, %rsp
	.cfi_def_cfa_offset 96
	.cfi_offset %rbx, -56
	.cfi_offset %r12, -48
	.cfi_offset %r13, -40
	.cfi_offset %r14, -32
	.cfi_offset %r15, -24
	.cfi_offset %rbp, -16
	movq	%r9, %r14
	movq	%rcx, %rbx
	movq	%rsi, %r12
	movq	%r12, 16(%rsp)
	movq	%rbx, 24(%rsp)
	movq	%r14, 32(%rsp)
	movl	%r8d, 12(%rsp)          # 4-byte Spill
	movl	%edx, %ebp
	movq	%rdi, %r15
	movq	%r14, 16(%r15)
	movaps	16(%rsp), %xmm0
	movups	%xmm0, (%r15)
	leaq	24(%r15), %rdi
	movq	cFJhc_Show_showsPrec$d7(%rip), %rsi
	callq	s_alloc
	movq	%rax, %r13
	movq	$E__fJhc_Show_showsPrec$d7+3, (%r13)
	movq	%r12, 8(%r13)
	movq	%r14, 16(%r13)
	movw	%bp, 32(%r13)
	movq	%rbx, 24(%r13)
	movl	12(%rsp), %eax          # 4-byte Reload
	movb	%al, 34(%r13)
	orq	$1, %r13
	movq	%r13, 24(%r15)
	leaq	32(%r15), %rdi
	movq	cFJhc_Show_showString(%rip), %rsi
	callq	s_alloc
	movq	%rax, %rbp
	movq	$E__fJhc_Show_showString+3, (%rbp)
	movq	$_c100, 8(%rbp)
	movq	%r13, 16(%rbp)
	orq	$1, %rbp
	movq	%rbp, 32(%r15)
	leaq	40(%r15), %rdi
	movq	cFJhc_Show_showString(%rip), %rsi
	callq	s_alloc
	movq	%rax, %rbx
	movq	$E__fJhc_Show_showString+3, (%rbx)
	movq	$_c237, 8(%rbx)
	movq	%rbp, 16(%rbx)
	orq	$1, %rbx
	movq	%rbx, 40(%r15)
	leaq	48(%r15), %rdi
	movq	cFJhc_Show_showString(%rip), %rsi
	callq	s_alloc
	movq	%rax, %r14
	movq	$E__fJhc_Show_showString+3, (%r14)
	movq	$_c124, 8(%r14)
	movq	%rbx, 16(%r14)
	orq	$1, %r14
	movq	%r14, 48(%r15)
	leaq	56(%r15), %rbx
	movl	$_c245, %esi
	movq	%rbx, %rdi
	callq	eval
	cmpq	$65538, %rax            # imm = 0x10002
	je	.LBB57_1
# %bb.2:
	movq	(%rax), %r12
	movq	8(%rax), %rbp
	movq	%r12, 56(%r15)
	movq	%rbp, 64(%r15)
	leaq	72(%r15), %rdi
	movq	cFR$__fJhc_Basics_$pp(%rip), %rsi
	callq	s_alloc
	movq	%rax, %rbx
	movq	$E__fR$__fJhc_Basics_$pp+3, (%rbx)
	movq	%rbp, 8(%rbx)
	movq	%r14, 16(%rbx)
	orq	$1, %rbx
	movq	%rbx, 72(%r15)
	addq	$80, %r15
	movq	cCJhc_Prim_Prim_$x3a(%rip), %rsi
	movq	%r15, %rdi
	callq	s_alloc
	movq	%r12, (%rax)
	movq	%rbx, 8(%rax)
	jmp	.LBB57_3
.LBB57_1:
	movq	%rbx, %rdi
	movq	%r14, %rsi
	callq	eval
.LBB57_3:
	addq	$40, %rsp
	popq	%rbx
	popq	%r12
	popq	%r13
	popq	%r14
	popq	%r15
	popq	%rbp
	retq
.Lfunc_end57:
	.size	fJhc_Show_showsPrec$d6, .Lfunc_end57-fJhc_Show_showsPrec$d6
	.cfi_endproc
                                        # -- End function
	.p2align	4, 0x90         # -- Begin function fJhc_Text_Read_lex$d19
	.type	fJhc_Text_Read_lex$d19,@function
fJhc_Text_Read_lex$d19:                 # @"fJhc_Text_Read_lex$d19"
	.cfi_startproc
# %bb.0:
	pushq	%rbp
	.cfi_def_cfa_offset 16
	pushq	%r15
	.cfi_def_cfa_offset 24
	pushq	%r14
	.cfi_def_cfa_offset 32
	pushq	%r13
	.cfi_def_cfa_offset 40
	pushq	%r12
	.cfi_def_cfa_offset 48
	pushq	%rbx
	.cfi_def_cfa_offset 56
	subq	$88, %rsp
	.cfi_def_cfa_offset 144
	.cfi_offset %rbx, -56
	.cfi_offset %r12, -48
	.cfi_offset %r13, -40
	.cfi_offset %r14, -32
	.cfi_offset %r15, -24
	.cfi_offset %rbp, -16
	movq	%rsi, %r12
	movq	%rdi, %r14
	movq	%r12, (%r14)
	leaq	8(%r14), %rdi
	movq	%rdx, %rsi
	callq	eval
	movq	%rax, %rbx
	movq	%rbx, 8(%r14)
	leaq	16(%r14), %rbp
	movq	cP1__Jhc_Text_Read_lex$d19(%rip), %rsi
	movq	%rbp, %rdi
	callq	s_alloc
	movq	%rax, %r15
	movq	$786434, (%r15)         # imm = 0xC0002
	movq	%r12, 8(%r15)
	cmpq	$65538, %rbx            # imm = 0x10002
	je	.LBB58_1
# %bb.2:
	movq	(%rbx), %rsi
	movq	8(%rbx), %rax
	movq	%r15, 64(%rsp)
	movq	%rax, (%rsp)            # 8-byte Spill
	movq	%rax, 72(%rsp)
	movaps	64(%rsp), %xmm0
	movups	%xmm0, (%rbp)
	leaq	32(%r14), %rdi
	callq	eval
	movq	(%rax), %rbp
	movq	8(%rax), %r13
	movq	%r13, 48(%rsp)
	movq	%rbp, 56(%rsp)
	movaps	48(%rsp), %xmm0
	movups	%xmm0, 32(%r14)
	leaq	48(%r14), %rbx
	movq	%rbx, %rdi
	movq	%r13, %rsi
	callq	eval
	cmpq	$65538, %rax            # imm = 0x10002
	je	.LBB58_3
# %bb.4:
	movq	%rbp, 8(%rsp)           # 8-byte Spill
	movq	%r12, 16(%rsp)          # 8-byte Spill
	movq	(%rax), %rsi
	movq	8(%rax), %r12
	movq	%r12, 48(%r14)
	leaq	56(%r14), %rbp
	movq	%rbp, %rdi
	callq	eval
	shrq	$2, %rax
	cmpl	$46, %eax
	jne	.LBB58_9
# %bb.5:
	movq	%rbp, %rdi
	movq	%r12, %rsi
	callq	eval
	cmpq	$65538, %rax            # imm = 0x10002
	je	.LBB58_9
# %bb.6:
	movq	(%rax), %r12
	movq	8(%rax), %rax
	movq	%r12, 32(%rsp)
	movq	%rax, 24(%rsp)          # 8-byte Spill
	movq	%rax, 40(%rsp)
	movaps	32(%rsp), %xmm0
	movups	%xmm0, (%rbp)
	leaq	72(%r14), %rbp
	movq	%rbp, %rdi
	movq	%r12, %rsi
	callq	eval
	movq	%rax, %rbx
	shrq	$2, %rbx
	cmpl	$47, %ebx
	jbe	.LBB58_9
# %bb.7:
	movl	$1, %edi
	callq	assert
	cmpl	$58, %ebx
	jae	.LBB58_9
# %bb.8:
	movl	$1, %edi
	callq	assert
	movq	cCJhc_Prim_Prim_$x3a(%rip), %rsi
	movq	%rbp, %rdi
	callq	s_alloc
	movq	%rax, %rbx
	movq	%r12, (%rbx)
	movq	24(%rsp), %rax          # 8-byte Reload
	movq	%rax, 8(%rbx)
	movq	%rbx, 72(%r14)
	movq	$1245186, 80(%r14)      # imm = 0x130002
	leaq	88(%r14), %rdi
	movq	cFJhc_Text_Read_nonnull$d2(%rip), %rsi
	callq	s_alloc
	movq	%rbp, %r12
	movq	%rax, %rbp
	movq	$E__fJhc_Text_Read_nonnull$d2+3, (%rbp)
	movq	$1245186, 8(%rbp)       # imm = 0x130002
	movq	%rbx, 16(%rbp)
	orq	$1, %rbp
	movq	%rbp, 88(%r14)
	leaq	96(%r14), %rbx
	movq	cCJhc_Prim_Prim_$x3a(%rip), %rsi
	movq	%rbx, %rdi
	callq	s_alloc
	movq	%rbp, (%rax)
	movq	$65538, 8(%rax)         # imm = 0x10002
	movq	%rbx, %rdi
	movq	%rax, %rsi
	callq	fJhc_Text_Read_nonnull$d4
	movq	%r12, %rdi
	movq	%rax, %rsi
	callq	fJhc_Text_Read_lex$d32
	jmp	.LBB58_10
.LBB58_1:
	movl	$65538, %eax            # imm = 0x10002
	jmp	.LBB58_14
.LBB58_9:
	movq	%rbp, %rdi
	movq	%r13, %rsi
	callq	fJhc_Text_Read_80__lexExp
.LBB58_10:
	movq	%rax, %rcx
	movq	16(%rsp), %r12          # 8-byte Reload
	movq	(%rsp), %r13            # 8-byte Reload
	movq	8(%rsp), %rbp           # 8-byte Reload
	jmp	.LBB58_11
.LBB58_3:
	movq	%rbx, %rdi
	movq	%r13, %rsi
	callq	fJhc_Text_Read_80__lexExp
	movq	%rax, %rcx
	movq	(%rsp), %r13            # 8-byte Reload
.LBB58_11:
	movq	%r13, 48(%r14)
	movq	%r15, 56(%r14)
	leaq	64(%r14), %rdi
	movq	%rbp, %rsi
	movq	%r12, %rdx
	callq	fJhc_Text_Read_lex$d28
	movq	%rax, %rbx
	movq	%rbx, 64(%r14)
	leaq	72(%r14), %rdi
	movq	cBap__1__Jhc_Text_Read_lex$d27u101054(%rip), %rsi
	callq	s_alloc
	movq	%rax, %rbp
	movq	$E__bap__1__Jhc_Text_Read_lex$d27u101054+3, (%rbp)
	movq	%r15, 8(%rbp)
	movq	%r13, 16(%rbp)
	orq	$1, %rbp
	movq	%rbp, 72(%r14)
	leaq	80(%r14), %r15
	movq	%r15, %rdi
	movq	%rbx, %rsi
	callq	eval
	cmpq	$65538, %rax            # imm = 0x10002
	je	.LBB58_12
# %bb.13:
	movq	(%rax), %r15
	movq	8(%rax), %r12
	movq	%r15, 80(%r14)
	movq	%r12, 88(%r14)
	leaq	96(%r14), %rdi
	movq	cFR$__fJhc_Basics_$pp(%rip), %rsi
	callq	s_alloc
	movq	%rax, %rbx
	movq	$E__fR$__fJhc_Basics_$pp+3, (%rbx)
	movq	%r12, 8(%rbx)
	movq	%rbp, 16(%rbx)
	orq	$1, %rbx
	movq	%rbx, 96(%r14)
	addq	$104, %r14
	movq	cCJhc_Prim_Prim_$x3a(%rip), %rsi
	movq	%r14, %rdi
	callq	s_alloc
	movq	%r15, (%rax)
	movq	%rbx, 8(%rax)
	jmp	.LBB58_14
.LBB58_12:
	movq	%r15, %rdi
	movq	%rbp, %rsi
	callq	eval
.LBB58_14:
	addq	$88, %rsp
	popq	%rbx
	popq	%r12
	popq	%r13
	popq	%r14
	popq	%r15
	popq	%rbp
	retq
.Lfunc_end58:
	.size	fJhc_Text_Read_lex$d19, .Lfunc_end58-fJhc_Text_Read_lex$d19
	.cfi_endproc
                                        # -- End function
	.p2align	4, 0x90         # -- Begin function fJhc_Text_Read_lex$d20
	.type	fJhc_Text_Read_lex$d20,@function
fJhc_Text_Read_lex$d20:                 # @"fJhc_Text_Read_lex$d20"
	.cfi_startproc
# %bb.0:
	pushq	%rbp
	.cfi_def_cfa_offset 16
	pushq	%r15
	.cfi_def_cfa_offset 24
	pushq	%r14
	.cfi_def_cfa_offset 32
	pushq	%r13
	.cfi_def_cfa_offset 40
	pushq	%r12
	.cfi_def_cfa_offset 48
	pushq	%rbx
	.cfi_def_cfa_offset 56
	subq	$56, %rsp
	.cfi_def_cfa_offset 112
	.cfi_offset %rbx, -56
	.cfi_offset %r12, -48
	.cfi_offset %r13, -40
	.cfi_offset %r14, -32
	.cfi_offset %r15, -24
	.cfi_offset %rbp, -16
	movq	%rsi, %r15
	movq	%rdi, %r13
	movq	%r15, (%r13)
	leaq	8(%r13), %rdi
	movq	%rdx, %rsi
	callq	eval
	movq	%rax, %rbx
	movq	%rbx, 8(%r13)
	leaq	16(%r13), %r12
	movq	cP1__Jhc_Text_Read_lex$d20(%rip), %rsi
	movq	%r12, %rdi
	callq	s_alloc
	movq	%rax, %r14
	movq	$851970, (%r14)         # imm = 0xD0002
	movq	%r15, 8(%r14)
	cmpq	$65538, %rbx            # imm = 0x10002
	je	.LBB59_1
# %bb.2:
	movq	(%rbx), %rsi
	movq	8(%rbx), %rbp
	movq	%r14, 32(%rsp)
	movq	%rbp, 40(%rsp)
	movaps	32(%rsp), %xmm0
	movups	%xmm0, (%r12)
	leaq	32(%r13), %rbx
	movq	%rbx, %rdi
	callq	eval
	cmpq	$65538, %rax            # imm = 0x10002
	je	.LBB59_3
# %bb.4:
	movq	%rbp, 8(%rsp)           # 8-byte Spill
	movq	(%rax), %r12
	movq	8(%rax), %rbp
	movq	%r12, 16(%rsp)
	movq	%rbp, 24(%rsp)
	movaps	16(%rsp), %xmm0
	movups	%xmm0, (%rbx)
	leaq	48(%r13), %rbx
	movl	$_c151, %edx
	movq	%rbx, %rdi
	movq	%r12, %rsi
	callq	fW$__fSpec$__Jhc_List_217_fJhc_List_elem
	testw	%ax, %ax
	je	.LBB59_5
# %bb.6:
	movzwl	%ax, %eax
	xorl	%edi, %edi
	cmpl	$1, %eax
	sete	%dil
	callq	assert
	movq	%rbp, 48(%r13)
	movq	$1245186, 56(%r13)      # imm = 0x130002
	leaq	64(%r13), %rdi
	movq	cFJhc_Text_Read_nonnull$d2(%rip), %rsi
	callq	s_alloc
	movq	%rbx, (%rsp)            # 8-byte Spill
	movq	%rax, %rbx
	movq	$E__fJhc_Text_Read_nonnull$d2+3, (%rbx)
	movq	$1245186, 8(%rbx)       # imm = 0x130002
	movq	%rbp, 16(%rbx)
	orq	$1, %rbx
	movq	%rbx, 64(%r13)
	leaq	72(%r13), %rbp
	movq	cCJhc_Prim_Prim_$x3a(%rip), %rsi
	movq	%rbp, %rdi
	callq	s_alloc
	movq	%rbx, (%rax)
	movq	$65538, 8(%rax)         # imm = 0x10002
	movq	%rbp, %rdi
	movq	%rax, %rsi
	callq	fJhc_Text_Read_nonnull$d4
	movq	(%rsp), %rdi            # 8-byte Reload
	movq	%r12, %rsi
	movq	%r15, %rdx
	movq	%rax, %rcx
	callq	fJhc_Text_Read_lex$d22
	movq	%rax, %r15
	jmp	.LBB59_7
.LBB59_1:
	movl	$65538, %eax            # imm = 0x10002
	jmp	.LBB59_11
.LBB59_3:
	movl	$65538, %r15d           # imm = 0x10002
	jmp	.LBB59_8
.LBB59_5:
	movl	$65538, %r15d           # imm = 0x10002
.LBB59_7:
	movq	8(%rsp), %rbp           # 8-byte Reload
.LBB59_8:
	movq	%r15, 32(%r13)
	movq	%rbp, 40(%r13)
	movq	%r14, 48(%r13)
	leaq	56(%r13), %rdi
	movq	cBap__1__Jhc_Text_Read_lex$d21u101090(%rip), %rsi
	callq	s_alloc
	movq	%rax, %rbx
	movq	$E__bap__1__Jhc_Text_Read_lex$d21u101090+3, (%rbx)
	movq	%r14, 8(%rbx)
	movq	%rbp, 16(%rbx)
	orq	$1, %rbx
	movq	%rbx, 56(%r13)
	leaq	64(%r13), %r14
	movq	%r14, %rdi
	movq	%r15, %rsi
	callq	eval
	cmpq	$65538, %rax            # imm = 0x10002
	je	.LBB59_9
# %bb.10:
	movq	(%rax), %r14
	movq	8(%rax), %r15
	movq	%r14, 64(%r13)
	movq	%r15, 72(%r13)
	leaq	80(%r13), %rdi
	movq	cFR$__fJhc_Basics_$pp(%rip), %rsi
	callq	s_alloc
	movq	%rax, %rbp
	movq	$E__fR$__fJhc_Basics_$pp+3, (%rbp)
	movq	%r15, 8(%rbp)
	movq	%rbx, 16(%rbp)
	orq	$1, %rbp
	movq	%rbp, 80(%r13)
	addq	$88, %r13
	movq	cCJhc_Prim_Prim_$x3a(%rip), %rsi
	movq	%r13, %rdi
	callq	s_alloc
	movq	%r14, (%rax)
	movq	%rbp, 8(%rax)
	jmp	.LBB59_11
.LBB59_9:
	movq	%r14, %rdi
	movq	%rbx, %rsi
	callq	eval
.LBB59_11:
	addq	$56, %rsp
	popq	%rbx
	popq	%r12
	popq	%r13
	popq	%r14
	popq	%r15
	popq	%rbp
	retq
.Lfunc_end59:
	.size	fJhc_Text_Read_lex$d20, .Lfunc_end59-fJhc_Text_Read_lex$d20
	.cfi_endproc
                                        # -- End function
	.p2align	4, 0x90         # -- Begin function fJhc_Text_Read_readDec$d5
	.type	fJhc_Text_Read_readDec$d5,@function
fJhc_Text_Read_readDec$d5:              # @"fJhc_Text_Read_readDec$d5"
	.cfi_startproc
# %bb.0:
	pushq	%r15
	.cfi_def_cfa_offset 16
	pushq	%r14
	.cfi_def_cfa_offset 24
	pushq	%r13
	.cfi_def_cfa_offset 32
	pushq	%r12
	.cfi_def_cfa_offset 40
	pushq	%rbx
	.cfi_def_cfa_offset 48
	subq	$16, %rsp
	.cfi_def_cfa_offset 64
	.cfi_offset %rbx, -48
	.cfi_offset %r12, -40
	.cfi_offset %r13, -32
	.cfi_offset %r14, -24
	.cfi_offset %r15, -16
	movq	%rsi, %r14
	movq	%rdi, %r12
	movq	%r14, (%r12)
	leaq	8(%r12), %r15
	movq	%r15, %rdi
	movq	%rdx, %rsi
	callq	eval
	cmpq	$65538, %rax            # imm = 0x10002
	je	.LBB60_1
# %bb.2:
	movq	(%rax), %rbx
	movq	8(%rax), %r13
	movq	%r13, (%rsp)
	movq	%rbx, 8(%rsp)
	movaps	(%rsp), %xmm0
	movups	%xmm0, (%r15)
	leaq	24(%r12), %rdi
	movq	cFJhc_Text_Read_readDec$d6(%rip), %rsi
	callq	s_alloc
	movq	%rax, %r15
	movq	$E__fJhc_Text_Read_readDec$d6+3, (%r15)
	movq	%rbx, 8(%r15)
	movq	%r14, 16(%r15)
	orq	$1, %r15
	movq	%r15, 24(%r12)
	leaq	32(%r12), %rdi
	movq	cFJhc_Text_Read_readDec$d5(%rip), %rsi
	callq	s_alloc
	movq	%rax, %rbx
	movq	$E__fJhc_Text_Read_readDec$d5+3, (%rbx)
	movq	%r14, 8(%rbx)
	movq	%r13, 16(%rbx)
	orq	$1, %rbx
	movq	%rbx, 32(%r12)
	addq	$40, %r12
	movq	cCJhc_Prim_Prim_$x3a(%rip), %rsi
	movq	%r12, %rdi
	callq	s_alloc
	movq	%r15, (%rax)
	movq	%rbx, 8(%rax)
	jmp	.LBB60_3
.LBB60_1:
	movl	$65538, %eax            # imm = 0x10002
.LBB60_3:
	addq	$16, %rsp
	popq	%rbx
	popq	%r12
	popq	%r13
	popq	%r14
	popq	%r15
	retq
.Lfunc_end60:
	.size	fJhc_Text_Read_readDec$d5, .Lfunc_end60-fJhc_Text_Read_readDec$d5
	.cfi_endproc
                                        # -- End function
	.p2align	4, 0x90         # -- Begin function fPrelude_Text_read$d2
	.type	fPrelude_Text_read$d2,@function
fPrelude_Text_read$d2:                  # @"fPrelude_Text_read$d2"
	.cfi_startproc
# %bb.0:
	pushq	%rbp
	.cfi_def_cfa_offset 16
	pushq	%r15
	.cfi_def_cfa_offset 24
	pushq	%r14
	.cfi_def_cfa_offset 32
	pushq	%r13
	.cfi_def_cfa_offset 40
	pushq	%r12
	.cfi_def_cfa_offset 48
	pushq	%rbx
	.cfi_def_cfa_offset 56
	subq	$40, %rsp
	.cfi_def_cfa_offset 96
	.cfi_offset %rbx, -56
	.cfi_offset %r12, -48
	.cfi_offset %r13, -40
	.cfi_offset %r14, -32
	.cfi_offset %r15, -24
	.cfi_offset %rbp, -16
	movq	%rsi, %r15
	movq	%rdi, %r13
	movq	%r15, (%r13)
	leaq	8(%r13), %rdi
	movq	%rdx, %rsi
	callq	eval
	movq	%rax, %rbx
	movq	%rbx, 8(%r13)
	leaq	16(%r13), %r12
	movq	cP1__Prelude_Text_read$d2(%rip), %rsi
	movq	%r12, %rdi
	callq	s_alloc
	movq	%rax, %r14
	movq	$1441794, (%r14)        # imm = 0x160002
	movq	%r15, 8(%r14)
	cmpq	$65538, %rbx            # imm = 0x10002
	je	.LBB61_1
# %bb.2:
	movq	(%rbx), %rsi
	movq	8(%rbx), %rax
	movq	%r14, 16(%rsp)
	movq	%rax, 8(%rsp)           # 8-byte Spill
	movq	%rax, 24(%rsp)
	movaps	16(%rsp), %xmm0
	movups	%xmm0, (%r12)
	leaq	32(%r13), %rdi
	callq	eval
	movq	(%rax), %rsi
	movq	8(%rax), %rbp
	movq	%rbp, 32(%r13)
	leaq	40(%r13), %rbx
	movq	%rbx, %rdi
	callq	eval
	cmpq	$65538, %rax            # imm = 0x10002
	je	.LBB61_4
# %bb.3:
	movl	$65538, %esi            # imm = 0x10002
	jmp	.LBB61_5
.LBB61_1:
	movl	$65538, %eax            # imm = 0x10002
	jmp	.LBB61_8
.LBB61_4:
	movq	cFPrelude_Text_read$d4(%rip), %rsi
	movq	%rbx, %rdi
	callq	s_alloc
	movq	%rax, %rsi
	movq	$E__fPrelude_Text_read$d4+3, (%rsi)
	movq	%r15, 8(%rsi)
	movq	%rbp, 16(%rsi)
	orq	$1, %rsi
.LBB61_5:
	movq	%r14, 40(%r13)
	movq	8(%rsp), %rbp           # 8-byte Reload
	movq	%rbp, 48(%r13)
	leaq	56(%r13), %rdi
	callq	eval
	movq	%rax, %rbx
	movq	%rbx, 56(%r13)
	leaq	64(%r13), %rdi
	movq	cBap__1__Prelude_Text_read$d3u101038(%rip), %rsi
	callq	s_alloc
	movq	%rax, %r15
	movq	$E__bap__1__Prelude_Text_read$d3u101038+3, (%r15)
	movq	%r14, 8(%r15)
	movq	%rbp, 16(%r15)
	orq	$1, %r15
	movq	%r15, 64(%r13)
	leaq	72(%r13), %r14
	movq	%r14, %rdi
	movq	%rbx, %rsi
	callq	eval
	cmpq	$65538, %rax            # imm = 0x10002
	je	.LBB61_6
# %bb.7:
	movq	(%rax), %r14
	movq	8(%rax), %rbp
	movq	%r14, 72(%r13)
	movq	%rbp, 80(%r13)
	leaq	88(%r13), %rdi
	movq	cFR$__fJhc_Basics_$pp(%rip), %rsi
	callq	s_alloc
	movq	%rax, %rbx
	movq	$E__fR$__fJhc_Basics_$pp+3, (%rbx)
	movq	%rbp, 8(%rbx)
	movq	%r15, 16(%rbx)
	orq	$1, %rbx
	movq	%rbx, 88(%r13)
	addq	$96, %r13
	movq	cCJhc_Prim_Prim_$x3a(%rip), %rsi
	movq	%r13, %rdi
	callq	s_alloc
	movq	%r14, (%rax)
	movq	%rbx, 8(%rax)
	jmp	.LBB61_8
.LBB61_6:
	movq	%r14, %rdi
	movq	%r15, %rsi
	callq	eval
.LBB61_8:
	addq	$40, %rsp
	popq	%rbx
	popq	%r12
	popq	%r13
	popq	%r14
	popq	%r15
	popq	%rbp
	retq
.Lfunc_end61:
	.size	fPrelude_Text_read$d2, .Lfunc_end61-fPrelude_Text_read$d2
	.cfi_endproc
                                        # -- End function
	.p2align	4, 0x90         # -- Begin function fW$__fInstance$__iJhc_Show_showsPrec_Main_AtaCapabilities$d2
	.type	fW$__fInstance$__iJhc_Show_showsPrec_Main_AtaCapabilities$d2,@function
fW$__fInstance$__iJhc_Show_showsPrec_Main_AtaCapabilities$d2: # @"fW$__fInstance$__iJhc_Show_showsPrec_Main_AtaCapabilities$d2"
	.cfi_startproc
# %bb.0:
	pushq	%rbp
	.cfi_def_cfa_offset 16
	pushq	%r15
	.cfi_def_cfa_offset 24
	pushq	%r14
	.cfi_def_cfa_offset 32
	pushq	%r13
	.cfi_def_cfa_offset 40
	pushq	%r12
	.cfi_def_cfa_offset 48
	pushq	%rbx
	.cfi_def_cfa_offset 56
	pushq	%rax
	.cfi_def_cfa_offset 64
	.cfi_offset %rbx, -56
	.cfi_offset %r12, -48
	.cfi_offset %r13, -40
	.cfi_offset %r14, -32
	.cfi_offset %r15, -24
	.cfi_offset %rbp, -16
	movq	%r8, %r13
	movl	%ecx, %r12d
	movl	%edx, (%rsp)            # 4-byte Spill
	movl	%esi, 4(%rsp)           # 4-byte Spill
	movq	%rdi, %r15
	movq	%r13, (%r15)
	leaq	8(%r15), %rdi
	movq	cCJhc_Prim_Prim_$x3a(%rip), %rsi
	callq	s_alloc
	movq	%rax, %r14
	movq	$502, (%r14)            # imm = 0x1F6
	movq	%r13, 8(%r14)
	movq	%r14, 8(%r15)
	leaq	16(%r15), %rdi
	movq	cFW$__fInstance$__iJhc_Show_showsPrec_Main_AtaCapabilities$d3(%rip), %rsi
	callq	s_alloc
	movq	%rax, %rbp
	movq	$E__fW$__fInstance$__iJhc_Show_showsPrec_Main_AtaCapabilities$d3+3, (%rbp)
	movq	%r14, 8(%rbp)
	movw	%r12w, 16(%rbp)
	orq	$1, %rbp
	movq	%rbp, 16(%r15)
	leaq	24(%r15), %rdi
	movq	cFJhc_Show_showString(%rip), %rsi
	callq	s_alloc
	movq	%rax, %rbx
	movq	$E__fJhc_Show_showString+3, (%rbx)
	movq	$_c100, 8(%rbx)
	movq	%rbp, 16(%rbx)
	orq	$1, %rbx
	movq	%rbx, 24(%r15)
	leaq	32(%r15), %rdi
	movq	cFJhc_Show_showString(%rip), %rsi
	callq	s_alloc
	movq	%rax, %rbp
	movq	$E__fJhc_Show_showString+3, (%rbp)
	movq	$_c113, 8(%rbp)
	movq	%rbx, 16(%rbp)
	orq	$1, %rbp
	movq	%rbp, 32(%r15)
	leaq	40(%r15), %rdi
	movq	cCJhc_Prim_Prim_$x3a(%rip), %rsi
	callq	s_alloc
	movq	%rax, %rbx
	movq	$178, (%rbx)
	movq	%rbp, 8(%rbx)
	movq	%rbx, 40(%r15)
	leaq	48(%r15), %rdi
	movq	cFW$__fInstance$__iJhc_Show_showsPrec_Main_AtaCapabilities$d4(%rip), %rsi
	callq	s_alloc
	movq	%rax, %rbp
	movq	$E__fW$__fInstance$__iJhc_Show_showsPrec_Main_AtaCapabilities$d4+3, (%rbp)
	movq	%rbx, 8(%rbp)
	movl	(%rsp), %eax            # 4-byte Reload
	movw	%ax, 16(%rbp)
	orq	$1, %rbp
	movq	%rbp, 48(%r15)
	leaq	56(%r15), %rdi
	movq	cFJhc_Show_showString(%rip), %rsi
	callq	s_alloc
	movq	%rax, %rbx
	movq	$E__fJhc_Show_showString+3, (%rbx)
	movq	$_c100, 8(%rbx)
	movq	%rbp, 16(%rbx)
	orq	$1, %rbx
	movq	%rbx, 56(%r15)
	leaq	64(%r15), %rdi
	movq	cFJhc_Show_showString(%rip), %rsi
	callq	s_alloc
	movq	%rax, %rbp
	movq	$E__fJhc_Show_showString+3, (%rbp)
	movq	$_c117, 8(%rbp)
	movq	%rbx, 16(%rbp)
	orq	$1, %rbp
	movq	%rbp, 64(%r15)
	leaq	72(%r15), %rdi
	movq	cCJhc_Prim_Prim_$x3a(%rip), %rsi
	callq	s_alloc
	movq	%rax, %rbx
	movq	$178, (%rbx)
	movq	%rbp, 8(%rbx)
	movq	%rbx, 72(%r15)
	leaq	80(%r15), %rdi
	movq	cFW$__fInstance$__iJhc_Show_showsPrec_Main_AtaCapabilities$d5(%rip), %rsi
	callq	s_alloc
	movq	%rax, %rbp
	movq	$E__fW$__fInstance$__iJhc_Show_showsPrec_Main_AtaCapabilities$d5+3, (%rbp)
	movq	%rbx, 8(%rbp)
	movl	4(%rsp), %eax           # 4-byte Reload
	movw	%ax, 16(%rbp)
	orq	$1, %rbp
	movq	%rbp, 80(%r15)
	leaq	88(%r15), %rdi
	movq	cFJhc_Show_showString(%rip), %rsi
	callq	s_alloc
	movq	%rax, %rbx
	movq	$E__fJhc_Show_showString+3, (%rbx)
	movq	$_c100, 8(%rbx)
	movq	%rbp, 16(%rbx)
	orq	$1, %rbx
	movq	%rbx, 88(%r15)
	leaq	96(%r15), %rdi
	movq	cFJhc_Show_showString(%rip), %rsi
	callq	s_alloc
	movq	%rax, %rbp
	movq	$E__fJhc_Show_showString+3, (%rbp)
	movq	$_c122, 8(%rbp)
	movq	%rbx, 16(%rbp)
	orq	$1, %rbp
	movq	%rbp, 96(%r15)
	leaq	104(%r15), %rdi
	movq	cFJhc_Show_showString(%rip), %rsi
	callq	s_alloc
	movq	%rax, %rbx
	movq	$E__fJhc_Show_showString+3, (%rbx)
	movq	$_c124, 8(%rbx)
	movq	%rbp, 16(%rbx)
	orq	$1, %rbx
	movq	%rbx, 104(%r15)
	leaq	112(%r15), %r14
	movl	$_c139, %esi
	movq	%r14, %rdi
	callq	eval
	cmpq	$65538, %rax            # imm = 0x10002
	je	.LBB62_2
# %bb.1:
	movq	(%rax), %r14
	movq	8(%rax), %r12
	movq	%r14, 112(%r15)
	movq	%r12, 120(%r15)
	movq	%r15, %rdi
	subq	$-128, %rdi
	movq	cFR$__fJhc_Basics_$pp(%rip), %rsi
	callq	s_alloc
	movq	%rax, %rbp
	movq	$E__fR$__fJhc_Basics_$pp+3, (%rbp)
	movq	%r12, 8(%rbp)
	movq	%rbx, 16(%rbp)
	orq	$1, %rbp
	movq	%rbp, 128(%r15)
	addq	$136, %r15
	movq	cCJhc_Prim_Prim_$x3a(%rip), %rsi
	movq	%r15, %rdi
	callq	s_alloc
	movq	%r14, (%rax)
	movq	%rbp, 8(%rax)
	addq	$8, %rsp
	popq	%rbx
	popq	%r12
	popq	%r13
	popq	%r14
	popq	%r15
	popq	%rbp
	retq
.LBB62_2:
	movq	%r14, %rdi
	movq	%rbx, %rsi
	addq	$8, %rsp
	popq	%rbx
	popq	%r12
	popq	%r13
	popq	%r14
	popq	%r15
	popq	%rbp
	jmp	eval                    # TAILCALL
.Lfunc_end62:
	.size	fW$__fInstance$__iJhc_Show_showsPrec_Main_AtaCapabilities$d2, .Lfunc_end62-fW$__fInstance$__iJhc_Show_showsPrec_Main_AtaCapabilities$d2
	.cfi_endproc
                                        # -- End function
	.p2align	4, 0x90         # -- Begin function fW$__fInstance$__iJhc_Show_showsPrec_Main_AtaController$d2
	.type	fW$__fInstance$__iJhc_Show_showsPrec_Main_AtaController$d2,@function
fW$__fInstance$__iJhc_Show_showsPrec_Main_AtaController$d2: # @"fW$__fInstance$__iJhc_Show_showsPrec_Main_AtaController$d2"
	.cfi_startproc
# %bb.0:
	pushq	%rbp
	.cfi_def_cfa_offset 16
	pushq	%r15
	.cfi_def_cfa_offset 24
	pushq	%r14
	.cfi_def_cfa_offset 32
	pushq	%r13
	.cfi_def_cfa_offset 40
	pushq	%r12
	.cfi_def_cfa_offset 48
	pushq	%rbx
	.cfi_def_cfa_offset 56
	pushq	%rax
	.cfi_def_cfa_offset 64
	.cfi_offset %rbx, -56
	.cfi_offset %r12, -48
	.cfi_offset %r13, -40
	.cfi_offset %r14, -32
	.cfi_offset %r15, -24
	.cfi_offset %rbp, -16
	movq	%r8, %r13
	movl	%ecx, %r15d
	movl	%edx, %r14d
	movl	%esi, %r12d
	movq	%rdi, %rbx
	movq	%r13, (%rbx)
	leaq	8(%rbx), %rdi
	movq	cFW$__fInstance$__iJhc_Show_showsPrec_Jhc_Type_Word_Word16(%rip), %rsi
	callq	s_alloc
	movq	%rax, %rbp
	movq	$E__fW$__fInstance$__iJhc_Show_showsPrec_Jhc_Type_Word_Word16+3, (%rbp)
	movw	%r12w, 16(%rbp)
	movq	%r13, 8(%rbp)
	orq	$1, %rbp
	movq	%rbp, 8(%rbx)
	leaq	16(%rbx), %rdi
	movq	cCJhc_Prim_Prim_$x3a(%rip), %rsi
	callq	s_alloc
	movq	%rax, %r12
	movq	$130, (%r12)
	movq	%rbp, 8(%r12)
	movq	%r12, 16(%rbx)
	leaq	24(%rbx), %rdi
	movq	cFW$__fJhc_Inst_Show_showWord(%rip), %rsi
	callq	s_alloc
	movq	%rax, %rbp
	movq	$E__fW$__fJhc_Inst_Show_showWord+3, (%rbp)
	movl	%r15d, 16(%rbp)
	movq	%r12, 8(%rbp)
	orq	$1, %rbp
	movq	%rbp, 24(%rbx)
	leaq	32(%rbx), %rdi
	movq	cCJhc_Prim_Prim_$x3a(%rip), %rsi
	callq	s_alloc
	movq	%rax, %r15
	movq	$130, (%r15)
	movq	%rbp, 8(%r15)
	movq	%r15, 32(%rbx)
	leaq	40(%rbx), %rdi
	movq	cFW$__fJhc_Inst_Show_showWord(%rip), %rsi
	callq	s_alloc
	movq	%rax, %rbp
	movq	$E__fW$__fJhc_Inst_Show_showWord+3, (%rbp)
	movl	%r14d, 16(%rbp)
	movq	%r15, 8(%rbp)
	orq	$1, %rbp
	movq	%rbp, 40(%rbx)
	leaq	48(%rbx), %rdi
	movq	cCJhc_Prim_Prim_$x3a(%rip), %rsi
	callq	s_alloc
	movq	%rax, %r15
	movq	$130, (%r15)
	movq	%rbp, 8(%r15)
	movq	%r15, 48(%rbx)
	leaq	56(%rbx), %r14
	movl	$_c214, %esi
	movq	%r14, %rdi
	callq	eval
	cmpq	$65538, %rax            # imm = 0x10002
	je	.LBB63_2
# %bb.1:
	movq	(%rax), %r14
	movq	8(%rax), %r12
	movq	%r14, 56(%rbx)
	movq	%r12, 64(%rbx)
	leaq	72(%rbx), %rdi
	movq	cFR$__fJhc_Basics_$pp(%rip), %rsi
	callq	s_alloc
	movq	%rax, %rbp
	movq	$E__fR$__fJhc_Basics_$pp+3, (%rbp)
	movq	%r12, 8(%rbp)
	movq	%r15, 16(%rbp)
	orq	$1, %rbp
	movq	%rbp, 72(%rbx)
	addq	$80, %rbx
	movq	cCJhc_Prim_Prim_$x3a(%rip), %rsi
	movq	%rbx, %rdi
	callq	s_alloc
	movq	%r14, (%rax)
	movq	%rbp, 8(%rax)
	addq	$8, %rsp
	popq	%rbx
	popq	%r12
	popq	%r13
	popq	%r14
	popq	%r15
	popq	%rbp
	retq
.LBB63_2:
	movq	%r14, %rdi
	movq	%r15, %rsi
	addq	$8, %rsp
	popq	%rbx
	popq	%r12
	popq	%r13
	popq	%r14
	popq	%r15
	popq	%rbp
	jmp	eval                    # TAILCALL
.Lfunc_end63:
	.size	fW$__fInstance$__iJhc_Show_showsPrec_Main_AtaController$d2, .Lfunc_end63-fW$__fInstance$__iJhc_Show_showsPrec_Main_AtaController$d2
	.cfi_endproc
                                        # -- End function
	.section	.rodata.cst16,"aM",@progbits,16
	.p2align	4               # -- Begin function ftheMain$d25
.LCPI64_0:
	.quad	2                       # 0x2
	.zero	8
	.text
	.p2align	4, 0x90
	.type	ftheMain$d25,@function
ftheMain$d25:                           # @"ftheMain$d25"
	.cfi_startproc
# %bb.0:
	pushq	%rbp
	.cfi_def_cfa_offset 16
	pushq	%r15
	.cfi_def_cfa_offset 24
	pushq	%r14
	.cfi_def_cfa_offset 32
	pushq	%r13
	.cfi_def_cfa_offset 40
	pushq	%r12
	.cfi_def_cfa_offset 48
	pushq	%rbx
	.cfi_def_cfa_offset 56
	pushq	%rax
	.cfi_def_cfa_offset 64
	.cfi_offset %rbx, -56
	.cfi_offset %r12, -48
	.cfi_offset %r13, -40
	.cfi_offset %r14, -32
	.cfi_offset %r15, -24
	.cfi_offset %rbp, -16
	movq	%rsi, %r15
	movq	%rdi, %r14
	movq	%r15, (%r14)
	leaq	8(%r14), %rdi
	movq	%rdx, %rsi
	callq	eval
	movq	%rax, (%rsp)            # 8-byte Spill
	movq	%rax, 8(%r14)
	leaq	16(%r14), %rdi
	movq	cFtheMain$d26(%rip), %rsi
	callq	s_alloc
	movq	%rax, %r12
	movq	$E__ftheMain$d26+3, (%r12)
	movq	%r15, 8(%r12)
	orq	$1, %r12
	movq	%r12, 16(%r14)
	leaq	24(%r14), %rdi
	movq	cFtheMain$d27(%rip), %rsi
	callq	s_alloc
	movq	%rax, %r13
	movq	$E__ftheMain$d27+3, (%r13)
	movq	%r15, 8(%r13)
	orq	$1, %r13
	movq	%r13, 24(%r14)
	leaq	32(%r14), %rdi
	movq	cFtheMain$d28(%rip), %rsi
	callq	s_alloc
	movq	%rax, %rbp
	movq	$E__ftheMain$d28+3, (%rbp)
	movq	%r15, 8(%rbp)
	orq	$1, %rbp
	movq	%rbp, 32(%r14)
	leaq	40(%r14), %rdi
	movq	cCJhc_Prim_Prim_$LccR(%rip), %rsi
	callq	s_alloc
	movq	%rax, %rbx
	movq	%r12, (%rbx)
	movq	%r13, 8(%rbx)
	movq	%rbp, 16(%rbx)
	movq	%rbx, 40(%r14)
	leaq	48(%r14), %rdi
	movq	cFInstance$__iJhc_Show_show_default(%rip), %rsi
	callq	s_alloc
	movq	%rax, %rbp
	movq	$E__fInstance$__iJhc_Show_show_default+3, (%rbp)
	movq	$_c599, 8(%rbp)
	movq	%rbx, 16(%rbp)
	orq	$1, %rbp
	movq	%rbp, 48(%r14)
	leaq	56(%r14), %rdi
	movq	cFJhc_Basics_$pp(%rip), %rsi
	callq	s_alloc
	movq	%rax, %r15
	movq	$E__fJhc_Basics_$pp+3, (%r15)
	movl	$_c602, %eax
	movq	%rax, %xmm0
	movdqa	.LCPI64_0(%rip), %xmm1  # xmm1 = <2,u>
	punpcklqdq	%xmm0, %xmm1    # xmm1 = xmm1[0],xmm0[0]
	movdqu	%xmm1, 8(%r15)
	movq	%rbp, 24(%r15)
	orq	$1, %r15
	movq	%r15, 56(%r14)
	leaq	64(%r14), %r12
	movq	%r12, %rdi
	movq	(%rsp), %rsi            # 8-byte Reload
	callq	eval
	cmpq	$65538, %rax            # imm = 0x10002
	je	.LBB64_2
# %bb.1:
	movq	(%rax), %r12
	movq	8(%rax), %rbp
	movq	%r12, 64(%r14)
	movq	%rbp, 72(%r14)
	leaq	80(%r14), %rdi
	movq	cFR$__fJhc_Basics_$pp(%rip), %rsi
	callq	s_alloc
	movq	%rax, %rbx
	movq	$E__fR$__fJhc_Basics_$pp+3, (%rbx)
	movq	%rbp, 8(%rbx)
	movq	%r15, 16(%rbx)
	orq	$1, %rbx
	movq	%rbx, 80(%r14)
	addq	$88, %r14
	movq	cCJhc_Prim_Prim_$x3a(%rip), %rsi
	movq	%r14, %rdi
	callq	s_alloc
	movq	%r12, (%rax)
	movq	%rbx, 8(%rax)
	addq	$8, %rsp
	popq	%rbx
	popq	%r12
	popq	%r13
	popq	%r14
	popq	%r15
	popq	%rbp
	retq
.LBB64_2:
	movq	%r12, %rdi
	movq	%r15, %rsi
	addq	$8, %rsp
	popq	%rbx
	popq	%r12
	popq	%r13
	popq	%r14
	popq	%r15
	popq	%rbp
	jmp	eval                    # TAILCALL
.Lfunc_end64:
	.size	ftheMain$d25, .Lfunc_end64-ftheMain$d25
	.cfi_endproc
                                        # -- End function
	.p2align	4, 0x90         # -- Begin function E__fJhc_Show_showsPrec$d3
	.type	E__fJhc_Show_showsPrec$d3,@function
E__fJhc_Show_showsPrec$d3:              # @"E__fJhc_Show_showsPrec$d3"
	.cfi_startproc
# %bb.0:
	pushq	%rbp
	.cfi_def_cfa_offset 16
	pushq	%r15
	.cfi_def_cfa_offset 24
	pushq	%r14
	.cfi_def_cfa_offset 32
	pushq	%r13
	.cfi_def_cfa_offset 40
	pushq	%r12
	.cfi_def_cfa_offset 48
	pushq	%rbx
	.cfi_def_cfa_offset 56
	subq	$24, %rsp
	.cfi_def_cfa_offset 80
	.cfi_offset %rbx, -56
	.cfi_offset %r12, -48
	.cfi_offset %r13, -40
	.cfi_offset %r14, -32
	.cfi_offset %r15, -24
	.cfi_offset %rbp, -16
	movq	%rsi, %r14
	movq	%rdi, %r12
	movq	%r14, %rax
	orq	$1, %rax
	movq	%rax, (%r12)
	movb	42(%r14), %al
	movb	%al, 7(%rsp)            # 1-byte Spill
	movq	32(%r14), %rax
	movq	%rax, 16(%rsp)          # 8-byte Spill
	movq	8(%r14), %rsi
	movq	16(%r14), %rbp
	movzwl	40(%r14), %eax
	movw	%ax, 8(%rsp)            # 2-byte Spill
	movq	24(%r14), %r13
	movq	%rbp, 8(%r12)
	movq	%r13, 16(%r12)
	leaq	24(%r12), %r15
	movq	%r15, %rdi
	callq	eval
	movl	(%rax), %ecx
	movl	%ecx, 12(%rsp)          # 4-byte Spill
	movzwl	4(%rax), %eax
	movw	%ax, 10(%rsp)           # 2-byte Spill
	movq	cFJhc_Show_showsPrec$d4(%rip), %rsi
	movq	%r15, %rdi
	callq	s_alloc
	movq	%rax, %rbx
	movq	$E__fJhc_Show_showsPrec$d4+3, (%rbx)
	movq	%rbp, 8(%rbx)
	movq	%r13, 16(%rbx)
	orq	$1, %rbx
	movq	%rbx, 24(%r12)
	leaq	32(%r12), %rdi
	movq	cFJhc_Show_showString(%rip), %rsi
	callq	s_alloc
	movq	%rax, %r15
	movq	$E__fJhc_Show_showString+3, (%r15)
	movq	$_c100, 8(%r15)
	movq	%rbx, 16(%r15)
	orq	$1, %r15
	movq	%r15, 32(%r12)
	leaq	40(%r12), %rdi
	movq	cFJhc_Show_showString(%rip), %rsi
	callq	s_alloc
	movq	%rax, %rbx
	movq	$E__fJhc_Show_showString+3, (%rbx)
	movq	$_c215, 8(%rbx)
	movq	%r15, 16(%rbx)
	orq	$1, %rbx
	movq	%rbx, 40(%r12)
	leaq	48(%r12), %rdi
	movq	cCJhc_Prim_Prim_$x3a(%rip), %rsi
	callq	s_alloc
	movq	%rax, %r15
	movq	$178, (%r15)
	movq	%rbx, 8(%r15)
	movq	%r15, 48(%r12)
	leaq	56(%r12), %rdi
	movq	cFW$__fInstance$__iJhc_Show_showsPrec_Jhc_Type_Word_Word8(%rip), %rsi
	callq	s_alloc
	movq	%rax, %rbx
	movq	$E__fW$__fInstance$__iJhc_Show_showsPrec_Jhc_Type_Word_Word8+3, (%rbx)
	movb	7(%rsp), %al            # 1-byte Reload
	movb	%al, 16(%rbx)
	movq	%r15, 8(%rbx)
	orq	$1, %rbx
	movq	%rbx, 56(%r12)
	leaq	64(%r12), %rdi
	movq	cFJhc_Show_showString(%rip), %rsi
	callq	s_alloc
	movq	%rax, %r15
	movq	$E__fJhc_Show_showString+3, (%r15)
	movq	$_c100, 8(%r15)
	movq	%rbx, 16(%r15)
	orq	$1, %r15
	movq	%r15, 64(%r12)
	leaq	72(%r12), %rdi
	movq	cFJhc_Show_showString(%rip), %rsi
	callq	s_alloc
	movq	%rax, %rbx
	movq	$E__fJhc_Show_showString+3, (%rbx)
	movq	$_c221, 8(%rbx)
	movq	%r15, 16(%rbx)
	orq	$1, %rbx
	movq	%rbx, 72(%r12)
	leaq	80(%r12), %rdi
	movq	cCJhc_Prim_Prim_$x3a(%rip), %rsi
	callq	s_alloc
	movq	%rax, %r15
	movq	$178, (%r15)
	movq	%rbx, 8(%r15)
	movq	%r15, 80(%r12)
	leaq	88(%r12), %rdi
	movq	cFW$__fJhc_Inst_Show_showWordMax(%rip), %rsi
	callq	s_alloc
	movq	%rax, %rbx
	movq	$E__fW$__fJhc_Inst_Show_showWordMax+3, (%rbx)
	movq	16(%rsp), %rax          # 8-byte Reload
	movq	%rax, 16(%rbx)
	movq	%r15, 8(%rbx)
	orq	$1, %rbx
	movq	%rbx, 88(%r12)
	leaq	96(%r12), %rdi
	movq	cFJhc_Show_showString(%rip), %rsi
	callq	s_alloc
	movq	%rax, %r15
	movq	$E__fJhc_Show_showString+3, (%r15)
	movq	$_c100, 8(%r15)
	movq	%rbx, 16(%r15)
	orq	$1, %r15
	movq	%r15, 96(%r12)
	leaq	104(%r12), %rdi
	movq	cFJhc_Show_showString(%rip), %rsi
	callq	s_alloc
	movq	%rax, %rbx
	movq	$E__fJhc_Show_showString+3, (%rbx)
	movq	$_c230, 8(%rbx)
	movq	%r15, 16(%rbx)
	orq	$1, %rbx
	movq	%rbx, 104(%r12)
	leaq	112(%r12), %rdi
	movq	cCJhc_Prim_Prim_$x3a(%rip), %rsi
	callq	s_alloc
	movq	%rax, %r15
	movq	$178, (%r15)
	movq	%rbx, 8(%r15)
	movq	%r15, 112(%r12)
	leaq	120(%r12), %rdi
	movq	cFJhc_Show_showsPrec$d5(%rip), %rsi
	callq	s_alloc
	movq	%rax, %r13
	movq	$E__fJhc_Show_showsPrec$d5+3, (%r13)
	movq	%r15, 8(%r13)
	movzwl	8(%rsp), %eax           # 2-byte Folded Reload
	movw	%ax, 16(%r13)
	orq	$1, %r13
	movq	%r13, 120(%r12)
	movq	%r12, %rdi
	subq	$-128, %rdi
	movq	cFJhc_Show_showString(%rip), %rsi
	callq	s_alloc
	movq	%rax, %r15
	movq	$E__fJhc_Show_showString+3, (%r15)
	movq	$_c100, 8(%r15)
	movq	%r13, 16(%r15)
	orq	$1, %r15
	movq	%r15, 128(%r12)
	leaq	136(%r12), %rdi
	movq	cFJhc_Show_showString(%rip), %rsi
	callq	s_alloc
	movq	%rax, %rbx
	movq	$E__fJhc_Show_showString+3, (%rbx)
	movq	$_c236, 8(%rbx)
	movq	%r15, 16(%rbx)
	orq	$1, %rbx
	movq	%rbx, 136(%r12)
	leaq	144(%r12), %rdi
	movq	cCJhc_Prim_Prim_$x3a(%rip), %rsi
	callq	s_alloc
	movq	%rax, %r15
	movq	$178, (%r15)
	movq	%rbx, 8(%r15)
	movq	%r15, 144(%r12)
	leaq	152(%r12), %rdi
	movq	cP1__W$__fInstance$__iJhc_Show_showsPrec_Main_AtaController$d2(%rip), %rsi
	callq	s_alloc
	movq	%rax, %r13
	movq	$2621442, (%r13)        # imm = 0x280002
	movzwl	10(%rsp), %eax          # 2-byte Folded Reload
	movw	%ax, 8(%r13)
	movl	12(%rsp), %eax          # 4-byte Reload
	movl	%eax, 10(%r13)
	movl	$1, %edi
	callq	assert
	movq	%r13, 152(%r12)
	leaq	160(%r12), %rdi
	movq	cCJhc_Prim_Prim_$x3a(%rip), %rsi
	callq	s_alloc
	movq	%rax, %rbp
	movq	$166, (%rbp)
	movq	%r15, 8(%rbp)
	movq	%rbp, 160(%r12)
	leaq	168(%r12), %rdi
	movq	cBap__1__W$__fInstance$__iJhc_Show_showsPrec_Main_AtaController__100608(%rip), %rsi
	callq	s_alloc
	movq	%rax, %rbx
	movq	$E__bap__1__W$__fInstance$__iJhc_Show_showsPrec_Main_AtaController__100608+3, (%rbx)
	movq	%r13, 8(%rbx)
	movq	%rbp, 16(%rbx)
	orq	$1, %rbx
	movq	%rbx, 168(%r12)
	addq	$176, %r12
	movq	cCJhc_Prim_Prim_$x3a(%rip), %rsi
	movq	%r12, %rdi
	callq	s_alloc
	movq	$162, (%rax)
	movq	%rbx, 8(%rax)
	movq	%rax, (%r14)
	addq	$24, %rsp
	popq	%rbx
	popq	%r12
	popq	%r13
	popq	%r14
	popq	%r15
	popq	%rbp
	retq
.Lfunc_end65:
	.size	E__fJhc_Show_showsPrec$d3, .Lfunc_end65-E__fJhc_Show_showsPrec$d3
	.cfi_endproc
                                        # -- End function
	.p2align	4, 0x90         # -- Begin function E__fJhc_Show_showString
	.type	E__fJhc_Show_showString,@function
E__fJhc_Show_showString:                # @E__fJhc_Show_showString
	.cfi_startproc
# %bb.0:
	pushq	%rbp
	.cfi_def_cfa_offset 16
	pushq	%r15
	.cfi_def_cfa_offset 24
	pushq	%r14
	.cfi_def_cfa_offset 32
	pushq	%r13
	.cfi_def_cfa_offset 40
	pushq	%r12
	.cfi_def_cfa_offset 48
	pushq	%rbx
	.cfi_def_cfa_offset 56
	pushq	%rax
	.cfi_def_cfa_offset 64
	.cfi_offset %rbx, -56
	.cfi_offset %r12, -48
	.cfi_offset %r13, -40
	.cfi_offset %r14, -32
	.cfi_offset %r15, -24
	.cfi_offset %rbp, -16
	movq	%rsi, %r14
	movq	%rdi, %rbx
	movq	%r14, %rax
	orq	$1, %rax
	movq	%rax, (%rbx)
	movq	8(%r14), %rsi
	movq	16(%r14), %r15
	movq	%r15, 8(%rbx)
	leaq	16(%rbx), %r12
	movq	%r12, %rdi
	callq	eval
	cmpq	$65538, %rax            # imm = 0x10002
	je	.LBB66_1
# %bb.2:
	movq	(%rax), %r13
	movq	8(%rax), %rbp
	movq	%r13, 16(%rbx)
	movq	%rbp, 24(%rbx)
	leaq	32(%rbx), %rdi
	movq	cFR$__fJhc_Basics_$pp(%rip), %rsi
	callq	s_alloc
	movq	%rax, %r12
	movq	$E__fR$__fJhc_Basics_$pp+3, (%r12)
	movq	%rbp, 8(%r12)
	movq	%r15, 16(%r12)
	orq	$1, %r12
	movq	%r12, 32(%rbx)
	addq	$40, %rbx
	movq	cCJhc_Prim_Prim_$x3a(%rip), %rsi
	movq	%rbx, %rdi
	callq	s_alloc
	movq	%r13, (%rax)
	movq	%r12, 8(%rax)
	jmp	.LBB66_3
.LBB66_1:
	movq	%r12, %rdi
	movq	%r15, %rsi
	callq	eval
.LBB66_3:
	movq	%rax, (%r14)
	addq	$8, %rsp
	popq	%rbx
	popq	%r12
	popq	%r13
	popq	%r14
	popq	%r15
	popq	%rbp
	retq
.Lfunc_end66:
	.size	E__fJhc_Show_showString, .Lfunc_end66-E__fJhc_Show_showString
	.cfi_endproc
                                        # -- End function
	.p2align	4, 0x90         # -- Begin function E__fJhc_Show_showsPrec$d4
	.type	E__fJhc_Show_showsPrec$d4,@function
E__fJhc_Show_showsPrec$d4:              # @"E__fJhc_Show_showsPrec$d4"
	.cfi_startproc
# %bb.0:
	pushq	%rbp
	.cfi_def_cfa_offset 16
	pushq	%r15
	.cfi_def_cfa_offset 24
	pushq	%r14
	.cfi_def_cfa_offset 32
	pushq	%r13
	.cfi_def_cfa_offset 40
	pushq	%r12
	.cfi_def_cfa_offset 48
	pushq	%rbx
	.cfi_def_cfa_offset 56
	pushq	%rax
	.cfi_def_cfa_offset 64
	.cfi_offset %rbx, -56
	.cfi_offset %r12, -48
	.cfi_offset %r13, -40
	.cfi_offset %r14, -32
	.cfi_offset %r15, -24
	.cfi_offset %rbp, -16
	movq	%rsi, %r14
	movq	%rdi, %rbp
	movq	%r14, %rax
	orq	$1, %rax
	movq	%rax, (%rbp)
	movq	8(%r14), %rsi
	movq	16(%r14), %rbx
	movq	%rbx, 8(%rbp)
	leaq	16(%rbp), %r15
	movq	%r15, %rdi
	callq	eval
	movl	(%rax), %r13d
	movzwl	4(%rax), %eax
	movw	%ax, 6(%rsp)            # 2-byte Spill
	movq	cCJhc_Prim_Prim_$x3a(%rip), %rsi
	movq	%r15, %rdi
	callq	s_alloc
	movq	%rax, %r15
	movq	$502, (%r15)            # imm = 0x1F6
	movq	%rbx, 8(%r15)
	movq	%r15, 16(%rbp)
	leaq	24(%rbp), %rdi
	movq	cP1__W$__fInstance$__iJhc_Show_showsPrec_Main_AtaCapabilities$d2(%rip), %rsi
	callq	s_alloc
	movq	%rax, %r12
	movq	$2555906, (%r12)        # imm = 0x270002
	movl	%r13d, 8(%r12)
	movzwl	6(%rsp), %eax           # 2-byte Folded Reload
	movw	%ax, 12(%r12)
	movl	$1, %edi
	callq	assert
	movq	%r12, 24(%rbp)
	leaq	32(%rbp), %rdi
	movq	cCJhc_Prim_Prim_$x3a(%rip), %rsi
	callq	s_alloc
	movq	%rax, %r13
	movq	$166, (%r13)
	movq	%r15, 8(%r13)
	movq	%r13, 32(%rbp)
	leaq	40(%rbp), %rdi
	movq	cBap__1__W$__fInstance$__iJhc_Show_showsPrec_Main_AtaCapabilities__101132(%rip), %rsi
	callq	s_alloc
	movq	%rax, %rbx
	movq	$E__bap__1__W$__fInstance$__iJhc_Show_showsPrec_Main_AtaCapabilities__101132+3, (%rbx)
	movq	%r12, 8(%rbx)
	movq	%r13, 16(%rbx)
	orq	$1, %rbx
	movq	%rbx, 40(%rbp)
	addq	$48, %rbp
	movq	cCJhc_Prim_Prim_$x3a(%rip), %rsi
	movq	%rbp, %rdi
	callq	s_alloc
	movq	$162, (%rax)
	movq	%rbx, 8(%rax)
	movq	%rax, (%r14)
	addq	$8, %rsp
	popq	%rbx
	popq	%r12
	popq	%r13
	popq	%r14
	popq	%r15
	popq	%rbp
	retq
.Lfunc_end67:
	.size	E__fJhc_Show_showsPrec$d4, .Lfunc_end67-E__fJhc_Show_showsPrec$d4
	.cfi_endproc
                                        # -- End function
	.p2align	4, 0x90         # -- Begin function E__fW$__fInstance$__iJhc_Show_showsPrec_Jhc_Type_Word_Word8
	.type	E__fW$__fInstance$__iJhc_Show_showsPrec_Jhc_Type_Word_Word8,@function
E__fW$__fInstance$__iJhc_Show_showsPrec_Jhc_Type_Word_Word8: # @"E__fW$__fInstance$__iJhc_Show_showsPrec_Jhc_Type_Word_Word8"
	.cfi_startproc
# %bb.0:
	pushq	%rbp
	.cfi_def_cfa_offset 16
	pushq	%r15
	.cfi_def_cfa_offset 24
	pushq	%r14
	.cfi_def_cfa_offset 32
	pushq	%r13
	.cfi_def_cfa_offset 40
	pushq	%r12
	.cfi_def_cfa_offset 48
	pushq	%rbx
	.cfi_def_cfa_offset 56
	subq	$24, %rsp
	.cfi_def_cfa_offset 80
	.cfi_offset %rbx, -56
	.cfi_offset %r12, -48
	.cfi_offset %r13, -40
	.cfi_offset %r14, -32
	.cfi_offset %r15, -24
	.cfi_offset %rbp, -16
	movq	%rsi, %r14
	movq	%rdi, %rcx
	movq	%r14, %rax
	orq	$1, %rax
	movq	%rax, (%rcx)
	movq	8(%r14), %r13
	movzbl	16(%r14), %ebp
	leaq	24(%rcx), %rdi
	movl	$3435973837, %eax       # imm = 0xCCCCCCCD
	imulq	%rbp, %rax
	shrq	$35, %rax
	addl	%eax, %eax
	leal	(%rax,%rax,4), %eax
	movl	%ebp, %ebx
	subl	%eax, %ebx
	shll	$2, %ebx
	orl	$194, %ebx
	movq	%r13, 8(%rcx)
	cmpq	$10, %rbp
	jb	.LBB68_4
# %bb.1:
	movq	%r14, 16(%rsp)          # 8-byte Spill
	movq	%rcx, 8(%rsp)           # 8-byte Spill
	movq	8(%rsp), %r12           # 8-byte Reload
	.p2align	4, 0x90
.LBB68_2:                               # =>This Inner Loop Header: Depth=1
	movl	%ebp, %r15d
	movl	$3435973837, %eax       # imm = 0xCCCCCCCD
	imulq	%rax, %r15
	shrq	$35, %r15
	movq	%rbx, 16(%r12)
	movq	cCJhc_Prim_Prim_$x3a(%rip), %rsi
	movq	%rdi, %r14
	callq	s_alloc
	movq	%r14, %rdi
	movq	%rbx, (%rax)
	movq	%r13, 8(%rax)
	movq	%r15, %rcx
	movl	$3435973837, %edx       # imm = 0xCCCCCCCD
	imulq	%rdx, %rcx
	shrq	$35, %rcx
	addl	%ecx, %ecx
	leal	(%rcx,%rcx,4), %ecx
	movl	%r15d, %ebx
	movq	%rax, 8(%r12)
	subl	%ecx, %ebx
	shll	$2, %ebx
	orl	$194, %ebx
	movq	%rax, %r13
	cmpl	$99, %ebp
	movl	%r15d, %ebp
	ja	.LBB68_2
# %bb.3:
	movl	%ebx, %ebx
	movq	%rax, %r13
	movq	16(%rsp), %r14          # 8-byte Reload
	movq	8(%rsp), %rcx           # 8-byte Reload
.LBB68_4:
	movq	%rbx, 16(%rcx)
	movq	cCJhc_Prim_Prim_$x3a(%rip), %rsi
	callq	s_alloc
	movq	%rbx, (%rax)
	movq	%r13, 8(%rax)
	movq	%rax, (%r14)
	addq	$24, %rsp
	popq	%rbx
	popq	%r12
	popq	%r13
	popq	%r14
	popq	%r15
	popq	%rbp
	retq
.Lfunc_end68:
	.size	E__fW$__fInstance$__iJhc_Show_showsPrec_Jhc_Type_Word_Word8, .Lfunc_end68-E__fW$__fInstance$__iJhc_Show_showsPrec_Jhc_Type_Word_Word8
	.cfi_endproc
                                        # -- End function
	.p2align	4, 0x90         # -- Begin function E__fW$__fJhc_Inst_Show_showWordMax
	.type	E__fW$__fJhc_Inst_Show_showWordMax,@function
E__fW$__fJhc_Inst_Show_showWordMax:     # @"E__fW$__fJhc_Inst_Show_showWordMax"
	.cfi_startproc
# %bb.0:
	pushq	%rbp
	.cfi_def_cfa_offset 16
	pushq	%r15
	.cfi_def_cfa_offset 24
	pushq	%r14
	.cfi_def_cfa_offset 32
	pushq	%r13
	.cfi_def_cfa_offset 40
	pushq	%r12
	.cfi_def_cfa_offset 48
	pushq	%rbx
	.cfi_def_cfa_offset 56
	subq	$24, %rsp
	.cfi_def_cfa_offset 80
	.cfi_offset %rbx, -56
	.cfi_offset %r12, -48
	.cfi_offset %r13, -40
	.cfi_offset %r14, -32
	.cfi_offset %r15, -24
	.cfi_offset %rbp, -16
	movq	%rsi, %rbx
	movq	%rdi, %rsi
	movq	%rbx, %rax
	orq	$1, %rax
	movq	%rax, (%rsi)
	movq	8(%rbx), %r14
	movq	16(%rbx), %r13
	leaq	24(%rsi), %rdi
	movabsq	$-3689348814741910323, %rcx # imm = 0xCCCCCCCCCCCCCCCD
	movq	%r13, %rax
	mulq	%rcx
	shrq	$2, %rdx
	movabsq	$4611686018427387902, %r12 # imm = 0x3FFFFFFFFFFFFFFE
	andq	%r12, %rdx
	leaq	(%rdx,%rdx,4), %rax
	movq	%r13, %rbp
	movq	%r14, 8(%rsi)
	subq	%rax, %rbp
	shlq	$2, %rbp
	orq	$194, %rbp
	cmpq	$10, %r13
	jb	.LBB69_4
# %bb.1:
	movq	%rbx, 16(%rsp)          # 8-byte Spill
	movq	%rdi, 8(%rsp)           # 8-byte Spill
	movq	%rsi, (%rsp)            # 8-byte Spill
	movq	(%rsp), %r15            # 8-byte Reload
	.p2align	4, 0x90
.LBB69_2:                               # =>This Inner Loop Header: Depth=1
	movq	%r13, %rax
	movabsq	$-3689348814741910323, %rcx # imm = 0xCCCCCCCCCCCCCCCD
	mulq	%rcx
	movq	%rdx, %rbx
	shrq	$3, %rbx
	movq	%rbp, 16(%r15)
	movq	cCJhc_Prim_Prim_$x3a(%rip), %rsi
	movq	8(%rsp), %rdi           # 8-byte Reload
	callq	s_alloc
	movq	%rax, %rcx
	movq	%rbp, (%rcx)
	movq	%r14, 8(%rcx)
	movq	%rbx, %rax
	movabsq	$-3689348814741910323, %rdx # imm = 0xCCCCCCCCCCCCCCCD
	mulq	%rdx
	shrq	$2, %rdx
	andq	%r12, %rdx
	leaq	(%rdx,%rdx,4), %rax
	movq	%rbx, %rbp
	movq	%rcx, 8(%r15)
	subq	%rax, %rbp
	shlq	$2, %rbp
	orq	$194, %rbp
	movq	%rcx, %r14
	cmpq	$99, %r13
	movq	%rbx, %r13
	ja	.LBB69_2
# %bb.3:
	movq	%rcx, %r14
	movq	16(%rsp), %rbx          # 8-byte Reload
	movq	8(%rsp), %rdi           # 8-byte Reload
	movq	(%rsp), %rsi            # 8-byte Reload
.LBB69_4:
	movq	%rbp, 16(%rsi)
	movq	cCJhc_Prim_Prim_$x3a(%rip), %rsi
	callq	s_alloc
	movq	%rbp, (%rax)
	movq	%r14, 8(%rax)
	movq	%rax, (%rbx)
	addq	$24, %rsp
	popq	%rbx
	popq	%r12
	popq	%r13
	popq	%r14
	popq	%r15
	popq	%rbp
	retq
.Lfunc_end69:
	.size	E__fW$__fJhc_Inst_Show_showWordMax, .Lfunc_end69-E__fW$__fJhc_Inst_Show_showWordMax
	.cfi_endproc
                                        # -- End function
	.p2align	4, 0x90         # -- Begin function E__fJhc_Show_showsPrec$d5
	.type	E__fJhc_Show_showsPrec$d5,@function
E__fJhc_Show_showsPrec$d5:              # @"E__fJhc_Show_showsPrec$d5"
	.cfi_startproc
# %bb.0:
	pushq	%rbp
	.cfi_def_cfa_offset 16
	pushq	%r15
	.cfi_def_cfa_offset 24
	pushq	%r14
	.cfi_def_cfa_offset 32
	pushq	%r13
	.cfi_def_cfa_offset 40
	pushq	%r12
	.cfi_def_cfa_offset 48
	pushq	%rbx
	.cfi_def_cfa_offset 56
	pushq	%rax
	.cfi_def_cfa_offset 64
	.cfi_offset %rbx, -56
	.cfi_offset %r12, -48
	.cfi_offset %r13, -40
	.cfi_offset %r14, -32
	.cfi_offset %r15, -24
	.cfi_offset %rbp, -16
	movq	%rsi, %r14
	movq	%rdi, %r13
	movq	%r14, %rax
	orq	$1, %rax
	movq	%rax, (%r13)
	movq	8(%r14), %r15
	movzwl	16(%r14), %eax
	testw	%ax, %ax
	je	.LBB70_1
# %bb.2:
	movzwl	%ax, %eax
	xorl	%edi, %edi
	cmpl	$1, %eax
	sete	%dil
	callq	assert
	movl	$_c90, %esi
	jmp	.LBB70_3
.LBB70_1:
	movl	$_c84, %esi
.LBB70_3:
	movq	%r15, 8(%r13)
	leaq	16(%r13), %r12
	movq	%r12, %rdi
	callq	eval
	cmpq	$65538, %rax            # imm = 0x10002
	je	.LBB70_4
# %bb.5:
	movq	(%rax), %r12
	movq	8(%rax), %rbp
	movq	%r12, 16(%r13)
	movq	%rbp, 24(%r13)
	leaq	32(%r13), %rdi
	movq	cFR$__fJhc_Basics_$pp(%rip), %rsi
	callq	s_alloc
	movq	%rax, %rbx
	movq	$E__fR$__fJhc_Basics_$pp+3, (%rbx)
	movq	%rbp, 8(%rbx)
	movq	%r15, 16(%rbx)
	orq	$1, %rbx
	movq	%rbx, 32(%r13)
	addq	$40, %r13
	movq	cCJhc_Prim_Prim_$x3a(%rip), %rsi
	movq	%r13, %rdi
	callq	s_alloc
	movq	%r12, (%rax)
	movq	%rbx, 8(%rax)
	jmp	.LBB70_6
.LBB70_4:
	movq	%r12, %rdi
	movq	%r15, %rsi
	callq	eval
.LBB70_6:
	movq	%rax, (%r14)
	addq	$8, %rsp
	popq	%rbx
	popq	%r12
	popq	%r13
	popq	%r14
	popq	%r15
	popq	%rbp
	retq
.Lfunc_end70:
	.size	E__fJhc_Show_showsPrec$d5, .Lfunc_end70-E__fJhc_Show_showsPrec$d5
	.cfi_endproc
                                        # -- End function
	.p2align	4, 0x90         # -- Begin function E__bap__1__W$__fInstance$__iJhc_Show_showsPrec_Main_AtaCapabilities__101132
	.type	E__bap__1__W$__fInstance$__iJhc_Show_showsPrec_Main_AtaCapabilities__101132,@function
E__bap__1__W$__fInstance$__iJhc_Show_showsPrec_Main_AtaCapabilities__101132: # @"E__bap__1__W$__fInstance$__iJhc_Show_showsPrec_Main_AtaCapabilities__101132"
	.cfi_startproc
# %bb.0:
	pushq	%rbx
	.cfi_def_cfa_offset 16
	.cfi_offset %rbx, -16
	movq	%rsi, %rbx
	movq	%rbx, %rax
	orq	$1, %rax
	movq	%rax, (%rdi)
	addq	$8, %rdi
	movq	8(%rbx), %rax
	movq	16(%rbx), %r8
	movzwl	12(%rax), %ecx
	movzwl	10(%rax), %edx
	movzwl	8(%rax), %esi
	callq	fW$__fInstance$__iJhc_Show_showsPrec_Main_AtaCapabilities$d2
	movq	%rax, (%rbx)
	popq	%rbx
	retq
.Lfunc_end71:
	.size	E__bap__1__W$__fInstance$__iJhc_Show_showsPrec_Main_AtaCapabilities__101132, .Lfunc_end71-E__bap__1__W$__fInstance$__iJhc_Show_showsPrec_Main_AtaCapabilities__101132
	.cfi_endproc
                                        # -- End function
	.p2align	4, 0x90         # -- Begin function E__bap__1__W$__fInstance$__iJhc_Show_showsPrec_Main_AtaController__100608
	.type	E__bap__1__W$__fInstance$__iJhc_Show_showsPrec_Main_AtaController__100608,@function
E__bap__1__W$__fInstance$__iJhc_Show_showsPrec_Main_AtaController__100608: # @"E__bap__1__W$__fInstance$__iJhc_Show_showsPrec_Main_AtaController__100608"
	.cfi_startproc
# %bb.0:
	pushq	%rbx
	.cfi_def_cfa_offset 16
	.cfi_offset %rbx, -16
	movq	%rsi, %rbx
	movq	%rbx, %rax
	orq	$1, %rax
	movq	%rax, (%rdi)
	addq	$8, %rdi
	movq	8(%rbx), %rax
	movq	16(%rbx), %r8
	movzwl	12(%rax), %ecx
	movzwl	10(%rax), %edx
	movzwl	8(%rax), %esi
	callq	fW$__fInstance$__iJhc_Show_showsPrec_Main_AtaController$d2
	movq	%rax, (%rbx)
	popq	%rbx
	retq
.Lfunc_end72:
	.size	E__bap__1__W$__fInstance$__iJhc_Show_showsPrec_Main_AtaController__100608, .Lfunc_end72-E__bap__1__W$__fInstance$__iJhc_Show_showsPrec_Main_AtaController__100608
	.cfi_endproc
                                        # -- End function
	.p2align	4, 0x90         # -- Begin function E__fJhc_Show_showsPrec$d7
	.type	E__fJhc_Show_showsPrec$d7,@function
E__fJhc_Show_showsPrec$d7:              # @"E__fJhc_Show_showsPrec$d7"
	.cfi_startproc
# %bb.0:
	pushq	%rbp
	.cfi_def_cfa_offset 16
	pushq	%r15
	.cfi_def_cfa_offset 24
	pushq	%r14
	.cfi_def_cfa_offset 32
	pushq	%r13
	.cfi_def_cfa_offset 40
	pushq	%r12
	.cfi_def_cfa_offset 48
	pushq	%rbx
	.cfi_def_cfa_offset 56
	subq	$24, %rsp
	.cfi_def_cfa_offset 80
	.cfi_offset %rbx, -56
	.cfi_offset %r12, -48
	.cfi_offset %r13, -40
	.cfi_offset %r14, -32
	.cfi_offset %r15, -24
	.cfi_offset %rbp, -16
	movq	%rsi, %r14
	movq	%rdi, %r12
	movq	%r14, %rax
	orq	$1, %rax
	movq	%rax, (%r12)
	movq	8(%r14), %rsi
	movq	16(%r14), %rbp
	movzwl	32(%r14), %eax
	movw	%ax, 16(%rsp)           # 2-byte Spill
	movq	24(%r14), %r13
	movb	34(%r14), %al
	movb	%al, 15(%rsp)           # 1-byte Spill
	movq	%r13, 8(%r12)
	movq	%rbp, 16(%r12)
	leaq	24(%r12), %r15
	movq	%r15, %rdi
	callq	eval
	movl	(%rax), %ecx
	movl	%ecx, 20(%rsp)          # 4-byte Spill
	movzwl	4(%rax), %eax
	movw	%ax, 18(%rsp)           # 2-byte Spill
	movq	cFJhc_Show_showsPrec$d8(%rip), %rsi
	movq	%r15, %rdi
	callq	s_alloc
	movq	%rax, %rbx
	movq	$E__fJhc_Show_showsPrec$d8+3, (%rbx)
	movq	%rbp, 8(%rbx)
	movq	%r13, 16(%rbx)
	orq	$1, %rbx
	movq	%rbx, 24(%r12)
	leaq	32(%r12), %rdi
	movq	cFJhc_Show_showString(%rip), %rsi
	callq	s_alloc
	movq	%rax, %r15
	movq	$E__fJhc_Show_showString+3, (%r15)
	movq	$_c100, 8(%r15)
	movq	%rbx, 16(%r15)
	orq	$1, %r15
	movq	%r15, 32(%r12)
	leaq	40(%r12), %rdi
	movq	cFJhc_Show_showString(%rip), %rsi
	callq	s_alloc
	movq	%rax, %rbx
	movq	$E__fJhc_Show_showString+3, (%rbx)
	movq	$_c215, 8(%rbx)
	movq	%r15, 16(%rbx)
	orq	$1, %rbx
	movq	%rbx, 40(%r12)
	leaq	48(%r12), %rdi
	movq	cCJhc_Prim_Prim_$x3a(%rip), %rsi
	callq	s_alloc
	movq	%rax, %r15
	movq	$178, (%r15)
	movq	%rbx, 8(%r15)
	movq	%r15, 48(%r12)
	leaq	56(%r12), %rdi
	movq	cFW$__fInstance$__iJhc_Show_showsPrec_Jhc_Type_Word_Word8(%rip), %rsi
	callq	s_alloc
	movq	%rax, %rbx
	movq	$E__fW$__fInstance$__iJhc_Show_showsPrec_Jhc_Type_Word_Word8+3, (%rbx)
	movb	15(%rsp), %al           # 1-byte Reload
	movb	%al, 16(%rbx)
	movq	%r15, 8(%rbx)
	orq	$1, %rbx
	movq	%rbx, 56(%r12)
	leaq	64(%r12), %rdi
	movq	cFJhc_Show_showString(%rip), %rsi
	callq	s_alloc
	movq	%rax, %r15
	movq	$E__fJhc_Show_showString+3, (%r15)
	movq	$_c100, 8(%r15)
	movq	%rbx, 16(%r15)
	orq	$1, %r15
	movq	%r15, 64(%r12)
	leaq	72(%r12), %rdi
	movq	cFJhc_Show_showString(%rip), %rsi
	callq	s_alloc
	movq	%rax, %rbx
	movq	$E__fJhc_Show_showString+3, (%rbx)
	movq	$_c221, 8(%rbx)
	movq	%r15, 16(%rbx)
	orq	$1, %rbx
	movq	%rbx, 72(%r12)
	leaq	80(%r12), %rdi
	movq	cCJhc_Prim_Prim_$x3a(%rip), %rsi
	callq	s_alloc
	movq	%rax, %r15
	movq	$178, (%r15)
	movq	%rbx, 8(%r15)
	movq	%r15, 80(%r12)
	leaq	88(%r12), %rdi
	movq	cFJhc_Show_showsPrec$d9(%rip), %rsi
	callq	s_alloc
	movq	%rax, %rbx
	movq	$E__fJhc_Show_showsPrec$d9+3, (%rbx)
	movzwl	16(%rsp), %eax          # 2-byte Folded Reload
	movw	%ax, 16(%rbx)
	movq	%r15, 8(%rbx)
	orq	$1, %rbx
	movq	%rbx, 88(%r12)
	leaq	96(%r12), %rdi
	movq	cFJhc_Show_showString(%rip), %rsi
	callq	s_alloc
	movq	%rax, %r15
	movq	$E__fJhc_Show_showString+3, (%r15)
	movq	$_c100, 8(%r15)
	movq	%rbx, 16(%r15)
	orq	$1, %r15
	movq	%r15, 96(%r12)
	leaq	104(%r12), %rdi
	movq	cFJhc_Show_showString(%rip), %rsi
	callq	s_alloc
	movq	%rax, %rbx
	movq	$E__fJhc_Show_showString+3, (%rbx)
	movq	$_c236, 8(%rbx)
	movq	%r15, 16(%rbx)
	orq	$1, %rbx
	movq	%rbx, 104(%r12)
	leaq	112(%r12), %rdi
	movq	cCJhc_Prim_Prim_$x3a(%rip), %rsi
	callq	s_alloc
	movq	%rax, %r15
	movq	$178, (%r15)
	movq	%rbx, 8(%r15)
	movq	%r15, 112(%r12)
	leaq	120(%r12), %rdi
	movq	cP1__W$__fInstance$__iJhc_Show_showsPrec_Main_AtaController$d2(%rip), %rsi
	callq	s_alloc
	movq	%rax, %r13
	movq	$2621442, (%r13)        # imm = 0x280002
	movzwl	18(%rsp), %eax          # 2-byte Folded Reload
	movw	%ax, 8(%r13)
	movl	20(%rsp), %eax          # 4-byte Reload
	movl	%eax, 10(%r13)
	movl	$1, %edi
	callq	assert
	movq	%r13, 120(%r12)
	movq	%r12, %rdi
	subq	$-128, %rdi
	movq	cCJhc_Prim_Prim_$x3a(%rip), %rsi
	callq	s_alloc
	movq	%rax, %rbp
	movq	$166, (%rbp)
	movq	%r15, 8(%rbp)
	movq	%rbp, 128(%r12)
	leaq	136(%r12), %rdi
	movq	cBap__1__W$__fInstance$__iJhc_Show_showsPrec_Main_AtaController__100608(%rip), %rsi
	callq	s_alloc
	movq	%rax, %rbx
	movq	$E__bap__1__W$__fInstance$__iJhc_Show_showsPrec_Main_AtaController__100608+3, (%rbx)
	movq	%r13, 8(%rbx)
	movq	%rbp, 16(%rbx)
	orq	$1, %rbx
	movq	%rbx, 136(%r12)
	addq	$144, %r12
	movq	cCJhc_Prim_Prim_$x3a(%rip), %rsi
	movq	%r12, %rdi
	callq	s_alloc
	movq	$162, (%rax)
	movq	%rbx, 8(%rax)
	movq	%rax, (%r14)
	addq	$24, %rsp
	popq	%rbx
	popq	%r12
	popq	%r13
	popq	%r14
	popq	%r15
	popq	%rbp
	retq
.Lfunc_end73:
	.size	E__fJhc_Show_showsPrec$d7, .Lfunc_end73-E__fJhc_Show_showsPrec$d7
	.cfi_endproc
                                        # -- End function
	.p2align	4, 0x90         # -- Begin function E__fJhc_Show_showsPrec$d8
	.type	E__fJhc_Show_showsPrec$d8,@function
E__fJhc_Show_showsPrec$d8:              # @"E__fJhc_Show_showsPrec$d8"
	.cfi_startproc
# %bb.0:
	pushq	%rbp
	.cfi_def_cfa_offset 16
	pushq	%r15
	.cfi_def_cfa_offset 24
	pushq	%r14
	.cfi_def_cfa_offset 32
	pushq	%r13
	.cfi_def_cfa_offset 40
	pushq	%r12
	.cfi_def_cfa_offset 48
	pushq	%rbx
	.cfi_def_cfa_offset 56
	pushq	%rax
	.cfi_def_cfa_offset 64
	.cfi_offset %rbx, -56
	.cfi_offset %r12, -48
	.cfi_offset %r13, -40
	.cfi_offset %r14, -32
	.cfi_offset %r15, -24
	.cfi_offset %rbp, -16
	movq	%rsi, %r14
	movq	%rdi, %rbp
	movq	%r14, %rax
	orq	$1, %rax
	movq	%rax, (%rbp)
	movq	8(%r14), %rbx
	movq	16(%r14), %rsi
	movq	%rbx, 8(%rbp)
	leaq	16(%rbp), %r15
	movq	%r15, %rdi
	callq	eval
	movl	(%rax), %r13d
	movzwl	4(%rax), %eax
	movw	%ax, 6(%rsp)            # 2-byte Spill
	movq	cCJhc_Prim_Prim_$x3a(%rip), %rsi
	movq	%r15, %rdi
	callq	s_alloc
	movq	%rax, %r15
	movq	$502, (%r15)            # imm = 0x1F6
	movq	%rbx, 8(%r15)
	movq	%r15, 16(%rbp)
	leaq	24(%rbp), %rdi
	movq	cP1__W$__fInstance$__iJhc_Show_showsPrec_Main_AtaCapabilities$d2(%rip), %rsi
	callq	s_alloc
	movq	%rax, %r12
	movq	$2555906, (%r12)        # imm = 0x270002
	movl	%r13d, 8(%r12)
	movzwl	6(%rsp), %eax           # 2-byte Folded Reload
	movw	%ax, 12(%r12)
	movl	$1, %edi
	callq	assert
	movq	%r12, 24(%rbp)
	leaq	32(%rbp), %rdi
	movq	cCJhc_Prim_Prim_$x3a(%rip), %rsi
	callq	s_alloc
	movq	%rax, %r13
	movq	$166, (%r13)
	movq	%r15, 8(%r13)
	movq	%r13, 32(%rbp)
	leaq	40(%rbp), %rdi
	movq	cBap__1__W$__fInstance$__iJhc_Show_showsPrec_Main_AtaCapabilities__101132(%rip), %rsi
	callq	s_alloc
	movq	%rax, %rbx
	movq	$E__bap__1__W$__fInstance$__iJhc_Show_showsPrec_Main_AtaCapabilities__101132+3, (%rbx)
	movq	%r12, 8(%rbx)
	movq	%r13, 16(%rbx)
	orq	$1, %rbx
	movq	%rbx, 40(%rbp)
	addq	$48, %rbp
	movq	cCJhc_Prim_Prim_$x3a(%rip), %rsi
	movq	%rbp, %rdi
	callq	s_alloc
	movq	$162, (%rax)
	movq	%rbx, 8(%rax)
	movq	%rax, (%r14)
	addq	$8, %rsp
	popq	%rbx
	popq	%r12
	popq	%r13
	popq	%r14
	popq	%r15
	popq	%rbp
	retq
.Lfunc_end74:
	.size	E__fJhc_Show_showsPrec$d8, .Lfunc_end74-E__fJhc_Show_showsPrec$d8
	.cfi_endproc
                                        # -- End function
	.p2align	4, 0x90         # -- Begin function E__fJhc_Show_showsPrec$d9
	.type	E__fJhc_Show_showsPrec$d9,@function
E__fJhc_Show_showsPrec$d9:              # @"E__fJhc_Show_showsPrec$d9"
	.cfi_startproc
# %bb.0:
	pushq	%rbp
	.cfi_def_cfa_offset 16
	pushq	%r15
	.cfi_def_cfa_offset 24
	pushq	%r14
	.cfi_def_cfa_offset 32
	pushq	%r13
	.cfi_def_cfa_offset 40
	pushq	%r12
	.cfi_def_cfa_offset 48
	pushq	%rbx
	.cfi_def_cfa_offset 56
	pushq	%rax
	.cfi_def_cfa_offset 64
	.cfi_offset %rbx, -56
	.cfi_offset %r12, -48
	.cfi_offset %r13, -40
	.cfi_offset %r14, -32
	.cfi_offset %r15, -24
	.cfi_offset %rbp, -16
	movq	%rsi, %r14
	movq	%rdi, %r13
	movq	%r14, %rax
	orq	$1, %rax
	movq	%rax, (%r13)
	movzwl	16(%r14), %eax
	movq	8(%r14), %r15
	testw	%ax, %ax
	je	.LBB75_1
# %bb.2:
	movzwl	%ax, %eax
	xorl	%edi, %edi
	cmpl	$1, %eax
	sete	%dil
	callq	assert
	movl	$_c90, %esi
	jmp	.LBB75_3
.LBB75_1:
	movl	$_c84, %esi
.LBB75_3:
	movq	%r15, 8(%r13)
	leaq	16(%r13), %r12
	movq	%r12, %rdi
	callq	eval
	cmpq	$65538, %rax            # imm = 0x10002
	je	.LBB75_4
# %bb.5:
	movq	(%rax), %r12
	movq	8(%rax), %rbp
	movq	%r12, 16(%r13)
	movq	%rbp, 24(%r13)
	leaq	32(%r13), %rdi
	movq	cFR$__fJhc_Basics_$pp(%rip), %rsi
	callq	s_alloc
	movq	%rax, %rbx
	movq	$E__fR$__fJhc_Basics_$pp+3, (%rbx)
	movq	%rbp, 8(%rbx)
	movq	%r15, 16(%rbx)
	orq	$1, %rbx
	movq	%rbx, 32(%r13)
	addq	$40, %r13
	movq	cCJhc_Prim_Prim_$x3a(%rip), %rsi
	movq	%r13, %rdi
	callq	s_alloc
	movq	%r12, (%rax)
	movq	%rbx, 8(%rax)
	jmp	.LBB75_6
.LBB75_4:
	movq	%r12, %rdi
	movq	%r15, %rsi
	callq	eval
.LBB75_6:
	movq	%rax, (%r14)
	addq	$8, %rsp
	popq	%rbx
	popq	%r12
	popq	%r13
	popq	%r14
	popq	%r15
	popq	%rbp
	retq
.Lfunc_end75:
	.size	E__fJhc_Show_showsPrec$d9, .Lfunc_end75-E__fJhc_Show_showsPrec$d9
	.cfi_endproc
                                        # -- End function
	.p2align	4, 0x90         # -- Begin function fW$__fSpec$__Jhc_List_217_fJhc_List_elem
	.type	fW$__fSpec$__Jhc_List_217_fJhc_List_elem,@function
fW$__fSpec$__Jhc_List_217_fJhc_List_elem: # @"fW$__fSpec$__Jhc_List_217_fJhc_List_elem"
	.cfi_startproc
# %bb.0:
	pushq	%r15
	.cfi_def_cfa_offset 16
	pushq	%r14
	.cfi_def_cfa_offset 24
	pushq	%r13
	.cfi_def_cfa_offset 32
	pushq	%r12
	.cfi_def_cfa_offset 40
	pushq	%rbx
	.cfi_def_cfa_offset 48
	subq	$16, %rsp
	.cfi_def_cfa_offset 64
	.cfi_offset %rbx, -48
	.cfi_offset %r12, -40
	.cfi_offset %r13, -32
	.cfi_offset %r14, -24
	.cfi_offset %r15, -16
	movq	%rdi, %r14
	cmpq	$65538, %rdx            # imm = 0x10002
	je	.LBB76_7
# %bb.1:
	movq	(%rdx), %r13
	movq	8(%rdx), %rbx
	movq	%rbx, (%rsp)
	movq	%r13, 8(%rsp)
	movaps	(%rsp), %xmm0
	movups	%xmm0, (%r14)
	leaq	16(%r14), %r15
	movq	%r15, %rdi
	callq	eval
	movq	%rax, %r12
	shrq	$2, %r12
	movq	%r15, %rdi
	movq	%r13, %rsi
	callq	eval
	shrq	$2, %rax
	cmpl	%eax, %r12d
	je	.LBB76_5
# %bb.2:
	addq	$24, %r14
	.p2align	4, 0x90
.LBB76_3:                               # =>This Inner Loop Header: Depth=1
	movq	%r15, %rdi
	movq	%rbx, %rsi
	callq	eval
	cmpq	$65538, %rax            # imm = 0x10002
	je	.LBB76_7
# %bb.4:                                #   in Loop: Header=BB76_3 Depth=1
	movq	(%rax), %rsi
	movq	8(%rax), %rbx
	movq	%rbx, (%r15)
	movq	%r14, %rdi
	callq	eval
	shrq	$2, %rax
	cmpl	%r12d, %eax
	jne	.LBB76_3
.LBB76_5:
	movl	$1, %edi
	callq	assert
	movw	$1, %ax
	jmp	.LBB76_8
.LBB76_7:
	xorl	%eax, %eax
.LBB76_8:
                                        # kill: def %ax killed %ax killed %eax
	addq	$16, %rsp
	popq	%rbx
	popq	%r12
	popq	%r13
	popq	%r14
	popq	%r15
	retq
.Lfunc_end76:
	.size	fW$__fSpec$__Jhc_List_217_fJhc_List_elem, .Lfunc_end76-fW$__fSpec$__Jhc_List_217_fJhc_List_elem
	.cfi_endproc
                                        # -- End function
	.p2align	4, 0x90         # -- Begin function fJhc_Text_Read_80__lexExp
	.type	fJhc_Text_Read_80__lexExp,@function
fJhc_Text_Read_80__lexExp:              # @fJhc_Text_Read_80__lexExp
	.cfi_startproc
# %bb.0:
	pushq	%rbp
	.cfi_def_cfa_offset 16
	pushq	%r15
	.cfi_def_cfa_offset 24
	pushq	%r14
	.cfi_def_cfa_offset 32
	pushq	%r13
	.cfi_def_cfa_offset 40
	pushq	%r12
	.cfi_def_cfa_offset 48
	pushq	%rbx
	.cfi_def_cfa_offset 56
	subq	$24, %rsp
	.cfi_def_cfa_offset 80
	.cfi_offset %rbx, -56
	.cfi_offset %r12, -48
	.cfi_offset %r13, -40
	.cfi_offset %r14, -32
	.cfi_offset %r15, -24
	.cfi_offset %rbp, -16
	movq	%rsi, %r15
	movq	%rdi, %r13
	movq	%r15, (%r13)
	leaq	8(%r13), %rbx
	movq	%rbx, %rdi
	callq	eval
	cmpq	$65538, %rax            # imm = 0x10002
	je	.LBB77_1
# %bb.3:
	movq	(%rax), %r14
	movq	8(%rax), %rbp
	movq	%rbp, (%rsp)
	movq	%r14, 8(%rsp)
	movaps	(%rsp), %xmm0
	movups	%xmm0, (%rbx)
	leaq	24(%r13), %r12
	movl	$_c153, %edx
	movq	%r12, %rdi
	movq	%r14, %rsi
	callq	fW$__fSpec$__Jhc_List_217_fJhc_List_elem
	testw	%ax, %ax
	je	.LBB77_4
# %bb.5:
	movzwl	%ax, %eax
	xorl	%edi, %edi
	cmpl	$1, %eax
	sete	%dil
	callq	assert
	movq	cCJhc_Prim_Prim_$x3a(%rip), %rsi
	movq	%r12, %rdi
	callq	s_alloc
	movq	%rbp, (%rax)
	movq	$65538, 8(%rax)         # imm = 0x10002
	movq	%r12, %rdi
	movq	%r14, %rsi
	movq	%rax, %rdx
	callq	fJhc_Text_Read_lex$d20
	movq	%rax, %rbx
	movq	%rbx, 24(%r13)
	leaq	32(%r13), %rdi
	movq	cFJhc_Text_Read_lex$d24(%rip), %rsi
	callq	s_alloc
	movq	%rax, %r15
	movq	$E__fJhc_Text_Read_lex$d24+3, (%r15)
	movq	%r14, 8(%r15)
	movq	%rbp, 16(%r15)
	orq	$1, %r15
	movq	%r15, 32(%r13)
	leaq	40(%r13), %r14
	movq	%r14, %rdi
	movq	%rbx, %rsi
	callq	eval
	cmpq	$65538, %rax            # imm = 0x10002
	je	.LBB77_6
# %bb.7:
	movq	(%rax), %r14
	movq	8(%rax), %rbp
	movq	%r14, 40(%r13)
	movq	%rbp, 48(%r13)
	leaq	56(%r13), %rdi
	movq	cFR$__fJhc_Basics_$pp(%rip), %rsi
	callq	s_alloc
	movq	%rax, %rbx
	movq	$E__fR$__fJhc_Basics_$pp+3, (%rbx)
	movq	%rbp, 8(%rbx)
	movq	%r15, 16(%rbx)
	orq	$1, %rbx
	movq	%rbx, 56(%r13)
	addq	$64, %r13
	movq	cCJhc_Prim_Prim_$x3a(%rip), %rsi
	movq	%r13, %rdi
	callq	s_alloc
	movq	%r14, (%rax)
	movq	%rbx, 8(%rax)
	jmp	.LBB77_8
.LBB77_1:
	movq	cCJhc_Prim_Prim_$LcR(%rip), %rsi
	movq	%rbx, %rdi
	callq	s_alloc
	movq	%rax, %rbx
	movq	$65538, (%rbx)          # imm = 0x10002
	movq	%r15, 8(%rbx)
	movq	%rbx, 8(%r13)
	addq	$16, %r13
	jmp	.LBB77_2
.LBB77_4:
	movq	cCJhc_Prim_Prim_$LcR(%rip), %rsi
	movq	%r12, %rdi
	callq	s_alloc
	movq	%rax, %rbx
	movq	$65538, (%rbx)          # imm = 0x10002
	movq	%r15, 8(%rbx)
	movq	%rbx, 24(%r13)
	addq	$32, %r13
.LBB77_2:
	movq	cCJhc_Prim_Prim_$x3a(%rip), %rsi
	movq	%r13, %rdi
	callq	s_alloc
	movq	%rbx, (%rax)
	movq	$65538, 8(%rax)         # imm = 0x10002
	jmp	.LBB77_8
.LBB77_6:
	movq	%r14, %rdi
	movq	%r15, %rsi
	callq	eval
.LBB77_8:
	addq	$24, %rsp
	popq	%rbx
	popq	%r12
	popq	%r13
	popq	%r14
	popq	%r15
	popq	%rbp
	retq
.Lfunc_end77:
	.size	fJhc_Text_Read_80__lexExp, .Lfunc_end77-fJhc_Text_Read_80__lexExp
	.cfi_endproc
                                        # -- End function
	.p2align	4, 0x90         # -- Begin function fJhc_Text_Read_lex$d32
	.type	fJhc_Text_Read_lex$d32,@function
fJhc_Text_Read_lex$d32:                 # @"fJhc_Text_Read_lex$d32"
	.cfi_startproc
# %bb.0:
	pushq	%r15
	.cfi_def_cfa_offset 16
	pushq	%r14
	.cfi_def_cfa_offset 24
	pushq	%r13
	.cfi_def_cfa_offset 32
	pushq	%r12
	.cfi_def_cfa_offset 40
	pushq	%rbx
	.cfi_def_cfa_offset 48
	.cfi_offset %rbx, -48
	.cfi_offset %r12, -40
	.cfi_offset %r13, -32
	.cfi_offset %r14, -24
	.cfi_offset %r15, -16
	movq	%rdi, %rbx
	callq	eval
	cmpq	$65538, %rax            # imm = 0x10002
	je	.LBB78_1
# %bb.2:
	movq	(%rax), %rsi
	movq	8(%rax), %r13
	movq	%r13, (%rbx)
	leaq	8(%rbx), %rdi
	callq	eval
	movq	(%rax), %r14
	movq	8(%rax), %rsi
	movq	%r14, 8(%rbx)
	leaq	16(%rbx), %r15
	movq	%r15, %rdi
	callq	fJhc_Text_Read_80__lexExp
	movq	%r15, %rdi
	movq	%r14, %rsi
	movq	%rax, %rdx
	callq	fJhc_Text_Read_lex$d30
	movq	%rax, %r12
	movq	%r12, 16(%rbx)
	leaq	24(%rbx), %rdi
	movq	cFJhc_Text_Read_lex$d32(%rip), %rsi
	callq	s_alloc
	movq	%rax, %r14
	movq	$E__fJhc_Text_Read_lex$d32+3, (%r14)
	movq	%r13, 8(%r14)
	orq	$1, %r14
	movq	%r14, 24(%rbx)
	leaq	32(%rbx), %r15
	movq	%r15, %rdi
	movq	%r12, %rsi
	callq	eval
	cmpq	$65538, %rax            # imm = 0x10002
	je	.LBB78_5
# %bb.3:
	movq	(%rax), %r12
	movq	8(%rax), %r13
	movq	%r12, 32(%rbx)
	movq	%r13, 40(%rbx)
	leaq	48(%rbx), %rdi
	movq	cFR$__fJhc_Basics_$pp(%rip), %rsi
	callq	s_alloc
	movq	%rax, %r15
	movq	$E__fR$__fJhc_Basics_$pp+3, (%r15)
	movq	%r13, 8(%r15)
	movq	%r14, 16(%r15)
	orq	$1, %r15
	movq	%r15, 48(%rbx)
	addq	$56, %rbx
	movq	cCJhc_Prim_Prim_$x3a(%rip), %rsi
	movq	%rbx, %rdi
	callq	s_alloc
	movq	%r12, (%rax)
	movq	%r15, 8(%rax)
	jmp	.LBB78_4
.LBB78_1:
	movl	$65538, %eax            # imm = 0x10002
.LBB78_4:
	popq	%rbx
	popq	%r12
	popq	%r13
	popq	%r14
	popq	%r15
	retq
.LBB78_5:
	movq	%r15, %rdi
	movq	%r14, %rsi
	popq	%rbx
	popq	%r12
	popq	%r13
	popq	%r14
	popq	%r15
	jmp	eval                    # TAILCALL
.Lfunc_end78:
	.size	fJhc_Text_Read_lex$d32, .Lfunc_end78-fJhc_Text_Read_lex$d32
	.cfi_endproc
                                        # -- End function
	.p2align	4, 0x90         # -- Begin function E__fJhc_Text_Read_lex$d24
	.type	E__fJhc_Text_Read_lex$d24,@function
E__fJhc_Text_Read_lex$d24:              # @"E__fJhc_Text_Read_lex$d24"
	.cfi_startproc
# %bb.0:
	pushq	%r15
	.cfi_def_cfa_offset 16
	pushq	%r14
	.cfi_def_cfa_offset 24
	pushq	%r13
	.cfi_def_cfa_offset 32
	pushq	%r12
	.cfi_def_cfa_offset 40
	pushq	%rbx
	.cfi_def_cfa_offset 48
	.cfi_offset %rbx, -48
	.cfi_offset %r12, -40
	.cfi_offset %r13, -32
	.cfi_offset %r14, -24
	.cfi_offset %r15, -16
	movq	%rsi, %r15
	movq	%rdi, %rbx
	movq	%r15, %rax
	orq	$1, %rax
	movq	%rax, (%rbx)
	movq	8(%r15), %r14
	movq	16(%r15), %r13
	movq	%r14, 8(%rbx)
	movq	%r13, 16(%rbx)
	movq	$1245186, 24(%rbx)      # imm = 0x130002
	leaq	32(%rbx), %rdi
	movq	cFJhc_Text_Read_nonnull$d2(%rip), %rsi
	callq	s_alloc
	movq	%rax, %r12
	movq	$E__fJhc_Text_Read_nonnull$d2+3, (%r12)
	movq	$1245186, 8(%r12)       # imm = 0x130002
	movq	%r13, 16(%r12)
	orq	$1, %r12
	movq	%r12, 32(%rbx)
	leaq	16(%rbx), %r13
	addq	$40, %rbx
	movq	cCJhc_Prim_Prim_$x3a(%rip), %rsi
	movq	%rbx, %rdi
	callq	s_alloc
	movq	%r12, (%rax)
	movq	$65538, 8(%rax)         # imm = 0x10002
	movq	%rbx, %rdi
	movq	%rax, %rsi
	callq	fJhc_Text_Read_nonnull$d4
	movq	%r13, %rdi
	movq	%r14, %rsi
	movq	%rax, %rdx
	callq	fJhc_Text_Read_lex$d25
	movq	%rax, (%r15)
	popq	%rbx
	popq	%r12
	popq	%r13
	popq	%r14
	popq	%r15
	retq
.Lfunc_end79:
	.size	E__fJhc_Text_Read_lex$d24, .Lfunc_end79-E__fJhc_Text_Read_lex$d24
	.cfi_endproc
                                        # -- End function
	.p2align	4, 0x90         # -- Begin function fJhc_Text_Read_lex$d25
	.type	fJhc_Text_Read_lex$d25,@function
fJhc_Text_Read_lex$d25:                 # @"fJhc_Text_Read_lex$d25"
	.cfi_startproc
# %bb.0:
	pushq	%r15
	.cfi_def_cfa_offset 16
	pushq	%r14
	.cfi_def_cfa_offset 24
	pushq	%r13
	.cfi_def_cfa_offset 32
	pushq	%r12
	.cfi_def_cfa_offset 40
	pushq	%rbx
	.cfi_def_cfa_offset 48
	subq	$16, %rsp
	.cfi_def_cfa_offset 64
	.cfi_offset %rbx, -48
	.cfi_offset %r12, -40
	.cfi_offset %r13, -32
	.cfi_offset %r14, -24
	.cfi_offset %r15, -16
	movq	%rsi, %r14
	movq	%rdi, %r12
	movq	%r14, (%r12)
	leaq	8(%r12), %r15
	movq	%r15, %rdi
	movq	%rdx, %rsi
	callq	eval
	cmpq	$65538, %rax            # imm = 0x10002
	je	.LBB80_1
# %bb.2:
	movq	(%rax), %rbx
	movq	8(%rax), %r13
	movq	%r13, (%rsp)
	movq	%rbx, 8(%rsp)
	movaps	(%rsp), %xmm0
	movups	%xmm0, (%r15)
	leaq	24(%r12), %rdi
	movq	cFJhc_Text_Read_lex$d26(%rip), %rsi
	callq	s_alloc
	movq	%rax, %r15
	movq	$E__fJhc_Text_Read_lex$d26+3, (%r15)
	movq	%rbx, 8(%r15)
	movq	%r14, 16(%r15)
	orq	$1, %r15
	movq	%r15, 24(%r12)
	leaq	32(%r12), %rdi
	movq	cFJhc_Text_Read_lex$d25(%rip), %rsi
	callq	s_alloc
	movq	%rax, %rbx
	movq	$E__fJhc_Text_Read_lex$d25+3, (%rbx)
	movq	%r14, 8(%rbx)
	movq	%r13, 16(%rbx)
	orq	$1, %rbx
	movq	%rbx, 32(%r12)
	addq	$40, %r12
	movq	cCJhc_Prim_Prim_$x3a(%rip), %rsi
	movq	%r12, %rdi
	callq	s_alloc
	movq	%r15, (%rax)
	movq	%rbx, 8(%rax)
	jmp	.LBB80_3
.LBB80_1:
	movl	$65538, %eax            # imm = 0x10002
.LBB80_3:
	addq	$16, %rsp
	popq	%rbx
	popq	%r12
	popq	%r13
	popq	%r14
	popq	%r15
	retq
.Lfunc_end80:
	.size	fJhc_Text_Read_lex$d25, .Lfunc_end80-fJhc_Text_Read_lex$d25
	.cfi_endproc
                                        # -- End function
	.p2align	4, 0x90         # -- Begin function E__fJhc_Text_Read_lex$d26
	.type	E__fJhc_Text_Read_lex$d26,@function
E__fJhc_Text_Read_lex$d26:              # @"E__fJhc_Text_Read_lex$d26"
	.cfi_startproc
# %bb.0:
	pushq	%rbp
	.cfi_def_cfa_offset 16
	pushq	%r15
	.cfi_def_cfa_offset 24
	pushq	%r14
	.cfi_def_cfa_offset 32
	pushq	%r13
	.cfi_def_cfa_offset 40
	pushq	%r12
	.cfi_def_cfa_offset 48
	pushq	%rbx
	.cfi_def_cfa_offset 56
	pushq	%rax
	.cfi_def_cfa_offset 64
	.cfi_offset %rbx, -56
	.cfi_offset %r12, -48
	.cfi_offset %r13, -40
	.cfi_offset %r14, -32
	.cfi_offset %r15, -24
	.cfi_offset %rbp, -16
	movq	%rsi, %r14
	movq	%rdi, %rbx
	movq	%r14, %rax
	orq	$1, %rax
	movq	%rax, (%rbx)
	movq	8(%r14), %rsi
	movq	16(%r14), %r12
	movq	%r12, 8(%rbx)
	leaq	16(%rbx), %rdi
	callq	eval
	movq	(%rax), %r13
	movq	8(%rax), %rbp
	movq	%rbp, 16(%rbx)
	movq	%r13, 24(%rbx)
	leaq	32(%rbx), %rdi
	movq	cCJhc_Prim_Prim_$x3a(%rip), %rsi
	callq	s_alloc
	movq	%rax, %r15
	movq	%r12, (%r15)
	movq	%r13, 8(%r15)
	movq	%r15, 32(%rbx)
	addq	$40, %rbx
	movq	cCJhc_Prim_Prim_$LcR(%rip), %rsi
	movq	%rbx, %rdi
	callq	s_alloc
	movq	%r15, (%rax)
	movq	%rbp, 8(%rax)
