	.text
	.file	"storage.c"
	.globl	jhc_hs_init             # -- Begin function jhc_hs_init
	.p2align	4, 0x90
	.type	jhc_hs_init,@function
jhc_hs_init:                            # @jhc_hs_init
	.cfi_startproc
# %bb.0:
	pushq	%rax
	.cfi_def_cfa_offset 16
	movq	arena(%rip), %rsi
	movl	$cFInstance$__iJhc_Show_show_default, %edi
	movl	$4, %edx
	movl	$3, %ecx
	callq	find_cache
	movq	arena(%rip), %rsi
	movl	$cCJhc_Type_Basic_Right, %edi
	movl	$2, %edx
	movl	$2, %ecx
	callq	find_cache
	movq	arena(%rip), %rsi
	movl	$cCJhc_Prim_Prim_$LccR, %edi
	movl	$4, %edx
	movl	$3, %ecx
	callq	find_cache
	movq	arena(%rip), %rsi
	movl	$cCJhc_Prim_Prim_$LcR, %edi
	movl	$2, %edx
	movl	$2, %ecx
	callq	find_cache
	movq	arena(%rip), %rsi
	movl	$cCHos_Common_Bundle_BundleItem, %edi
	movl	$4, %edx
	movl	$3, %ecx
	callq	find_cache
	movq	arena(%rip), %rsi
	movl	$cFtheMain$d7, %edi
	movl	$4, %edx
	movl	$2, %ecx
	callq	find_cache
	movq	arena(%rip), %rsi
	movl	$cFtheMain$d6, %edi
	movl	$4, %edx
	movl	$2, %ecx
	callq	find_cache
	movq	arena(%rip), %rsi
	movl	$cFtheMain$d5, %edi
	movl	$2, %edx
	movl	$2, %ecx
	callq	find_cache
	movq	arena(%rip), %rsi
	movl	$cCHos_Common_Types_FromPhysical, %edi
	movl	$4, %edx
	movl	$4, %ecx
	callq	find_cache
	movq	arena(%rip), %rsi
	movl	$cFNumeric_showHex, %edi
	movl	$4, %edx
	movl	$3, %ecx
	callq	find_cache
	movq	arena(%rip), %rsi
	movl	$cFJhc_Basics_$pp, %edi
	movl	$4, %edx
	movl	$4, %ecx
	callq	find_cache
	movq	arena(%rip), %rsi
	movl	$cCHos_User_IPC_CouldNotParseResponse, %edi
	movl	$2, %edx
	movl	$1, %ecx
	callq	find_cache
	movq	arena(%rip), %rsi
	movl	$cCHos_Init_Msg_InitRegisterProvider, %edi
	movl	$2, %edx
	movl	$2, %ecx
	callq	find_cache
	movq	arena(%rip), %rsi
	movl	$cCHos_User_IPC_OurMsg, %edi
	movl	$2, %edx
	movl	$2, %ecx
	callq	find_cache
	movq	arena(%rip), %rsi
	movl	$cP1__Instance$__iData_Binary_get_Hos_Init_Msg_InitMessage, %edi
	movl	$4, %edx
	movl	$3, %ecx
	callq	find_cache
	movq	arena(%rip), %rsi
	movl	$cCHos_Storage_Msg_StoragePerformQuery, %edi
	movl	$4, %edx
	movl	$3, %ecx
	callq	find_cache
	movq	arena(%rip), %rsi
	movl	$cCHos_Storage_Msg_TagIs, %edi
	movl	$4, %edx
	movl	$3, %ecx
	callq	find_cache
	movq	arena(%rip), %rsi
	movl	$cP2__Instance$__iData_Binary_get_Hos_Init_Msg_InitMessage, %edi
	movl	$2, %edx
	movl	$2, %ecx
	callq	find_cache
	movq	arena(%rip), %rsi
	movl	$cCHos_Storage_Msg_StorageQueryResult, %edi
	movl	$2, %edx
	movl	$2, %ecx
	callq	find_cache
	movq	arena(%rip), %rsi
	movl	$cP1__W$__fData_Binary_storableB$d3, %edi
	movl	$4, %edx
	movl	$3, %ecx
	callq	find_cache
	movq	arena(%rip), %rsi
	movl	$cCHos_Storage_Msg_StorageExecute, %edi
	movl	$4, %edx
	movl	$3, %ecx
	callq	find_cache
	movq	arena(%rip), %rsi
	movl	$cCHos_Init_Msg_InitSendArgs, %edi
	movl	$4, %edx
	movl	$3, %ecx
	callq	find_cache
	movq	arena(%rip), %rsi
	movl	$cCHos_Storage_Msg_StorageStartedTask, %edi
	movl	$2, %edx
	movl	$2, %ecx
	callq	find_cache
	movq	arena(%rip), %rsi
	movl	$cFMain_serveBundle$d13, %edi
	movl	$4, %edx
	movl	$2, %ecx
	callq	find_cache
	movq	arena(%rip), %rsi
	movl	$cCHos_User_IPC_InTransitMsg, %edi
	movl	$4, %edx
	movl	$3, %ecx
	callq	find_cache
	movq	arena(%rip), %rsi
	movl	$cP1__W$__fData_Binary_storableB$d5, %edi
	movl	$4, %edx
	movl	$3, %ecx
	callq	find_cache
	movq	arena(%rip), %rsi
	movl	$cFMain_serveBundle$d5, %edi
	movl	$4, %edx
	movl	$3, %ecx
	callq	find_cache
	movq	arena(%rip), %rsi
	movl	$cFR$__fJhc_Basics_zip, %edi
	movl	$4, %edx
	movl	$3, %ecx
	callq	find_cache
	movq	arena(%rip), %rsi
	movl	$cFW$__fJhc_Inst_Enum_67__f, %edi
	movl	$2, %edx
	movl	$1, %ecx
	callq	find_cache
	movq	arena(%rip), %rsi
	movl	$cP1__W$__fData_Binary_storableB$d7, %edi
	movl	$4, %edx
	movl	$3, %ecx
	callq	find_cache
	movq	arena(%rip), %rsi
	movl	$cP2__Hos_User_IPC_transmitMsg$d8, %edi
	movl	$6, %edx
	movl	$4, %ecx
	callq	find_cache
	movq	arena(%rip), %rsi
	movl	$cP2__Hos_User_IPC_transmitMsg$d15, %edi
	movl	$8, %edx
	movl	$5, %ecx
	callq	find_cache
	movq	arena(%rip), %rsi
	movl	$cFHos_User_IPC_transmitMsg$d18, %edi
	movl	$4, %edx
	movl	$2, %ecx
	callq	find_cache
	movq	arena(%rip), %rsi
	movl	$cFHos_User_IPC_transmitMsg$d17, %edi
	movl	$4, %edx
	movl	$2, %ecx
	callq	find_cache
	movq	arena(%rip), %rsi
	movl	$cFHos_User_IPC_transmitMsg$d16, %edi
	movl	$4, %edx
	movl	$2, %ecx
	callq	find_cache
	movq	arena(%rip), %rsi
	movl	$cFHos_User_IPC_transmitMsg$d10, %edi
	movl	$4, %edx
	movl	$2, %ecx
	callq	find_cache
	movq	arena(%rip), %rsi
	movl	$cFHos_User_IPC_transmitMsg$d9, %edi
	movl	$4, %edx
	movl	$2, %ecx
	callq	find_cache
	movq	arena(%rip), %rsi
	movl	$cFW$__fR$__fJhc_List_383__f, %edi
	movl	$4, %edx
	movl	$2, %ecx
	callq	find_cache
	movq	arena(%rip), %rsi
	movl	$cP1__Instance$__iData_Binary_get_Hos_Storage_Msg_TxId, %edi
	movl	$4, %edx
	movl	$3, %ecx
	callq	find_cache
	movq	arena(%rip), %rsi
	movl	$cP2__Instance$__iData_Binary_get_Hos_Storage_Msg_TxId, %edi
	movl	$2, %edx
	movl	$2, %ecx
	callq	find_cache
	movq	arena(%rip), %rsi
	movl	$cP1__W$__fData_Binary_storableB$d9, %edi
	movl	$4, %edx
	movl	$3, %ecx
	callq	find_cache
	movq	arena(%rip), %rsi
	movl	$cP1__Instance$__iData_Binary_get_Hos_Storage_Msg_QId, %edi
	movl	$4, %edx
	movl	$3, %ecx
	callq	find_cache
	movq	arena(%rip), %rsi
	movl	$cP2__Instance$__iData_Binary_get_Hos_Storage_Msg_QId, %edi
	movl	$2, %edx
	movl	$2, %ecx
	callq	find_cache
	movq	arena(%rip), %rsi
	movl	$cP1__Instance$__iData_Binary_get_Hos_Init_Msg_InitResponse, %edi
	movl	$4, %edx
	movl	$3, %ecx
	callq	find_cache
	movq	arena(%rip), %rsi
	movl	$cCData_Elf_Elf64ProgHdr, %edi
	movl	$8, %edx
	movl	$8, %ecx
	callq	find_cache
	movq	arena(%rip), %rsi
	movl	$cP2__Instance$__iData_Binary_get_Hos_Init_Msg_InitResponse, %edi
	movl	$2, %edx
	movl	$2, %ecx
	callq	find_cache
	movq	arena(%rip), %rsi
	movl	$cCHos_Common_Types_CopyOnWrite, %edi
	movl	$4, %edx
	movl	$3, %ecx
	callq	find_cache
	movq	arena(%rip), %rsi
	movl	$cFW$__fHos_Storage_loadElf$d4, %edi
	movl	$4, %edx
	movl	$3, %ecx
	callq	find_cache
	movq	arena(%rip), %rsi
	movl	$cP1__W$__fData_Binary_storableB$d11, %edi
	movl	$4, %edx
	movl	$3, %ecx
	callq	find_cache
	movq	arena(%rip), %rsi
	movl	$cFW$__fHos_Storage_loadElf$d2, %edi
	movl	$2, %edx
	movl	$1, %ecx
	callq	find_cache
	movq	arena(%rip), %rsi
	movl	$cP2__W$__fInstance$__iData_Binary_put_Jhc_Prim_Prim_$BEd5, %edi
	movl	$4, %edx
	movl	$3, %ecx
	callq	find_cache
	movq	arena(%rip), %rsi
	movl	$cP1__Instance$__iData_Binary_get_Hos_Storage_Msg_ObId, %edi
	movl	$4, %edx
	movl	$3, %ecx
	callq	find_cache
	movq	arena(%rip), %rsi
	movl	$cFW$__fInstance$__iData_Binary_put_Jhc_Prim_Prim_$BEd4, %edi
	movl	$4, %edx
	movl	$3, %ecx
	callq	find_cache
	movq	arena(%rip), %rsi
	movl	$cP2__Instance$__iData_Binary_get_Hos_Storage_Msg_ObId, %edi
	movl	$2, %edx
	movl	$2, %ecx
	callq	find_cache
	movq	arena(%rip), %rsi
	movl	$cFW$__fInstance$__iData_Binary_put_Jhc_Prim_Prim_$BEd6, %edi
	movl	$4, %edx
	movl	$2, %ecx
	callq	find_cache
	movq	arena(%rip), %rsi
	movl	$cP1__W$__fData_Binary_put$d2, %edi
	movl	$6, %edx
	movl	$4, %ecx
	callq	find_cache
	movq	arena(%rip), %rsi
	movl	$cFHos_User_SysCall_hosDebugLog$d2, %edi
	movl	$2, %edx
	movl	$2, %ecx
	callq	find_cache
	movq	arena(%rip), %rsi
	movl	$cFJhc_Show_showsPrec, %edi
	movl	$6, %edx
	movl	$5, %ecx
	callq	find_cache
	movq	arena(%rip), %rsi
	movl	$cFW$__fPrelude_Text_showLitChar$d2, %edi
	movl	$2, %edx
	movl	$2, %ecx
	callq	find_cache
	movq	arena(%rip), %rsi
	movl	$cP1__W$__fData_Binary_put$d4, %edi
	movl	$6, %edx
	movl	$4, %ecx
	callq	find_cache
	movq	arena(%rip), %rsi
	movl	$cFW$__fPrelude_Text_showLitChar$d3, %edi
	movl	$2, %edx
	movl	$2, %ecx
	callq	find_cache
	movq	arena(%rip), %rsi
	movl	$cFW$__fJhc_List_$bb, %edi
	movl	$4, %edx
	movl	$3, %ecx
	callq	find_cache
	movq	arena(%rip), %rsi
	movl	$cP1__Instance$__iData_Binary_get_Hos_Storage_Msg_TxStatus, %edi
	movl	$4, %edx
	movl	$3, %ecx
	callq	find_cache
	movq	arena(%rip), %rsi
	movl	$cP1__W$__fData_Binary_put$d6, %edi
	movl	$6, %edx
	movl	$4, %ecx
	callq	find_cache
	movq	arena(%rip), %rsi
	movl	$cBap__1__W$__fNumeric_showIntAtBase__100348, %edi
	movl	$4, %edx
	movl	$3, %ecx
	callq	find_cache
	movq	arena(%rip), %rsi
	movl	$cP2__Instance$__iData_Binary_get_Hos_Storage_Msg_TxStatus, %edi
	movl	$2, %edx
	movl	$2, %ecx
	callq	find_cache
	movq	arena(%rip), %rsi
	movl	$cFW$__fNumeric_showIntAtBase$d2, %edi
	movl	$2, %edx
	movl	$1, %ecx
	callq	find_cache
	movq	arena(%rip), %rsi
	movl	$cBap__1__W$__fNumeric_showIntAtBase__100352, %edi
	movl	$4, %edx
	movl	$3, %ecx
	callq	find_cache
	movq	arena(%rip), %rsi
	movl	$cFW$__fNumeric_showIntAtBase$d3, %edi
	movl	$2, %edx
	movl	$1, %ecx
	callq	find_cache
	movq	arena(%rip), %rsi
	movl	$cP1__Instance$__iData_Binary_get_Hos_Storage_Msg_StorageResponse, %edi
	movl	$4, %edx
	movl	$3, %ecx
	callq	find_cache
	movq	arena(%rip), %rsi
	movl	$cP2__Instance$__iData_Binary_get_Hos_Storage_Msg_StorageResponse, %edi
	movl	$2, %edx
	movl	$2, %ecx
	callq	find_cache
	movq	arena(%rip), %rsi
	movl	$cP1__W$__fData_Binary_put$d8, %edi
	movl	$8, %edx
	movl	$5, %ecx
	callq	find_cache
	movq	arena(%rip), %rsi
	movl	$cP2__W$__fInstance$__iData_Monoid_mappend_Data_Binary_Builder$d2, %edi
	movl	$4, %edx
	movl	$3, %ecx
	callq	find_cache
	movq	arena(%rip), %rsi
	movl	$cFW$__fInstance$__iData_Monoid_mappend_Data_Binary_Builder$d3, %edi
	movl	$4, %edx
	movl	$2, %ecx
	callq	find_cache
	movq	arena(%rip), %rsi
	movl	$cFW$__fHos_User_IPC_fl$_Hos_User_IPC_28__go$d3198, %edi
	movl	$4, %edx
	movl	$2, %ecx
	callq	find_cache
	movq	arena(%rip), %rsi
	movl	$cP1__Instance$__iData_Binary_get_Hos_User_IPC_ServerName$d13, %edi
	movl	$4, %edx
	movl	$2, %ecx
	callq	find_cache
	movq	arena(%rip), %rsi
	movl	$cP1__Instance$__iData_Binary_get_Hos_Storage_Msg_StorageQuery, %edi
	movl	$4, %edx
	movl	$3, %ecx
	callq	find_cache
	movq	arena(%rip), %rsi
	movl	$cP2__Instance$__iData_Binary_get_Hos_Storage_Msg_StorageQuery, %edi
	movl	$2, %edx
	movl	$2, %ecx
	callq	find_cache
	movq	arena(%rip), %rsi
	movl	$cP3__Instance$__iData_Binary_get_Hos_User_IPC_ServerName$d10, %edi
	movl	$4, %edx
	movl	$3, %ecx
	callq	find_cache
	movq	arena(%rip), %rsi
	movl	$cFInstance$__iData_Binary_get_Hos_User_IPC_ServerName$d9, %edi
	movl	$4, %edx
	movl	$3, %ecx
	callq	find_cache
	movq	arena(%rip), %rsi
	movl	$cP1__Instance$__iData_Binary_get_Hos_Storage_Msg_StorageMessage, %edi
	movl	$4, %edx
	movl	$3, %ecx
	callq	find_cache
	movq	arena(%rip), %rsi
	movl	$cP1__Instance$__iData_Binary_get_Hos_User_IPC_ServerName$d7, %edi
	movl	$2, %edx
	movl	$2, %ecx
	callq	find_cache
	movq	arena(%rip), %rsi
	movl	$cP2__Instance$__iData_Binary_get_Hos_Storage_Msg_StorageMessage, %edi
	movl	$2, %edx
	movl	$2, %ecx
	callq	find_cache
	movq	arena(%rip), %rsi
	movl	$cP1__Instance$__iData_Binary_get_Hos_User_IPC_ServerName$d6, %edi
	movl	$2, %edx
	movl	$2, %ecx
	callq	find_cache
	movq	arena(%rip), %rsi
	movl	$cP3__Data_Binary_get$d2, %edi
	movl	$4, %edx
	movl	$3, %ecx
	callq	find_cache
	movq	arena(%rip), %rsi
	movl	$cP3__Data_Binary_get$d3, %edi
	movl	$2, %edx
	movl	$2, %ecx
	callq	find_cache
	movq	arena(%rip), %rsi
	movl	$cP3__Data_Binary_get$d4, %edi
	movl	$2, %edx
	movl	$2, %ecx
	callq	find_cache
	movq	arena(%rip), %rsi
	movl	$cP3__Data_Binary_get$d5, %edi
	movl	$2, %edx
	movl	$2, %ecx
	callq	find_cache
	movq	arena(%rip), %rsi
	movl	$cP1__W$__fInstance$__iData_Binary_put_Hos_Storage_Msg_StorageResponse$d2, %edi
	movl	$8, %edx
	movl	$5, %ecx
	callq	find_cache
	movq	arena(%rip), %rsi
	movl	$cP3__Data_Binary_get$d6, %edi
	movl	$2, %edx
	movl	$2, %ecx
	callq	find_cache
	movq	arena(%rip), %rsi
	movl	$cP3__Data_Binary_get$d7, %edi
	movl	$2, %edx
	movl	$2, %ecx
	callq	find_cache
	movq	arena(%rip), %rsi
	movl	$cP1__Instance$__iData_Binary_get_Jhc_Prim_Prim_Bool, %edi
	movl	$4, %edx
	movl	$3, %ecx
	callq	find_cache
	movq	arena(%rip), %rsi
	movl	$cP2__Instance$__iData_Binary_get_Jhc_Prim_Prim_Bool, %edi
	movl	$2, %edx
	movl	$2, %ecx
	callq	find_cache
	movq	arena(%rip), %rsi
	movl	$cP1__Instance$__iData_Binary_get_Jhc_Type_Basic_Char, %edi
	movl	$4, %edx
	movl	$3, %ecx
	callq	find_cache
	movq	arena(%rip), %rsi
	movl	$cCHos_User_IPC_RoutedMessage, %edi
	movl	$4, %edx
	movl	$3, %ecx
	callq	find_cache
	movq	arena(%rip), %rsi
	movl	$cP3__Instance$__iData_Binary_get_Hos_User_IPC_ServerName$d2, %edi
	movl	$2, %edx
	movl	$2, %ecx
	callq	find_cache
	movq	arena(%rip), %rsi
	movl	$cP2__Instance$__iData_Binary_get_Jhc_Type_Basic_Char, %edi
	movl	$2, %edx
	movl	$2, %ecx
	callq	find_cache
	movq	arena(%rip), %rsi
	movl	$cBap__1__W$__fHos_User_IPC_fl$_Hos_User_IPC_28__go$d3198u100446, %edi
	movl	$4, %edx
	movl	$3, %ecx
	callq	find_cache
	movq	arena(%rip), %rsi
	movl	$cP3__Instance$__iData_Binary_get_Hos_User_IPC_ServerName$d11, %edi
	movl	$4, %edx
	movl	$3, %ecx
	callq	find_cache
	movq	arena(%rip), %rsi
	movl	$cP1__W$__fInstance$__iData_Binary_put_Hos_Storage_Msg_StorageResponse$d5, %edi
	movl	$6, %edx
	movl	$4, %ecx
	callq	find_cache
	movq	arena(%rip), %rsi
	movl	$cFInstance$__iData_Binary_get_Hos_User_IPC_ServerName$d4, %edi
	movl	$4, %edx
	movl	$2, %ecx
	callq	find_cache
	movq	arena(%rip), %rsi
	movl	$cP3__Instance$__iData_Binary_get_Hos_User_IPC_ServerName$d5, %edi
	movl	$2, %edx
	movl	$2, %ecx
	callq	find_cache
	movq	arena(%rip), %rsi
	movl	$cBap__1__Instance$__iData_Binary_get_Hos_User_IPC_ServerName$d4u100458, %edi
	movl	$4, %edx
	movl	$3, %ecx
	callq	find_cache
	movq	arena(%rip), %rsi
	movl	$cCHos_Common_Bundle_Tag, %edi
	movl	$2, %edx
	movl	$2, %ecx
	callq	find_cache
	movq	arena(%rip), %rsi
	movl	$cCHos_Storage_Msg_StorageTransactionStatus, %edi
	movl	$2, %edx
	movl	$2, %ecx
	callq	find_cache
	movq	arena(%rip), %rsi
	movl	$cCHos_Storage_Msg_StorageAbortTransaction, %edi
	movl	$2, %edx
	movl	$2, %ecx
	callq	find_cache
	movq	arena(%rip), %rsi
	movl	$cCHos_Storage_Msg_StorageCommitTransaction, %edi
	movl	$2, %edx
	movl	$2, %ecx
	callq	find_cache
	movq	arena(%rip), %rsi
	movl	$cP1__W$__fInstance$__iData_Binary_put_Hos_Storage_Msg_StorageResponse$d7, %edi
	movl	$6, %edx
	movl	$4, %ecx
	callq	find_cache
	movq	arena(%rip), %rsi
	movl	$cCHos_Storage_Msg_NotQ, %edi
	movl	$2, %edx
	movl	$2, %ecx
	callq	find_cache
	movq	arena(%rip), %rsi
	movl	$cCHos_Storage_Msg_OrQ, %edi
	movl	$4, %edx
	movl	$3, %ecx
	callq	find_cache
	movq	arena(%rip), %rsi
	movl	$cCHos_Storage_Msg_AndQ, %edi
	movl	$4, %edx
	movl	$3, %ecx
	callq	find_cache
	movq	arena(%rip), %rsi
	movl	$cCHos_Common_Bundle_BooleanV, %edi
	movl	$2, %edx
	movl	$2, %ecx
	callq	find_cache
	movq	arena(%rip), %rsi
	movl	$cCHos_Common_Bundle_IntegerV, %edi
	movl	$2, %edx
	movl	$2, %ecx
	callq	find_cache
	movq	arena(%rip), %rsi
	movl	$cFW$__fInstance$__iData_Binary_get_Hos_Common_Bundle_TagValue$d2, %edi
	movl	$2, %edx
	movl	$2, %ecx
	callq	find_cache
	movq	arena(%rip), %rsi
	movl	$cCHos_Common_Bundle_TextV, %edi
	movl	$2, %edx
	movl	$2, %ecx
	callq	find_cache
	movq	arena(%rip), %rsi
	movl	$cP3__W$__fInstance$__iData_Binary_get_Hos_Init_Msg_InitMessage$d5, %edi
	movl	$2, %edx
	movl	$2, %ecx
	callq	find_cache
	movq	arena(%rip), %rsi
	movl	$cP1__W$__fInstance$__iData_Binary_get_Hos_Init_Msg_InitMessage$d4, %edi
	movl	$2, %edx
	movl	$2, %ecx
	callq	find_cache
	movq	arena(%rip), %rsi
	movl	$cP3__W$__fInstance$__iData_Binary_get_Hos_Init_Msg_InitResponse$d6, %edi
	movl	$2, %edx
	movl	$2, %ecx
	callq	find_cache
	movq	arena(%rip), %rsi
	movl	$cP1__W$__fInstance$__iData_Binary_get_Hos_Init_Msg_InitResponse$d5, %edi
	movl	$2, %edx
	movl	$2, %ecx
	callq	find_cache
	movq	arena(%rip), %rsi
	movl	$cFR$__fJhc_Basics_$pp, %edi
	movl	$4, %edx
	movl	$3, %ecx
	callq	find_cache
	movq	arena(%rip), %rsi
	movl	$cCHos_Common_Bundle_TagDescriptor, %edi
	movl	$4, %edx
	movl	$4, %ecx
	callq	find_cache
	movq	arena(%rip), %rsi
	movl	$cCHos_Init_Msg_InitFindProvider, %edi
	movl	$2, %edx
	movl	$2, %ecx
	callq	find_cache
	movq	arena(%rip), %rsi
	movl	$cP1__W$__fInstance$__iData_Binary_get_Hos_Init_Msg_InitResponse$d6, %edi
	movl	$4, %edx
	movl	$4, %ecx
	callq	find_cache
	movq	arena(%rip), %rsi
	movl	$cP2__W$__fInstance$__iData_Binary_get_Hos_Init_Msg_InitResponse$d6, %edi
	movl	$4, %edx
	movl	$3, %ecx
	callq	find_cache
	movq	arena(%rip), %rsi
	movl	$cFPrelude_Text_30__showl, %edi
	movl	$4, %edx
	movl	$3, %ecx
	callq	find_cache
	movq	arena(%rip), %rsi
	movl	$cCHos_Init_Msg_InitFoundProvider, %edi
	movl	$2, %edx
	movl	$1, %ecx
	callq	find_cache
	movq	arena(%rip), %rsi
	movl	$cFJhc_Show_showsPrec$d3, %edi
	movl	$4, %edx
	movl	$3, %ecx
	callq	find_cache
	movq	arena(%rip), %rsi
	movl	$cFW$__fInstance$__iJhc_Show_showsPrec_Hos_Common_Types_TaskId, %edi
	movl	$4, %edx
	movl	$3, %ecx
	callq	find_cache
	movq	arena(%rip), %rsi
	movl	$cP1__W$__fInstance$__iData_Binary_get_Hos_Init_Msg_InitMessage$d5, %edi
	movl	$4, %edx
	movl	$4, %ecx
	callq	find_cache
	movq	arena(%rip), %rsi
	movl	$cFW$__fInstance$__iJhc_Show_showsPrec_Hos_Common_Types_TaskId$d2, %edi
	movl	$4, %edx
	movl	$3, %ecx
	callq	find_cache
	movq	arena(%rip), %rsi
	movl	$cP2__W$__fInstance$__iData_Binary_get_Hos_Init_Msg_InitMessage$d5, %edi
	movl	$4, %edx
	movl	$3, %ecx
	callq	find_cache
	movq	arena(%rip), %rsi
	movl	$cFW$__fInstance$__iJhc_Show_showsPrec_Hos_Common_Types_TaskId$d3, %edi
	movl	$4, %edx
	movl	$3, %ecx
	callq	find_cache
	movq	arena(%rip), %rsi
	movl	$cFW$__fJhc_Inst_Show_showWord, %edi
	movl	$4, %edx
	movl	$2, %ecx
	callq	find_cache
	movq	arena(%rip), %rsi
	movl	$cCJhc_Type_Word_Word64, %edi
	movl	$2, %edx
	xorl	%ecx, %ecx
	callq	find_cache
	movq	arena(%rip), %rsi
	movl	$cCHos_Storage_Msg_StorageTransaction, %edi
	movl	$4, %edx
	movl	$3, %ecx
	callq	find_cache
	movq	arena(%rip), %rsi
	movl	$cCJhc_Type_Ptr_Ptr, %edi
	movl	$2, %edx
	xorl	%ecx, %ecx
	callq	find_cache
	movq	arena(%rip), %rsi
	movl	$cCJhc_Type_Basic_Left, %edi
	movl	$2, %edx
	movl	$2, %ecx
	callq	find_cache
	movq	arena(%rip), %rsi
	movl	$cP2__W$__fInstance$__iData_Binary_put_Hos_Storage_Msg_StorageResponse$d2, %edi
	movl	$6, %edx
	movl	$4, %ecx
	callq	find_cache
	movq	arena(%rip), %rsi
	movl	$cP2__W$__fInstance$__iData_Binary_put_Hos_Storage_Msg_StorageResponse$d5, %edi
	movl	$4, %edx
	movl	$3, %ecx
	callq	find_cache
	movq	arena(%rip), %rsi
	movl	$cP2__W$__fInstance$__iData_Binary_put_Hos_Storage_Msg_StorageResponse$d7, %edi
	movl	$4, %edx
	movl	$3, %ecx
	callq	find_cache
	movq	arena(%rip), %rsi
	movl	$cCJhc_Prim_Prim_$x3a, %edi
	movl	$2, %edx
	movl	$2, %ecx
	callq	find_cache
	movq	arena(%rip), %rsi
	movl	$cCJhc_Type_Word_Word32, %edi
	movl	$2, %edx
	xorl	%ecx, %ecx
	callq	find_cache
	movq	arena(%rip), %rsi
	movl	$cFW$__fInstance$__iData_Binary_put_Hos_Storage_Msg_StorageResponse$d8, %edi
	movl	$4, %edx
	movl	$2, %ecx
	callq	find_cache
	movq	arena(%rip), %rsi
	movl	$cCJhc_Type_Word_Int, %edi
	movl	$2, %edx
	xorl	%ecx, %ecx
	callq	find_cache
	movq	arena(%rip), %rsi
	movl	$cFW$__fInstance$__iData_Binary_put_Hos_Storage_Msg_StorageResponse$d6, %edi
	movl	$4, %edx
	movl	$2, %ecx
	callq	find_cache
	movq	arena(%rip), %rsi
	movl	$cP1__Instance$__iData_Binary_get_Hos_User_IPC_ServerName$d2, %edi
	movl	$4, %edx
	movl	$4, %ecx
	callq	find_cache
	movq	arena(%rip), %rsi
	movl	$cP2__Instance$__iData_Binary_get_Hos_User_IPC_ServerName$d2, %edi
	movl	$4, %edx
	movl	$3, %ecx
	callq	find_cache
	movq	arena(%rip), %rsi
	movl	$cFW$__fInstance$__iData_Binary_put_Hos_Storage_Msg_StorageResponse$d4, %edi
	movl	$4, %edx
	movl	$2, %ecx
	callq	find_cache
	movq	arena(%rip), %rsi
	movl	$cCData_Binary_Builder, %edi
	movl	$2, %edx
	movl	$1, %ecx
	callq	find_cache
	movq	arena(%rip), %rsi
	movl	$cCJhc_Type_Basic_Integer, %edi
	movl	$2, %edx
	xorl	%ecx, %ecx
	callq	find_cache
	movq	arena(%rip), %rsi
	movl	$cTHos_Common_Bundle_BundleItem, %edi
	movl	$2, %edx
	movl	$2, %ecx
	callq	find_cache
	movq	arena(%rip), %rsi
	movl	$cFW$__fInstance$__iData_Binary_put_Hos_Storage_Msg_StorageResponse$d3, %edi
	movl	$4, %edx
	movl	$2, %ecx
	callq	find_cache
	movq	arena(%rip), %rsi
	movl	$cP2__W$__fData_Binary_put$d2, %edi
	movl	$4, %edx
	movl	$3, %ecx
	callq	find_cache
	movq	arena(%rip), %rsi
	movl	$cP2__W$__fData_Binary_put$d4, %edi
	movl	$4, %edx
	movl	$3, %ecx
	callq	find_cache
	movq	arena(%rip), %rsi
	movl	$cP1__Instance$__iData_Binary_get_Hos_User_IPC_ServerName$d5, %edi
	movl	$4, %edx
	movl	$4, %ecx
	callq	find_cache
	movq	arena(%rip), %rsi
	movl	$cP2__W$__fData_Binary_put$d6, %edi
	movl	$4, %edx
	movl	$3, %ecx
	callq	find_cache
	movq	arena(%rip), %rsi
	movl	$cCJhc_Type_Basic_Just, %edi
	movl	$2, %edx
	movl	$1, %ecx
	callq	find_cache
	movq	arena(%rip), %rsi
	movl	$cP2__W$__fData_Binary_put$d8, %edi
	movl	$6, %edx
	movl	$4, %ecx
	callq	find_cache
	movq	arena(%rip), %rsi
	movl	$cP2__Instance$__iData_Binary_get_Hos_User_IPC_ServerName$d5, %edi
	movl	$4, %edx
	movl	$3, %ecx
	callq	find_cache
	movq	arena(%rip), %rsi
	movl	$cFW$__fData_Binary_put$d10, %edi
	movl	$4, %edx
	movl	$2, %ecx
	callq	find_cache
	movq	arena(%rip), %rsi
	movl	$cFW$__fData_Binary_put$d9, %edi
	movl	$4, %edx
	movl	$2, %ecx
	callq	find_cache
	movq	arena(%rip), %rsi
	movl	$cFW$__fData_Binary_put$d7, %edi
	movl	$4, %edx
	movl	$2, %ecx
	callq	find_cache
	movq	arena(%rip), %rsi
	movl	$cFW$__fData_Binary_put$d5, %edi
	movl	$4, %edx
	movl	$2, %ecx
	callq	find_cache
	movq	arena(%rip), %rsi
	movl	$cFW$__fData_Binary_put$d3, %edi
	movl	$4, %edx
	movl	$2, %ecx
	callq	find_cache
	movq	arena(%rip), %rsi
	movl	$cFHos_User_IPC_transmitMsg$d14, %edi
	movl	$2, %edx
	movl	$1, %ecx
	callq	find_cache
	movq	arena(%rip), %rsi
	movl	$cFHos_User_IPC_transmitMsg$d11, %edi
	movl	$2, %edx
	movl	$2, %ecx
	callq	find_cache
	movq	arena(%rip), %rsi
	movl	$cFHos_User_IPC_transmitMsg$d12, %edi
	movl	$2, %edx
	movl	$2, %ecx
	callq	find_cache
	movq	arena(%rip), %rsi
	movl	$cFHos_User_IPC_transmitMsg$d6, %edi
	movl	$2, %edx
	movl	$2, %ecx
	callq	find_cache
	movq	arena(%rip), %rsi
	movl	$cFHos_User_IPC_transmitMsg$d7, %edi
	movl	$2, %edx
	movl	$2, %ecx
	callq	find_cache
	movq	arena(%rip), %rsi
	movl	$cFW$__fInstance$__iData_Binary_put_Jhc_Type_Basic_Char$d2, %edi
	movl	$2, %edx
	movl	$2, %ecx
	callq	find_cache
	movq	arena(%rip), %rsi
	movl	$cP2__W$__fData_Binary_storableB$d3, %edi
	movl	$2, %edx
	movl	$2, %ecx
	callq	find_cache
	movq	arena(%rip), %rsi
	movl	$cP2__W$__fData_Binary_storableB$d2, %edi
	movl	$4, %edx
	movl	$3, %ecx
	callq	find_cache
	movq	arena(%rip), %rsi
	movl	$cP1__Instance$__iData_Binary_get_Hos_User_IPC_ServerName$d10, %edi
	movl	$6, %edx
	movl	$5, %ecx
	callq	find_cache
	movq	arena(%rip), %rsi
	movl	$cP2__W$__fData_Binary_storableB$d5, %edi
	movl	$2, %edx
	movl	$2, %ecx
	callq	find_cache
	movq	arena(%rip), %rsi
	movl	$cP2__Instance$__iData_Binary_get_Hos_User_IPC_ServerName$d10, %edi
	movl	$4, %edx
	movl	$4, %ecx
	callq	find_cache
	movq	arena(%rip), %rsi
	movl	$cP2__W$__fData_Binary_storableB$d4, %edi
	movl	$4, %edx
	movl	$3, %ecx
	callq	find_cache
	movq	arena(%rip), %rsi
	movl	$cP2__W$__fData_Binary_storableB$d7, %edi
	movl	$2, %edx
	movl	$2, %ecx
	callq	find_cache
	movq	arena(%rip), %rsi
	movl	$cP2__W$__fData_Binary_storableB$d6, %edi
	movl	$4, %edx
	movl	$3, %ecx
	callq	find_cache
	movq	arena(%rip), %rsi
	movl	$cP2__W$__fData_Binary_storableB$d9, %edi
	movl	$2, %edx
	movl	$2, %ecx
	callq	find_cache
	movq	arena(%rip), %rsi
	movl	$cP2__W$__fData_Binary_storableB$d8, %edi
	movl	$4, %edx
	movl	$3, %ecx
	callq	find_cache
	movq	arena(%rip), %rsi
	movl	$cP2__W$__fData_Binary_storableB$d11, %edi
	movl	$2, %edx
	movl	$2, %ecx
	callq	find_cache
	movq	arena(%rip), %rsi
	movl	$cP2__W$__fData_Binary_storableB$d10, %edi
	movl	$4, %edx
	movl	$3, %ecx
	callq	find_cache
	movq	arena(%rip), %rsi
	movl	$cFW$__fInstance$__iData_Binary_put_Jhc_Prim_Prim_$BEd3, %edi
	movl	$4, %edx
	movl	$3, %ecx
	callq	find_cache
	movq	arena(%rip), %rsi
	movl	$cFW$__fInstance$__iData_Binary_put_Jhc_Prim_Prim_$BEd2, %edi
	movl	$4, %edx
	movl	$3, %ecx
	callq	find_cache
	movq	arena(%rip), %rsi
	movl	$cFInstance$__iData_Binary_get_Hos_User_IPC_ServerName$d3, %edi
	movl	$2, %edx
	movl	$1, %ecx
	callq	find_cache
	movq	arena(%rip), %rsi
	movl	$cCHos_Common_Bundle_GUID, %edi
	movl	$4, %edx
	movl	$4, %ecx
	callq	find_cache
	movq	arena(%rip), %rsi
	movl	$cP1__Instance$__iData_Binary_get_Jhc_Type_Word_Word64, %edi
	movl	$4, %edx
	movl	$3, %ecx
	callq	find_cache
	movq	arena(%rip), %rsi
	movl	$cFR$__fJhc_List_filter, %edi
	movl	$2, %edx
	movl	$2, %ecx
	callq	find_cache
	movq	arena(%rip), %rsi
	movl	$cP2__Instance$__iData_Binary_get_Jhc_Type_Word_Word64, %edi
	movl	$2, %edx
	movl	$2, %ecx
	callq	find_cache
	movq	arena(%rip), %rsi
	movl	$cBap__1__Main_serveBundle$d8u101180, %edi
	movl	$4, %edx
	movl	$3, %ecx
	callq	find_cache
	movq	arena(%rip), %rsi
	movl	$cP1__Main_serveBundle$d8, %edi
	movl	$4, %edx
	movl	$3, %ecx
	callq	find_cache
	movq	arena(%rip), %rsi
	movl	$cFInstance$__iData_Binary_get_Jhc_Type_Basic_Char$d2, %edi
	movl	$2, %edx
	movl	$2, %ecx
	callq	find_cache
	movq	arena(%rip), %rsi
	movl	$cP1__Instance$__iData_Binary_get_Jhc_Type_Word_Word32, %edi
	movl	$4, %edx
	movl	$3, %ecx
	callq	find_cache
	movq	arena(%rip), %rsi
	movl	$cP2__Instance$__iData_Binary_get_Jhc_Type_Word_Word32, %edi
	movl	$2, %edx
	movl	$2, %ecx
	callq	find_cache
	movq	arena(%rip), %rsi
	movl	$cP1__Instance$__iData_Binary_get_Hos_User_IPC_ServerName$d11, %edi
	movl	$6, %edx
	movl	$5, %ecx
	callq	find_cache
	movq	arena(%rip), %rsi
	movl	$cP2__Instance$__iData_Binary_get_Hos_User_IPC_ServerName$d11, %edi
	movl	$6, %edx
	movl	$4, %ecx
	callq	find_cache
	movq	arena(%rip), %rsi
	movl	$cP1__Instance$__iData_Binary_get_Jhc_Type_Word_Word16, %edi
	movl	$4, %edx
	movl	$3, %ecx
	callq	find_cache
	movq	arena(%rip), %rsi
	movl	$cP2__Instance$__iData_Binary_get_Jhc_Type_Word_Word16, %edi
	movl	$2, %edx
	movl	$2, %ecx
	callq	find_cache
	movq	arena(%rip), %rsi
	movl	$cP1__Data_Binary_get$d2, %edi
	movl	$6, %edx
	movl	$5, %ecx
	callq	find_cache
	movq	arena(%rip), %rsi
	movl	$cP2__Data_Binary_get$d2, %edi
	movl	$4, %edx
	movl	$4, %ecx
	callq	find_cache
	movq	arena(%rip), %rsi
	movl	$cP1__Data_Binary_get$d3, %edi
	movl	$4, %edx
	movl	$4, %ecx
	callq	find_cache
	movq	arena(%rip), %rsi
	movl	$cP2__Data_Binary_get$d3, %edi
	movl	$4, %edx
	movl	$3, %ecx
	callq	find_cache
	movq	arena(%rip), %rsi
	movl	$cP1__Data_Binary_get$d4, %edi
	movl	$4, %edx
	movl	$4, %ecx
	callq	find_cache
	movq	arena(%rip), %rsi
	movl	$cP2__Data_Binary_get$d4, %edi
	movl	$4, %edx
	movl	$3, %ecx
	callq	find_cache
	movq	arena(%rip), %rsi
	movl	$cP1__Data_Binary_get$d5, %edi
	movl	$4, %edx
	movl	$4, %ecx
	callq	find_cache
	movq	arena(%rip), %rsi
	movl	$cP2__Data_Binary_get$d5, %edi
	movl	$4, %edx
	movl	$3, %ecx
	callq	find_cache
	movq	arena(%rip), %rsi
	movl	$cP1__Data_Binary_get$d6, %edi
	movl	$4, %edx
	movl	$4, %ecx
	callq	find_cache
	movq	arena(%rip), %rsi
	movl	$cP2__Data_Binary_get$d6, %edi
	movl	$4, %edx
	movl	$3, %ecx
	callq	find_cache
	movq	arena(%rip), %rsi
	movl	$cP1__Instance$__iData_Binary_get_Jhc_Type_Word_Word8, %edi
	movl	$4, %edx
	movl	$3, %ecx
	callq	find_cache
	movq	arena(%rip), %rsi
	movl	$cP2__Instance$__iData_Binary_get_Jhc_Type_Word_Word8, %edi
	movl	$2, %edx
	movl	$2, %ecx
	callq	find_cache
	movq	arena(%rip), %rsi
	movl	$cP1__Data_Binary_get$d7, %edi
	movl	$4, %edx
	movl	$4, %ecx
	callq	find_cache
	movq	arena(%rip), %rsi
	movl	$cP2__Data_Binary_get$d7, %edi
	movl	$4, %edx
	movl	$3, %ecx
	callq	find_cache
	movq	arena(%rip), %rsi
	movl	$cP1__W$__fInstance$__iData_Monoid_mappend_Data_Binary_Builder$d2, %edi
	movl	$6, %edx
	movl	$4, %ecx
	callq	find_cache
	movq	arena(%rip), %rsi
	movl	$cP1__Instance$__iData_Binary_get_Hos_Common_Bundle_TagDescriptor, %edi
	movl	$4, %edx
	movl	$3, %ecx
	callq	find_cache
	movq	arena(%rip), %rsi
	movl	$cP2__Instance$__iData_Binary_get_Hos_Common_Bundle_TagDescriptor, %edi
	movl	$2, %edx
	movl	$2, %ecx
	callq	find_cache
	movq	arena(%rip), %rsi
	movl	$cP1__Instance$__iData_Binary_get_Hos_Common_Bundle_Tag, %edi
	movl	$4, %edx
	movl	$3, %ecx
	callq	find_cache
	movq	arena(%rip), %rsi
	movl	$cP2__Instance$__iData_Binary_get_Hos_Common_Bundle_Tag, %edi
	movl	$2, %edx
	movl	$2, %ecx
	callq	find_cache
	movq	arena(%rip), %rsi
	movl	$cP1__Instance$__iData_Binary_get_Hos_Common_Bundle_TagValue, %edi
	movl	$4, %edx
	movl	$3, %ecx
	callq	find_cache
	movq	arena(%rip), %rsi
	movl	$cP2__Instance$__iData_Binary_get_Hos_Common_Bundle_TagValue, %edi
	movl	$2, %edx
	movl	$2, %ecx
	callq	find_cache
	movq	arena(%rip), %rsi
	movl	$cP1__W$__fInstance$__iData_Binary_put_Jhc_Prim_Prim_$BEd5, %edi
	movl	$6, %edx
	movl	$4, %ecx
	callq	find_cache
	movq	arena(%rip), %rsi
	movl	$cP1__Instance$__iData_Binary_get_Hos_Common_Bundle_GUID, %edi
	movl	$4, %edx
	movl	$3, %ecx
	callq	find_cache
	movq	arena(%rip), %rsi
	movl	$cP2__Instance$__iData_Binary_get_Hos_Common_Bundle_GUID, %edi
	movl	$2, %edx
	movl	$2, %ecx
	callq	find_cache
	movq	arena(%rip), %rsi
	movl	$cP1__Instance$__iData_Binary_get_Hos_Common_Bundle_TagName, %edi
	movl	$4, %edx
	movl	$3, %ecx
	callq	find_cache
	movq	arena(%rip), %rsi
	movl	$cP2__Instance$__iData_Binary_get_Hos_Common_Bundle_TagName, %edi
	movl	$2, %edx
	movl	$2, %ecx
	callq	find_cache
	movq	arena(%rip), %rsi
	movl	$cP1__W$__fInstance$__iData_Binary_get_Hos_Init_Msg_InitResponse$d2, %edi
	movl	$4, %edx
	movl	$3, %ecx
	callq	find_cache
	movq	arena(%rip), %rsi
	movl	$cP2__W$__fInstance$__iData_Binary_get_Hos_Init_Msg_InitResponse$d2, %edi
	movl	$2, %edx
	movl	$2, %ecx
	callq	find_cache
	movq	arena(%rip), %rsi
	movl	$cP1__W$__fInstance$__iData_Binary_get_Hos_Init_Msg_InitResponse$d3, %edi
	movl	$4, %edx
	movl	$3, %ecx
	callq	find_cache
	movq	arena(%rip), %rsi
	movl	$cP1__Hos_User_IPC_transmitMsg$d8, %edi
	movl	$8, %edx
	movl	$5, %ecx
	callq	find_cache
	movq	arena(%rip), %rsi
	movl	$cP2__W$__fInstance$__iData_Binary_get_Hos_Init_Msg_InitResponse$d3, %edi
	movl	$2, %edx
	movl	$2, %ecx
	callq	find_cache
	movq	arena(%rip), %rsi
	movl	$cP1__W$__fInstance$__iData_Binary_get_Hos_Init_Msg_InitResponse$d4, %edi
	movl	$4, %edx
	movl	$3, %ecx
	callq	find_cache
	movq	arena(%rip), %rsi
	movl	$cP2__W$__fInstance$__iData_Binary_get_Hos_Init_Msg_InitResponse$d4, %edi
	movl	$2, %edx
	movl	$2, %ecx
	callq	find_cache
	movq	arena(%rip), %rsi
	movl	$cP1__W$__fInstance$__iData_Binary_get_Hos_Init_Msg_InitMessage$d2, %edi
	movl	$4, %edx
	movl	$3, %ecx
	callq	find_cache
	movq	arena(%rip), %rsi
	movl	$cP1__Hos_User_IPC_transmitMsg$d15, %edi
	movl	$10, %edx
	movl	$6, %ecx
	callq	find_cache
	movq	arena(%rip), %rsi
	movl	$cP2__W$__fInstance$__iData_Binary_get_Hos_Init_Msg_InitMessage$d2, %edi
	movl	$2, %edx
	movl	$2, %ecx
	callq	find_cache
	movq	arena(%rip), %rsi
	movl	$cP1__W$__fInstance$__iData_Binary_get_Hos_Init_Msg_InitMessage$d3, %edi
	movl	$4, %edx
	movl	$3, %ecx
	callq	find_cache
	movq	arena(%rip), %rsi
	movl	$cP2__W$__fInstance$__iData_Binary_get_Hos_Init_Msg_InitMessage$d3, %edi
	movl	$2, %edx
	movl	$2, %ecx
	callq	find_cache
	movq	arena(%rip), %rsi
	movl	$cP1__Data_Binary_fl$_x64315462$d5406, %edi
	movl	$2, %edx
	movl	$2, %ecx
	popq	%rax
	jmp	find_cache              # TAILCALL
.Lfunc_end0:
	.size	jhc_hs_init, .Lfunc_end0-jhc_hs_init
	.cfi_endproc
                                        # -- End function
	.section	.rodata.cst16,"aM",@progbits,16
	.p2align	4               # -- Begin function _amain
.LCPI1_0:
	.quad	2                       # 0x2
	.zero	8
.LCPI1_1:
	.quad	12713986                # 0xc20002
	.quad	70                      # 0x46
.LCPI1_2:
	.quad	70                      # 0x46
	.quad	12713986                # 0xc20002
	.text
	.globl	_amain
	.p2align	4, 0x90
	.type	_amain,@function
_amain:                                 # @_amain
	.cfi_startproc
# %bb.0:
	pushq	%rbp
	.cfi_def_cfa_offset 16
	pushq	%r15
	.cfi_def_cfa_offset 24
	pushq	%r14
	.cfi_def_cfa_offset 32
	pushq	%r13
	.cfi_def_cfa_offset 40
	pushq	%r12
	.cfi_def_cfa_offset 48
	pushq	%rbx
	.cfi_def_cfa_offset 56
	subq	$152, %rsp
	.cfi_def_cfa_offset 208
	.cfi_offset %rbx, -56
	.cfi_offset %r12, -48
	.cfi_offset %r13, -40
	.cfi_offset %r14, -32
	.cfi_offset %r15, -24
	.cfi_offset %rbp, -16
	movq	saved_gc(%rip), %rbx
	movl	$_c617, %esi
	movq	%rbx, %rdi
	callq	fHos_User_SysCall_hosDebugLog
	movl	$_c618, %esi
	movq	%rbx, 32(%rsp)          # 8-byte Spill
	movq	%rbx, %rdi
	callq	fHos_User_IPC_transmitMsg
	movq	%rax, %rcx
	testb	$2, %al
	jne	.LBB1_2
# %bb.1:
	movq	(%rax), %rcx
.LBB1_2:
	cmpq	$65535, %rcx            # imm = 0xFFFF
	ja	.LBB1_10
# %bb.3:
	movq	8(%rax), %rsi
	movq	32(%rsp), %rdi          # 8-byte Reload
	callq	eval
	movq	%rax, %rcx
	testb	$2, %al
	jne	.LBB1_5
# %bb.4:
	movq	(%rax), %rcx
.LBB1_5:
	cmpq	$65535, %rcx            # imm = 0xFFFF
	ja	.LBB1_9
# %bb.6:
	movq	(%rax), %r12
	movq	32(%rsp), %rbp          # 8-byte Reload
	movq	%r12, (%rbp)
	leaq	8(%rbp), %rbx
	movl	$_c652, %esi
	movq	%rbx, %rdi
	callq	eval
	cmpq	$65538, %rax            # imm = 0x10002
	je	.LBB1_7
# %bb.8:
	movq	(%rax), %r14
	movq	8(%rax), %r15
	movq	%r14, 8(%rbp)
	movq	%r15, 16(%rbp)
	leaq	24(%rbp), %rdi
	movq	cFR$__fJhc_Basics_$pp(%rip), %rsi
	callq	s_alloc
	movq	%rax, %rbx
	movq	$E__fR$__fJhc_Basics_$pp+3, (%rbx)
	movq	%r15, 8(%rbx)
	movq	%r12, 16(%rbx)
	orq	$1, %rbx
	movq	%rbx, 24(%rbp)
	leaq	32(%rbp), %rdi
	jmp	.LBB1_14
.LBB1_10:
	movq	8(%rax), %rsi
	movq	32(%rsp), %rbp          # 8-byte Reload
	movq	%rbp, %rdi
	callq	eval
	movq	%rax, %rbx
	cmpq	$2, %rbx
	je	.LBB1_11
# %bb.12:
	movq	%rbx, (%rbp)
	leaq	8(%rbp), %rdi
	movq	cFInstance$__iJhc_Show_show_default(%rip), %rsi
	callq	s_alloc
	movq	%rax, %r12
	movq	$E__fInstance$__iJhc_Show_show_default+3, (%r12)
	movq	$11337730, 8(%r12)      # imm = 0xAD0002
	movq	%rbx, 16(%r12)
	orq	$1, %r12
	movq	%r12, 8(%rbp)
	leaq	16(%rbp), %rbx
	movl	$_c711, %esi
	movq	%rbx, %rdi
	callq	eval
	cmpq	$65538, %rax            # imm = 0x10002
	je	.LBB1_7
# %bb.13:
	movq	(%rax), %r14
	movq	8(%rax), %r15
	movq	%r14, 16(%rbp)
	movq	%r15, 24(%rbp)
	leaq	32(%rbp), %rdi
	movq	cFR$__fJhc_Basics_$pp(%rip), %rsi
	callq	s_alloc
	movq	%rax, %rbx
	movq	$E__fR$__fJhc_Basics_$pp+3, (%rbx)
	movq	%r15, 8(%rbx)
	movq	%r12, 16(%rbx)
	orq	$1, %rbx
	movq	%rbx, 32(%rbp)
	leaq	40(%rbp), %rdi
.LBB1_14:
	movq	cCJhc_Prim_Prim_$x3a(%rip), %rsi
	callq	s_alloc
	movq	%rax, %rsi
	movq	%r14, (%rsi)
	movq	%rbx, 8(%rsi)
	jmp	.LBB1_15
.LBB1_7:
	movq	%rbx, %rdi
	movq	%r12, %rsi
	callq	eval
	movq	%rax, %rsi
	jmp	.LBB1_15
.LBB1_11:
	movl	$_c686, %esi
.LBB1_15:
	movq	%rbp, %rdi
	callq	fHos_User_SysCall_hosDebugLog
	movq	%rbp, saved_gc(%rip)
	movl	$65280, %edi            # imm = 0xFF00
	xorl	%esi, %esi
	xorl	%edx, %edx
	xorl	%ecx, %ecx
	xorl	%r8d, %r8d
	xorl	%r9d, %r9d
	callq	syscall
	movzbl	%al, %eax
	cmpq	$3, %rax
	jae	.LBB1_16
# %bb.97:
	movl	$1, %edi
	callq	assert
	movl	$_c850, %esi
	movq	%rbp, %rdi
	jmp	.LBB1_31
.LBB1_16:
	movq	%rbp, saved_gc(%rip)
	movl	$500, %edi              # imm = 0x1F4
	callq	malloc
	movq	%rax, %rbx
	movq	cCJhc_Type_Ptr_Ptr(%rip), %rsi
	movq	%rbp, %rdi
	callq	s_alloc
	movq	%rbx, (%rax)
	testq	%rbx, %rbx
	je	.LBB1_17
# %bb.18:
	movq	%rbp, saved_gc(%rip)
	movl	$65281, %edi            # imm = 0xFF01
	movl	$2, %esi
	xorl	%ecx, %ecx
	xorl	%r8d, %r8d
	xorl	%r9d, %r9d
	movq	%rbx, %rdx
	callq	syscall
	movl	(%rbx), %eax
	movq	%rax, 40(%rsp)          # 8-byte Spill
	movl	4(%rbx), %eax
	movq	%rax, 56(%rsp)          # 8-byte Spill
	movq	%rbx, 64(%rsp)          # 8-byte Spill
	addq	$8, %rbx
	movq	cCJhc_Type_Ptr_Ptr(%rip), %rsi
	movq	%rbp, %rdi
	callq	s_alloc
	movq	%rax, %r12
	movq	%rbx, (%r12)
	leaq	8(%rbp), %rax
	movq	%rax, 16(%rsp)          # 8-byte Spill
	leaq	16(%rbp), %rax
	movq	%rax, 80(%rsp)          # 8-byte Spill
	leaq	24(%rbp), %rax
	movq	%rax, 24(%rsp)          # 8-byte Spill
	leaq	32(%rbp), %rax
	movq	%rax, 8(%rsp)           # 8-byte Spill
	movl	$-120, %r14d
	movl	$65538, %eax            # imm = 0x10002
	movq	32(%rsp), %r15          # 8-byte Reload
	.p2align	4, 0x90
.LBB1_19:                               # =>This Inner Loop Header: Depth=1
	movq	(%r12), %r13
	movzbl	(%r13), %ebx
	testq	%rbx, %rbx
	je	.LBB1_21
# %bb.20:                               #   in Loop: Header=BB1_19 Depth=1
	addq	$1, %r13
	movq	%rax, (%r15)
	movq	cCJhc_Type_Ptr_Ptr(%rip), %rsi
	movq	16(%rsp), %rdi          # 8-byte Reload
	movq	%rax, (%rsp)            # 8-byte Spill
	callq	s_alloc
	movq	%rax, %r12
	movq	%r13, (%r12)
	movq	%r12, 8(%r15)
	leaq	2(,%rbx,4), %rbp
	movq	%rbp, 16(%r15)
	movq	cCJhc_Prim_Prim_$x3a(%rip), %rsi
	movq	24(%rsp), %rdi          # 8-byte Reload
	callq	s_alloc
	movq	%rax, %rbx
	movq	%rbp, (%rbx)
	movq	$65538, 8(%rbx)         # imm = 0x10002
	movq	%rbx, 24(%r15)
	movq	cFJhc_Basics_$pp(%rip), %rsi
	movq	8(%rsp), %rdi           # 8-byte Reload
	callq	s_alloc
	movq	$E__fJhc_Basics_$pp+3, (%rax)
	movq	$2, 8(%rax)
	movq	(%rsp), %rcx            # 8-byte Reload
	movq	%rcx, 16(%rax)
	movq	%rbx, 24(%rax)
	orq	$1, %rax
	addl	$1, %r14d
	jne	.LBB1_19
.LBB1_21:
	movq	32(%rsp), %r15          # 8-byte Reload
	movq	%r15, saved_gc(%rip)
	movq	64(%rsp), %rdi          # 8-byte Reload
	callq	free
	movq	cCJhc_Type_Word_Word32(%rip), %rsi
	movq	%r15, %rdi
	callq	s_alloc
	movq	%rax, %r14
	movq	40(%rsp), %rax          # 8-byte Reload
	movl	%eax, (%r14)
	movq	%r14, (%r15)
	movq	cCJhc_Type_Word_Word32(%rip), %rsi
	movq	16(%rsp), %rdi          # 8-byte Reload
	callq	s_alloc
	movq	%rax, %rbx
	movq	56(%rsp), %rax          # 8-byte Reload
	movl	%eax, (%rbx)
	movq	%rbx, 8(%r15)
	movq	cFNumeric_showHex(%rip), %rsi
	movq	80(%rsp), %rdi          # 8-byte Reload
	callq	s_alloc
	movq	%rax, %rbp
	movq	$E__fNumeric_showHex+3, (%rbp)
	movq	%rbx, 8(%rbp)
	movq	$65538, 16(%rbp)        # imm = 0x10002
	orq	$1, %rbp
	movq	%rbp, 16(%r15)
	movq	cCJhc_Prim_Prim_$x3a(%rip), %rsi
	movq	24(%rsp), %rdi          # 8-byte Reload
	callq	s_alloc
	movq	%rax, %rbx
	movq	$130, (%rbx)
	movq	%rbp, 8(%rbx)
	movq	%rbx, 24(%r15)
	movq	cCJhc_Prim_Prim_$x3a(%rip), %rsi
	movq	8(%rsp), %rdi           # 8-byte Reload
	callq	s_alloc
	movq	%rax, %rbp
	movq	$182, (%rbp)
	movq	%rbx, 8(%rbp)
	movq	%rbp, 32(%r15)
	leaq	40(%r15), %rdi
	movq	cCJhc_Prim_Prim_$x3a(%rip), %rsi
	callq	s_alloc
	movq	%rax, %rbx
	movq	$130, (%rbx)
	movq	%rbp, 8(%rbx)
	movq	%rbx, 40(%r15)
	leaq	48(%r15), %rdi
	movq	cFNumeric_showHex(%rip), %rsi
	movq	%rdi, (%rsp)            # 8-byte Spill
	callq	s_alloc
	movq	%rax, %rbp
	movq	$E__fNumeric_showHex+3, (%rbp)
	movq	%r14, 8(%rbp)
	movq	%rbx, 16(%rbp)
	orq	$1, %rbp
	movq	%rbp, 48(%r15)
	leaq	56(%r15), %r12
	movl	$_c733, %esi
	movq	%r12, %rdi
	callq	eval
	cmpq	$65538, %rax            # imm = 0x10002
	je	.LBB1_22
# %bb.23:
	movq	(%rax), %rcx
	movq	%rcx, 8(%rsp)           # 8-byte Spill
	movq	8(%rax), %r13
	movq	%rcx, 56(%r15)
	leaq	64(%r15), %r14
	movq	%r13, 64(%r15)
	leaq	72(%r15), %rdi
	movq	cFR$__fJhc_Basics_$pp(%rip), %rsi
	callq	s_alloc
	movq	%rax, %rbx
	movq	$E__fR$__fJhc_Basics_$pp+3, (%rbx)
	movq	%r13, 8(%rbx)
	movq	%rbp, 16(%rbx)
	orq	$1, %rbx
	movq	%rbx, 72(%r15)
	leaq	80(%r15), %rdi
	movq	cCJhc_Prim_Prim_$x3a(%rip), %rsi
	callq	s_alloc
	movq	8(%rsp), %rcx           # 8-byte Reload
	movq	%rcx, (%rax)
	movq	%rbx, 8(%rax)
	jmp	.LBB1_24
.LBB1_22:
	movq	%r12, %rdi
	movq	%rbp, %rsi
	callq	eval
	leaq	64(%r15), %r14
.LBB1_24:
	movq	(%rsp), %r15            # 8-byte Reload
	movq	%r15, %rdi
	movq	%rax, %rsi
	callq	fHos_User_SysCall_hosDebugLog
	movq	40(%rsp), %rbx          # 8-byte Reload
	movq	56(%rsp), %r13          # 8-byte Reload
	subl	%ebx, %r13d
	movabsq	$824633720832, %rax     # imm = 0xC000000000
	leaq	(%rax,%r13), %rcx
	movq	%rcx, 8(%rsp)           # 8-byte Spill
	movq	cCJhc_Type_Word_Word64(%rip), %rsi
	movq	%r15, %rdi
	callq	s_alloc
	movq	%rax, %rbp
	movq	%rbx, (%rbp)
	movq	%rbp, (%r15)
	movq	cCHos_Common_Types_FromPhysical(%rip), %rsi
	movq	%r12, %rdi
	callq	s_alloc
	movq	$131074, (%rax)         # imm = 0x20002
	movl	$_c734, %ecx
	movq	%rcx, %xmm0
	movdqa	.LCPI1_0(%rip), %xmm1   # xmm1 = <2,u>
	movdqa	%xmm1, 96(%rsp)         # 16-byte Spill
	punpcklqdq	%xmm0, %xmm1    # xmm1 = xmm1[0],xmm0[0]
	movdqu	%xmm1, 8(%rax)
	movq	%rbp, 24(%rax)
	movl	$-1, %esi
	movq	%r12, %rdi
	movabsq	$824633720832, %rdx     # imm = 0xC000000000
	movq	8(%rsp), %rcx           # 8-byte Reload
	movq	%rax, %r8
	callq	fW$__fW$__fHos_User_SysCall_hosAddMapping
	movl	$_c777, %esi
	movq	%r12, %rdi
	callq	fHos_User_SysCall_hosDebugLog
	movq	cCJhc_Type_Word_Word64(%rip), %rsi
	movq	%r12, %rdi
	callq	s_alloc
	movq	%rax, %rbx
	movq	%r13, (%rbx)
	movq	%rbx, (%r12)
	movl	$_c781, %esi
	movq	%r14, %rdi
	callq	fData_Binary_get
	movl	$_g936658453+1, %edx
	movq	%r14, %rdi
	movq	%rax, %rsi
	callq	bapply__84437
	movq	%r14, %rdi
	movq	%rax, %rsi
	movq	%rbx, %rdx
	callq	bapply__84437
	movq	%r14, %rdi
	movq	%rax, %rsi
	callq	bapply__84438
	movq	%r14, %rdi
	movq	%rax, %rsi
	callq	eval
	movq	%rax, %rcx
	testb	$2, %al
	jne	.LBB1_26
# %bb.25:
	movq	(%rax), %rcx
.LBB1_26:
	cmpq	$65535, %rcx            # imm = 0xFFFF
	ja	.LBB1_32
# %bb.27:
	movq	8(%rax), %rbx
	movq	%rbx, (%r14)
	movq	32(%rsp), %r13          # 8-byte Reload
	leaq	72(%r13), %r14
	movq	cFInstance$__iJhc_Show_show_default(%rip), %rsi
	movq	%r14, %rdi
	callq	s_alloc
	movq	%rax, %rbp
	movq	$E__fInstance$__iJhc_Show_show_default+3, (%rbp)
	movq	$_c2, 8(%rbp)
	movq	%rbx, 16(%rbp)
	orq	$1, %rbp
	movq	%rbp, 72(%r13)
	leaq	80(%r13), %rbx
	movl	$_c797, %esi
	movq	%rbx, %rdi
	callq	eval
	cmpq	$65538, %rax            # imm = 0x10002
	je	.LBB1_28
# %bb.29:
	movq	(%rax), %r15
	movq	8(%rax), %r12
	movq	%r15, 80(%r13)
	movq	%r12, 88(%r13)
	leaq	96(%r13), %rdi
	movq	cFR$__fJhc_Basics_$pp(%rip), %rsi
	callq	s_alloc
	movq	%rax, %rbx
	movq	$E__fR$__fJhc_Basics_$pp+3, (%rbx)
	movq	%r12, 8(%rbx)
	movq	%rbp, 16(%rbx)
	orq	$1, %rbx
	movq	%rbx, 96(%r13)
	addq	$104, %r13
	movq	cCJhc_Prim_Prim_$x3a(%rip), %rsi
	movq	%r13, %rdi
	callq	s_alloc
	movq	%r15, (%rax)
	movq	%rbx, 8(%rax)
	jmp	.LBB1_30
.LBB1_32:
	movq	8(%rax), %rsi
	movq	%r14, %rdi
	callq	eval
	movq	(%rax), %rsi
	movq	8(%rax), %r12
	movq	%r12, (%r14)
	movq	32(%rsp), %rbx          # 8-byte Reload
	leaq	72(%rbx), %rdi
	callq	eval
	movq	8(%rax), %rsi
	movq	%rsi, 72(%rbx)
	leaq	80(%rbx), %rdi
	movq	%rsi, 56(%rsp)          # 8-byte Spill
	callq	fR$__fJhc_List_filter
	movq	%rax, %r15
	movq	%r15, 80(%rbx)
	leaq	88(%rbx), %rdi
	movq	cFtheMain$d5(%rip), %rsi
	callq	s_alloc
	movq	%rax, %rbp
	movq	$E__ftheMain$d5+3, (%rbp)
	movq	%r12, 8(%rbp)
	orq	$1, %rbp
	movq	%rbp, 88(%rbx)
	leaq	96(%rbx), %rdi
	movq	cFtheMain$d6(%rip), %rsi
	callq	s_alloc
	movq	%rax, %r13
	movq	$E__ftheMain$d6+3, (%r13)
	movq	40(%rsp), %rax          # 8-byte Reload
	movl	%eax, 16(%r13)
	movq	%rbp, 64(%rsp)          # 8-byte Spill
	movq	%rbp, 8(%r13)
	orq	$1, %r13
	movq	%r13, 96(%rbx)
	leaq	104(%rbx), %r14
	movq	%r14, %rdi
	movq	%r15, %rsi
	callq	eval
	cmpq	$65538, %rax            # imm = 0x10002
	je	.LBB1_35
# %bb.33:
	movq	32(%rsp), %rcx          # 8-byte Reload
	leaq	112(%rcx), %rbp
	.p2align	4, 0x90
.LBB1_34:                               # =>This Inner Loop Header: Depth=1
	movq	(%rax), %rsi
	movq	8(%rax), %r15
	movq	%r15, (%r14)
	movq	%rbp, %rdi
	callq	eval
	movq	16(%rax), %rsi
	movq	%rbp, %rdi
	callq	eval
	movq	(%rax), %rsi
	movq	%rbp, %rdi
	callq	eval
	movq	(%rax), %r12
	movq	%rbp, %rdi
	movq	64(%rsp), %rsi          # 8-byte Reload
	callq	eval
	movq	(%rax), %rbx
	addq	%r12, %rbx
	movq	%rbp, saved_gc(%rip)
	movq	cFtheMain$d7(%rip), %rsi
	movq	%rbp, %rdi
	callq	s_alloc
	movq	$E__ftheMain$d7+3, (%rax)
	movq	%r12, 16(%rax)
	movq	%r13, 8(%rax)
	orq	$1, %rax
	movq	%rbp, %rdi
	movq	%rbx, %rsi
	movq	%rax, %rdx
	callq	fW$__fHos_Storage_loadElf
	movq	%r14, %rdi
	movq	%r15, %rsi
	callq	eval
	cmpq	$65538, %rax            # imm = 0x10002
	jne	.LBB1_34
.LBB1_35:
	movq	%r13, 80(%rsp)          # 8-byte Spill
	movabsq	$1099511640064, %rbx    # imm = 0x10000003000
	movl	$_c816, %esi
	movq	%r14, %rdi
	callq	fHos_User_SysCall_hosDebugLog
	movq	32(%rsp), %rax          # 8-byte Reload
	movq	%rax, %rcx
	subq	$-128, %rcx
	movq	%rcx, (%rsp)            # 8-byte Spill
	leaq	136(%rax), %rcx
	movq	%rcx, 8(%rsp)           # 8-byte Spill
	leaq	144(%rax), %rcx
	movq	%rcx, 24(%rsp)          # 8-byte Spill
	leaq	152(%rax), %rcx
	movq	%rcx, 16(%rsp)          # 8-byte Spill
	leaq	160(%rax), %rcx
	movq	%rcx, 40(%rsp)          # 8-byte Spill
	leaq	168(%rax), %rcx
	movq	%rcx, 48(%rsp)          # 8-byte Spill
	leaq	176(%rax), %rcx
	movq	%rcx, 72(%rsp)          # 8-byte Spill
	leaq	184(%rax), %rcx
	movq	%rcx, 88(%rsp)          # 8-byte Spill
	leaq	192(%rax), %rcx
	movq	%rcx, 128(%rsp)         # 8-byte Spill
	leaq	200(%rax), %rcx
	movq	%rcx, 120(%rsp)         # 8-byte Spill
	leaq	208(%rax), %rax
	movq	%rax, 112(%rsp)         # 8-byte Spill
	leaq	-4096(%rbx), %rax
	movq	%rax, 144(%rsp)         # 8-byte Spill
	movl	$_c439, %eax
	movq	%rax, %xmm0
	movdqa	96(%rsp), %xmm1         # 16-byte Reload
	punpcklqdq	%xmm0, %xmm1    # xmm1 = xmm1[0],xmm0[0]
	movdqa	%xmm1, 96(%rsp)         # 16-byte Spill
	jmp	.LBB1_36
	.p2align	4, 0x90
.LBB1_70:                               #   in Loop: Header=BB1_36 Depth=1
	movq	8(%rsp), %rdi           # 8-byte Reload
	movq	%rax, %rsi
	callq	fHos_User_SysCall_hosDebugLog
.LBB1_36:                               # =>This Inner Loop Header: Depth=1
	movq	32(%rsp), %r12          # 8-byte Reload
	movq	80(%rsp), %rax          # 8-byte Reload
	movq	%rax, 104(%r12)
	movq	56(%rsp), %rax          # 8-byte Reload
	movq	%rax, 112(%r12)
	movq	64(%rsp), %rax          # 8-byte Reload
	movq	%rax, 120(%r12)
	movl	$-1, %esi
	movl	$_c419, %r8d
	movq	(%rsp), %rbp            # 8-byte Reload
	movq	%rbp, %rdi
	movq	144(%rsp), %rdx         # 8-byte Reload
	movabsq	$1099511640064, %rbx    # imm = 0x10000003000
	movq	%rbx, %rcx
	callq	fW$__fW$__fHos_User_SysCall_hosAddMapping
	movq	%rbp, saved_gc(%rip)
	movl	$260, %edi              # imm = 0x104
	xorl	%esi, %esi
	xorl	%edx, %edx
	xorl	%ecx, %ecx
	xorl	%r8d, %r8d
	xorl	%r9d, %r9d
	callq	syscall
	movl	$100, %esi
	movq	%rbp, %rdi
	callq	fW$__fHos_User_SysCall_hosWaitOnChannels
	movl	$1, %edi
	callq	assert
	movq	%rbp, saved_gc(%rip)
	movl	-4096(%rbx), %r14d
	movq	cCJhc_Type_Ptr_Ptr(%rip), %rsi
	movq	%rbp, %rdi
	callq	s_alloc
	movq	%rax, %r13
	leaq	-4092(%rbx), %rax
	movq	%rax, (%r13)
	movq	%r13, 128(%r12)
	movq	cCJhc_Type_Word_Word32(%rip), %rsi
	movq	8(%rsp), %rdi           # 8-byte Reload
	callq	s_alloc
	movq	%rax, %rbx
	movl	%r14d, (%rbx)
	movq	%rbx, 136(%r12)
	movq	cCJhc_Prim_Prim_$LccR(%rip), %rsi
	movq	24(%rsp), %rdi          # 8-byte Reload
	callq	s_alloc
	movq	%rax, %rbp
	movq	%rbx, (%rbp)
	movq	%r13, 8(%rbp)
	movq	$_c420, 16(%rbp)
	movq	%rbp, 144(%r12)
	movq	cCJhc_Type_Basic_Right(%rip), %rsi
	movq	16(%rsp), %rdi          # 8-byte Reload
	callq	s_alloc
	movq	$65538, (%rax)          # imm = 0x10002
	movq	%rbp, 8(%rax)
	cmpq	$65535, %rax            # imm = 0xFFFF
	ja	.LBB1_39
# %bb.37:                               #   in Loop: Header=BB1_36 Depth=1
	andl	$2, %eax
	testq	%rax, %rax
	je	.LBB1_39
# %bb.38:                               #   in Loop: Header=BB1_36 Depth=1
	movq	(%rsp), %rax            # 8-byte Reload
	movq	%rbp, (%rax)
	movq	cCJhc_Type_Basic_Left(%rip), %rsi
	movq	8(%rsp), %rdi           # 8-byte Reload
	callq	s_alloc
	movq	$2, (%rax)
.LBB1_51:                               #   in Loop: Header=BB1_36 Depth=1
	movq	%rbp, 8(%rax)
	jmp	.LBB1_52
	.p2align	4, 0x90
.LBB1_39:                               #   in Loop: Header=BB1_36 Depth=1
	movq	(%rsp), %rbx            # 8-byte Reload
	movq	%rbx, %rdi
	movq	%rbp, %rsi
	callq	eval
	movq	(%rax), %rsi
	movq	8(%rax), %r14
	movq	16(%rax), %r15
	movq	%r14, (%rbx)
	movq	8(%rsp), %rax           # 8-byte Reload
	movq	%r15, (%rax)
	movq	24(%rsp), %rbp          # 8-byte Reload
	movq	%rbp, %rdi
	callq	eval
	cmpl	$-1, (%rax)
	je	.LBB1_41
# %bb.40:                               #   in Loop: Header=BB1_36 Depth=1
	movl	$_c393, %eax
	jmp	.LBB1_52
.LBB1_41:                               #   in Loop: Header=BB1_36 Depth=1
	movq	%rbp, %rdi
	movq	%r15, %rsi
	callq	eval
	movq	(%rax), %rcx
	movl	$12582914, %esi         # imm = 0xC00002
	movq	%rbp, %rdi
	movq	%r14, %rdx
	callq	fW$__fData_Binary_getStorable
	movq	%rax, %rcx
	testb	$2, %al
	jne	.LBB1_43
# %bb.42:                               #   in Loop: Header=BB1_36 Depth=1
	movq	(%rax), %rcx
.LBB1_43:                               #   in Loop: Header=BB1_36 Depth=1
	cmpq	$65535, %rcx            # imm = 0xFFFF
	ja	.LBB1_46
# %bb.44:                               #   in Loop: Header=BB1_36 Depth=1
	movq	8(%rax), %rbx
	movq	24(%rsp), %rax          # 8-byte Reload
	movq	%rbx, (%rax)
	movq	cCJhc_Type_Basic_Left(%rip), %rsi
	movq	16(%rsp), %rdi          # 8-byte Reload
	jmp	.LBB1_45
.LBB1_46:                               #   in Loop: Header=BB1_36 Depth=1
	movq	8(%rax), %rsi
	movq	24(%rsp), %rbp          # 8-byte Reload
	movq	%rbp, %rdi
	callq	eval
	movq	(%rax), %r15
	movq	8(%rax), %rbx
	movq	16(%rax), %r14
	movq	%r14, (%rbp)
	movq	16(%rsp), %rax          # 8-byte Reload
	movq	%r15, (%rax)
	movq	40(%rsp), %rax          # 8-byte Reload
	movq	%rbx, (%rax)
	movl	$_g954484327+1, %esi
	movq	48(%rsp), %rbp          # 8-byte Reload
	movq	%rbp, %rdi
	callq	eval
	movq	%rbp, %rdi
	movq	%rax, %rsi
	movq	%rbx, %rdx
	callq	bapply__84437
	movq	%rbp, %rdi
	movq	%rax, %rsi
	movq	%r14, %rdx
	callq	bapply__84437
	movq	%rbp, %rdi
	movq	%rax, %rsi
	callq	bapply__84438
	movq	%rbp, %rdi
	movq	%rax, %rsi
	callq	eval
	movq	%rax, %rcx
	testb	$2, %al
	jne	.LBB1_48
# %bb.47:                               #   in Loop: Header=BB1_36 Depth=1
	movq	(%rax), %rcx
.LBB1_48:                               #   in Loop: Header=BB1_36 Depth=1
	cmpq	$65535, %rcx            # imm = 0xFFFF
	ja	.LBB1_50
# %bb.49:                               #   in Loop: Header=BB1_36 Depth=1
	movq	8(%rax), %rbx
	movq	48(%rsp), %rax          # 8-byte Reload
	movq	%rbx, (%rax)
	movq	cCJhc_Type_Basic_Left(%rip), %rsi
	movq	72(%rsp), %rdi          # 8-byte Reload
.LBB1_45:                               #   in Loop: Header=BB1_36 Depth=1
	callq	s_alloc
	movq	$2, (%rax)
	movq	%rbx, 8(%rax)
	.p2align	4, 0x90
.LBB1_52:                               #   in Loop: Header=BB1_36 Depth=1
	movq	%rax, %rcx
	testb	$2, %al
	jne	.LBB1_54
# %bb.53:                               #   in Loop: Header=BB1_36 Depth=1
	movq	(%rax), %rcx
.LBB1_54:                               #   in Loop: Header=BB1_36 Depth=1
	cmpq	$65535, %rcx            # imm = 0xFFFF
	ja	.LBB1_56
# %bb.55:                               #   in Loop: Header=BB1_36 Depth=1
	movq	8(%rax), %rbx
	movq	(%rsp), %rax            # 8-byte Reload
	movq	%rbx, (%rax)
	movq	cCJhc_Type_Basic_Left(%rip), %rsi
	movq	8(%rsp), %rdi           # 8-byte Reload
	callq	s_alloc
	movq	$2, (%rax)
	jmp	.LBB1_63
	.p2align	4, 0x90
.LBB1_56:                               #   in Loop: Header=BB1_36 Depth=1
	movq	8(%rax), %rsi
	movq	(%rsp), %rbx            # 8-byte Reload
	movq	%rbx, %rdi
	callq	eval
	movq	(%rax), %rsi
	movq	8(%rax), %r15
	movq	16(%rax), %r13
	movq	%r15, (%rbx)
	movq	8(%rsp), %rax           # 8-byte Reload
	movq	%r13, (%rax)
	movq	24(%rsp), %rbp          # 8-byte Reload
	movq	%rbp, %rdi
	callq	eval
	movq	(%rax), %rbx
	movq	8(%rax), %r12
	movq	%r12, (%rbp)
	movq	16(%rsp), %rax          # 8-byte Reload
	movq	%rbx, (%rax)
	movl	$_c430, %edx
	movq	40(%rsp), %r14          # 8-byte Reload
	movq	%r14, %rdi
	movq	%rbx, %rsi
	callq	fW$__fInstance$__iJhc_Class_Ord_$ee_$Jhc_Prim_Prim_$BE
	testw	%ax, %ax
	je	.LBB1_57
# %bb.58:                               #   in Loop: Header=BB1_36 Depth=1
	movzwl	%ax, %eax
	xorl	%edi, %edi
	cmpl	$1, %eax
	sete	%dil
	callq	assert
	movl	$11534338, %esi         # imm = 0xB00002
	movq	%r14, %rdi
	movq	%r15, %rdx
	movq	%r13, %rcx
	callq	fData_Binary_getFrom
	movq	%rax, %rcx
	testb	$2, %al
	jne	.LBB1_60
# %bb.59:                               #   in Loop: Header=BB1_36 Depth=1
	movq	(%rax), %rcx
.LBB1_60:                               #   in Loop: Header=BB1_36 Depth=1
	cmpq	$65535, %rcx            # imm = 0xFFFF
	ja	.LBB1_62
# %bb.61:                               #   in Loop: Header=BB1_36 Depth=1
	movq	8(%rax), %r12
	movq	40(%rsp), %rax          # 8-byte Reload
	movq	%r12, (%rax)
	movq	cFMain_serveBundle$d5(%rip), %rsi
	movq	48(%rsp), %rbp          # 8-byte Reload
	movq	%rbp, %rdi
	callq	s_alloc
	movq	%rax, %rbx
	movq	$E__fMain_serveBundle$d5+3, (%rbx)
	movq	%r15, 8(%rbx)
	movq	%r12, 16(%rbx)
	orq	$1, %rbx
	movq	%rbx, (%rbp)
	movq	cFJhc_Basics_$pp(%rip), %rsi
	movq	72(%rsp), %r14          # 8-byte Reload
	movq	%r14, %rdi
	callq	s_alloc
	movq	%rax, %rbp
	movq	$E__fJhc_Basics_$pp+3, (%rbp)
	movdqa	96(%rsp), %xmm0         # 16-byte Reload
	movdqu	%xmm0, 8(%rbp)
	movq	%rbx, 24(%rbp)
	orq	$1, %rbp
	movq	%rbp, (%r14)
	movq	cCJhc_Type_Basic_Left(%rip), %rsi
	movq	88(%rsp), %rdi          # 8-byte Reload
	callq	s_alloc
	movq	$2, (%rax)
	movq	%rbp, 8(%rax)
	jmp	.LBB1_64
.LBB1_57:                               #   in Loop: Header=BB1_36 Depth=1
	movq	cCHos_User_IPC_InTransitMsg(%rip), %rsi
	movq	%r14, %rdi
	callq	s_alloc
	movq	%rax, %rbp
	movq	$65538, (%rbp)          # imm = 0x10002
	movq	%rbx, 8(%rbp)
	movq	%r12, 16(%rbp)
	movq	%rbp, (%r14)
	movq	cCJhc_Type_Basic_Right(%rip), %rsi
	movq	48(%rsp), %rdi          # 8-byte Reload
	callq	s_alloc
	movq	$65538, (%rax)          # imm = 0x10002
	movq	%rbp, 8(%rax)
	jmp	.LBB1_64
.LBB1_62:                               #   in Loop: Header=BB1_36 Depth=1
	movq	8(%rax), %r14
	movq	40(%rsp), %rax          # 8-byte Reload
	movq	%r14, (%rax)
	movq	cCHos_User_IPC_OurMsg(%rip), %rsi
	movq	48(%rsp), %rbp          # 8-byte Reload
	movq	%rbp, %rdi
	callq	s_alloc
	movq	%rax, %rbx
	movq	$2, (%rbx)
	movq	%r14, 8(%rbx)
	movq	%rbx, (%rbp)
	movq	cCJhc_Type_Basic_Right(%rip), %rsi
	movq	72(%rsp), %rdi          # 8-byte Reload
	callq	s_alloc
	movq	$65538, (%rax)          # imm = 0x10002
.LBB1_63:                               #   in Loop: Header=BB1_36 Depth=1
	movq	%rbx, 8(%rax)
.LBB1_64:                               #   in Loop: Header=BB1_36 Depth=1
	movq	%rax, %rcx
	testb	$2, %al
	jne	.LBB1_66
# %bb.65:                               #   in Loop: Header=BB1_36 Depth=1
	movq	(%rax), %rcx
.LBB1_66:                               #   in Loop: Header=BB1_36 Depth=1
	cmpq	$65535, %rcx            # imm = 0xFFFF
	ja	.LBB1_71
# %bb.67:                               #   in Loop: Header=BB1_36 Depth=1
	movq	8(%rax), %r12
	movq	(%rsp), %rax            # 8-byte Reload
	movq	%r12, (%rax)
	movq	cFInstance$__iJhc_Show_show_default(%rip), %rsi
	movq	8(%rsp), %rbx           # 8-byte Reload
	movq	%rbx, %rdi
	callq	s_alloc
	movq	%rax, %rbp
	movq	$E__fInstance$__iJhc_Show_show_default+3, (%rbp)
	movq	$_c2, 8(%rbp)
	movq	%r12, 16(%rbp)
	orq	$1, %rbp
	movq	%rbp, (%rbx)
	movl	$_c463, %esi
	movq	24(%rsp), %rbx          # 8-byte Reload
	movq	%rbx, %rdi
	callq	eval
	cmpq	$65538, %rax            # imm = 0x10002
	je	.LBB1_68
# %bb.69:                               #   in Loop: Header=BB1_36 Depth=1
	movq	(%rax), %r12
	movq	8(%rax), %r13
	movq	%r12, (%rbx)
	movq	16(%rsp), %rax          # 8-byte Reload
	movq	%r13, (%rax)
	movq	cFR$__fJhc_Basics_$pp(%rip), %rsi
	movq	40(%rsp), %r14          # 8-byte Reload
	movq	%r14, %rdi
	callq	s_alloc
	movq	%rax, %rbx
	movq	$E__fR$__fJhc_Basics_$pp+3, (%rbx)
	movq	%r13, 8(%rbx)
	movq	%rbp, 16(%rbx)
	orq	$1, %rbx
	movq	%rbx, (%r14)
	movq	cCJhc_Prim_Prim_$x3a(%rip), %rsi
	movq	48(%rsp), %rdi          # 8-byte Reload
	callq	s_alloc
	movq	%r12, (%rax)
	movq	%rbx, 8(%rax)
	jmp	.LBB1_70
	.p2align	4, 0x90
.LBB1_71:                               #   in Loop: Header=BB1_36 Depth=1
	movq	8(%rax), %rsi
	movq	(%rsp), %rdi            # 8-byte Reload
	callq	eval
	movq	%rax, %rcx
	testb	$2, %al
	jne	.LBB1_73
# %bb.72:                               #   in Loop: Header=BB1_36 Depth=1
	movq	(%rax), %rcx
.LBB1_73:                               #   in Loop: Header=BB1_36 Depth=1
	cmpq	$65535, %rcx            # imm = 0xFFFF
	ja	.LBB1_96
# %bb.74:                               #   in Loop: Header=BB1_36 Depth=1
	movq	8(%rax), %rsi
	movq	(%rsp), %rdi            # 8-byte Reload
	callq	eval
	movq	%rax, %rcx
	testb	$2, %al
	jne	.LBB1_76
# %bb.75:                               #   in Loop: Header=BB1_36 Depth=1
	movq	(%rax), %rcx
.LBB1_76:                               #   in Loop: Header=BB1_36 Depth=1
	shrq	$16, %rcx
	cmpq	$7, %rcx
	je	.LBB1_90
# %bb.77:                               #   in Loop: Header=BB1_36 Depth=1
	cmpq	$4, %rcx
	jne	.LBB1_88
# %bb.78:                               #   in Loop: Header=BB1_36 Depth=1
	movq	16(%rax), %rsi
	movq	(%rsp), %rdi            # 8-byte Reload
	callq	eval
	movq	%rax, %rcx
	testb	$2, %al
	jne	.LBB1_80
# %bb.79:                               #   in Loop: Header=BB1_36 Depth=1
	movq	(%rax), %rcx
.LBB1_80:                               #   in Loop: Header=BB1_36 Depth=1
	andq	$-65536, %rcx           # imm = 0xFFFF0000
	cmpq	$196608, %rcx           # imm = 0x30000
	jne	.LBB1_88
# %bb.81:                               #   in Loop: Header=BB1_36 Depth=1
	movq	8(%rax), %r15
	movq	16(%rax), %rcx
	movq	%rcx, 136(%rsp)         # 8-byte Spill
	movq	(%rsp), %rax            # 8-byte Reload
	movq	%rcx, (%rax)
	movq	8(%rsp), %rax           # 8-byte Reload
	movq	%r15, (%rax)
	movabsq	$1099511640064, %rdx    # imm = 0x10000003000
	leaq	4096(%rdx), %rcx
	movl	$-1, %esi
	movl	$_c465, %r8d
	movq	24(%rsp), %r14          # 8-byte Reload
	movq	%r14, %rdi
	callq	fW$__fW$__fHos_User_SysCall_hosAddMapping
	movq	cCJhc_Type_Word_Word32(%rip), %rsi
	movq	%r14, %rdi
	callq	s_alloc
	movq	%rax, %rbx
	movl	$0, (%rbx)
	movq	%rbx, (%r14)
	movq	cFW$__fJhc_Inst_Enum_67__f(%rip), %rsi
	movq	16(%rsp), %r12          # 8-byte Reload
	movq	%r12, %rdi
	callq	s_alloc
	movq	%rax, %rbp
	movq	$E__fW$__fJhc_Inst_Enum_67__f+3, (%rbp)
	movl	$1, 8(%rbp)
	orq	$1, %rbp
	movq	%rbp, (%r12)
	movq	cCJhc_Prim_Prim_$x3a(%rip), %rsi
	movq	40(%rsp), %r13          # 8-byte Reload
	movq	%r13, %rdi
	callq	s_alloc
	movq	%rbx, (%rax)
	movq	%rbp, 8(%rax)
	movq	%r14, %rdi
	movq	%rax, %rsi
	movq	56(%rsp), %rdx          # 8-byte Reload
	callq	fR$__fJhc_Basics_zip
	movq	%r14, %rdi
	movq	%r15, %rsi
	movq	136(%rsp), %rdx         # 8-byte Reload
	movq	%rax, %rcx
	callq	fMain_serveBundle$d8
	cmpq	$65538, %rax            # imm = 0x10002
	je	.LBB1_82
# %bb.83:                               #   in Loop: Header=BB1_36 Depth=1
	movq	(%rax), %rsi
	movq	%r14, %rdi
	callq	eval
	movq	(%rax), %rbx
	movq	%rbx, (%r14)
	movq	cCHos_Storage_Msg_StorageQueryResult(%rip), %rsi
	movq	%r12, %rdi
	callq	s_alloc
	movq	$131074, (%rax)         # imm = 0x20002
	movq	%rbx, 8(%rax)
	movq	%r12, %rdi
	movq	%rax, %rsi
	callq	fW$__fInstance$__iData_Binary_put_Hos_Storage_Msg_StorageResponse
	cmpq	$4096, %rdx             # imm = 0x1000
	ja	.LBB1_86
# %bb.84:                               #   in Loop: Header=BB1_36 Depth=1
	movl	$_g963659303+1, %edx
	movq	%r12, %rdi
	movq	%rax, %rsi
	callq	bapply__84437
	movq	%r12, %rdi
	movq	%rax, %rsi
	callq	bapply__84438
	movq	%r12, saved_gc(%rip)
	jmp	.LBB1_85
	.p2align	4, 0x90
.LBB1_96:                               #   in Loop: Header=BB1_36 Depth=1
	movl	$_c578, %esi
	jmp	.LBB1_89
.LBB1_68:                               #   in Loop: Header=BB1_36 Depth=1
	movq	%rbx, %rdi
	movq	%rbp, %rsi
	callq	eval
	jmp	.LBB1_70
.LBB1_88:                               #   in Loop: Header=BB1_36 Depth=1
	movl	$_c496, %esi
.LBB1_89:                               #   in Loop: Header=BB1_36 Depth=1
	movq	(%rsp), %rdi            # 8-byte Reload
	callq	fHos_User_SysCall_hosDebugLog
	jmp	.LBB1_36
.LBB1_90:                               #   in Loop: Header=BB1_36 Depth=1
	movq	8(%rax), %rbx
	movq	16(%rax), %r13
	movq	(%rsp), %rax            # 8-byte Reload
	movq	%r13, (%rax)
	movq	8(%rsp), %rax           # 8-byte Reload
	movq	%rbx, (%rax)
	movabsq	$1099511640064, %rdx    # imm = 0x10000003000
	leaq	4096(%rdx), %rcx
	movl	$-1, %esi
	movl	$_c497, %r8d
	movq	24(%rsp), %rbp          # 8-byte Reload
	movq	%rbp, %rdi
	callq	fW$__fW$__fHos_User_SysCall_hosAddMapping
	movq	%rbp, %rdi
	movq	64(%rsp), %rsi          # 8-byte Reload
	callq	eval
	movq	(%rax), %r14
	movq	%rbp, %rdi
	movq	%rbx, %rsi
	callq	eval
	movl	(%rax), %edx
	movq	%rbp, %rdi
	movq	56(%rsp), %rsi          # 8-byte Reload
	callq	fW$__fJhc_List_$bb
	movq	16(%rax), %rsi
	movq	%rbp, %rdi
	callq	eval
	movq	(%rax), %rsi
	movq	%rbp, %rdi
	callq	eval
	movq	(%rax), %rbx
	addq	%rbx, %r14
	movq	%rbp, saved_gc(%rip)
	movq	cFMain_serveBundle$d13(%rip), %rsi
	movq	%rbp, %rdi
	callq	s_alloc
	movq	$E__fMain_serveBundle$d13+3, (%rax)
	movq	%rbx, 16(%rax)
	movq	80(%rsp), %rcx          # 8-byte Reload
	movq	%rcx, 8(%rax)
	orq	$1, %rax
	movq	%rbp, %rdi
	movq	%r14, %rsi
	movq	%rax, %rdx
	callq	fW$__fHos_Storage_loadElf
	movq	%rax, %r14
	movq	%r14, (%rbp)
	movq	cCHos_Storage_Msg_StorageStartedTask(%rip), %rsi
	movq	16(%rsp), %rbx          # 8-byte Reload
	movq	%rbx, %rdi
	callq	s_alloc
	movq	$262146, (%rax)         # imm = 0x40002
	movq	%r14, 8(%rax)
	movq	%rbx, %rdi
	movq	%rax, %rsi
	callq	fW$__fInstance$__iData_Binary_put_Hos_Storage_Msg_StorageResponse
	cmpq	$4096, %rdx             # imm = 0x1000
	ja	.LBB1_98
# %bb.91:                               #   in Loop: Header=BB1_36 Depth=1
	movl	$_g974013993+1, %edx
	movq	%rbx, %rdi
	movq	%rax, %rsi
	callq	bapply__84437
	movq	%rbx, %rdi
	movq	%rax, %rsi
	callq	bapply__84438
	movq	%rbx, saved_gc(%rip)
	movl	$258, %edi              # imm = 0x102
	xorl	%esi, %esi
	xorl	%edx, %edx
	xorl	%ecx, %ecx
	xorl	%r8d, %r8d
	xorl	%r9d, %r9d
	callq	syscall
	movq	cCHos_Init_Msg_InitSendArgs(%rip), %rsi
	movq	%rbx, %rdi
	callq	s_alloc
	movq	$131074, (%rax)         # imm = 0x20002
	movq	%r14, 8(%rax)
	movq	%r13, 16(%rax)
	movq	%rbx, %rdi
	movq	%rax, %rsi
	callq	fHos_User_IPC_transmitMsg
	movq	%rax, %rcx
	testb	$2, %al
	jne	.LBB1_93
# %bb.92:                               #   in Loop: Header=BB1_36 Depth=1
	movq	(%rax), %rcx
.LBB1_93:                               #   in Loop: Header=BB1_36 Depth=1
	andq	$-65536, %rcx           # imm = 0xFFFF0000
	cmpq	$65536, %rcx            # imm = 0x10000
	jne	.LBB1_95
# %bb.94:                               #   in Loop: Header=BB1_36 Depth=1
	movq	8(%rax), %rsi
	movq	16(%rsp), %rdi          # 8-byte Reload
	callq	eval
	cmpq	$2, %rax
	je	.LBB1_36
.LBB1_95:                               #   in Loop: Header=BB1_36 Depth=1
	movl	$_c535, %esi
	movq	16(%rsp), %rdi          # 8-byte Reload
	callq	fHos_User_SysCall_hosDebugLog
	jmp	.LBB1_36
.LBB1_50:                               #   in Loop: Header=BB1_36 Depth=1
	movq	8(%rax), %rsi
	movq	48(%rsp), %rbx          # 8-byte Reload
	movq	%rbx, %rdi
	callq	eval
	movq	(%rax), %r14
	movq	8(%rax), %r12
	movq	16(%rax), %r13
	movq	%r12, (%rbx)
	movq	72(%rsp), %rax          # 8-byte Reload
	movq	%r13, (%rax)
	movq	88(%rsp), %rax          # 8-byte Reload
	movq	%r14, (%rax)
	movq	cCJhc_Prim_Prim_$LcR(%rip), %rsi
	movq	128(%rsp), %rbp         # 8-byte Reload
	movq	%rbp, %rdi
	callq	s_alloc
	movq	%rax, %rbx
	movq	%r14, (%rbx)
	movq	%r15, 8(%rbx)
	movq	%rbx, (%rbp)
	movq	cCJhc_Prim_Prim_$LccR(%rip), %rsi
	movq	120(%rsp), %r14         # 8-byte Reload
	movq	%r14, %rdi
	callq	s_alloc
	movq	%rax, %rbp
	movq	%rbx, (%rbp)
	movq	%r12, 8(%rbp)
	movq	%r13, 16(%rbp)
	movq	%rbp, (%r14)
	movq	cCJhc_Type_Basic_Right(%rip), %rsi
	movq	112(%rsp), %rdi         # 8-byte Reload
	callq	s_alloc
	movq	$65538, (%rax)          # imm = 0x10002
	jmp	.LBB1_51
.LBB1_82:                               #   in Loop: Header=BB1_36 Depth=1
	movaps	.LCPI1_1(%rip), %xmm0   # xmm0 = [12713986,70]
	movups	%xmm0, (%r14)
	movq	cP2__W$__fData_Binary_storableB$d2(%rip), %rsi
	movq	%r13, %rdi
	callq	s_alloc
	movq	%rax, %rbx
	movq	$7012354, (%rbx)        # imm = 0x6B0002
	movdqa	.LCPI1_2(%rip), %xmm0   # xmm0 = [70,12713986]
	movdqu	%xmm0, 8(%rbx)
	movq	%rbx, (%r13)
	movq	cP2__W$__fData_Binary_storableB$d3(%rip), %rsi
	movq	48(%rsp), %rdi          # 8-byte Reload
	callq	s_alloc
	movq	$7077890, (%rax)        # imm = 0x6C0002
	movq	%rbx, 8(%rax)
	movl	$_g968771113+1, %edx
	movq	%r14, %rdi
	movq	%rax, %rsi
	callq	bapply__84437
	movq	%r14, %rdi
	movq	%rax, %rsi
	callq	bapply__84438
	movq	%r14, saved_gc(%rip)
.LBB1_85:                               #   in Loop: Header=BB1_36 Depth=1
	movl	$258, %edi              # imm = 0x102
	xorl	%esi, %esi
	xorl	%edx, %edx
	xorl	%ecx, %ecx
	xorl	%r8d, %r8d
	xorl	%r9d, %r9d
	callq	syscall
	jmp	.LBB1_36
.LBB1_98:
	movl	$1, %edi
	callq	assert
	movl	$_c411, %esi
	movq	%rbx, %rdi
	jmp	.LBB1_87
.LBB1_28:
	movq	%rbx, %rdi
	movq	%rbp, %rsi
	callq	eval
.LBB1_30:
	movq	%r14, %rdi
	movq	%rax, %rsi
.LBB1_31:
	addq	$152, %rsp
	popq	%rbx
	popq	%r12
	popq	%r13
	popq	%r14
	popq	%r15
	popq	%rbp
	jmp	fHos_User_SysCall_hosDebugLog # TAILCALL
.LBB1_86:
	movl	$1, %edi
	callq	assert
	movl	$_c411, %esi
	movq	%r12, %rdi
.LBB1_87:
	callq	fJhc_IO_putErrLn
	movl	$255, %edi
	callq	jhc_exit
.LBB1_9:
	movl	$.L.str.2, %edi
	callq	jhc_error
.LBB1_17:
	movl	$_c63, %esi
	movl	$_c78, %edx
	movq	%rbp, %rdi
	callq	fJhc_Basics_$pp
	movq	%rbp, %rdi
	movq	%rax, %rsi
	jmp	.LBB1_87
.Lfunc_end1:
	.size	_amain, .Lfunc_end1-_amain
	.cfi_endproc
                                        # -- End function
	.p2align	4, 0x90         # -- Begin function E__ftheMain$d3
	.type	E__ftheMain$d3,@function
E__ftheMain$d3:                         # @"E__ftheMain$d3"
	.cfi_startproc
# %bb.0:
	pushq	%r15
	.cfi_def_cfa_offset 16
	pushq	%r14
	.cfi_def_cfa_offset 24
	pushq	%rbx
	.cfi_def_cfa_offset 32
	.cfi_offset %rbx, -32
	.cfi_offset %r14, -24
	.cfi_offset %r15, -16
	movq	%rsi, %r14
	movq	%rdi, %r15
	movq	%r15, saved_gc(%rip)
	movq	cCJhc_Type_Ptr_Ptr(%rip), %rsi
	callq	s_alloc
	movq	%rax, %rbx
	movabsq	$824633720832, %rax     # imm = 0xC000000000
	movq	%rax, (%rbx)
	movq	%rbx, (%r14)
	movq	%r15, %rdi
	movq	%rbx, %rsi
	callq	gc_add_root
	movq	%rbx, %rax
	popq	%rbx
	popq	%r14
	popq	%r15
	retq
.Lfunc_end2:
	.size	E__ftheMain$d3, .Lfunc_end2-E__ftheMain$d3
	.cfi_endproc
                                        # -- End function
	.p2align	4, 0x90         # -- Begin function E__fMain_serveBundle$d14
	.type	E__fMain_serveBundle$d14,@function
E__fMain_serveBundle$d14:               # @"E__fMain_serveBundle$d14"
	.cfi_startproc
# %bb.0:
	pushq	%r15
	.cfi_def_cfa_offset 16
	pushq	%r14
	.cfi_def_cfa_offset 24
	pushq	%rbx
	.cfi_def_cfa_offset 32
	.cfi_offset %rbx, -32
	.cfi_offset %r14, -24
	.cfi_offset %r15, -16
	movq	%rsi, %r14
	movq	%rdi, %r15
	movq	%r15, saved_gc(%rip)
	movq	cCJhc_Type_Ptr_Ptr(%rip), %rsi
	callq	s_alloc
	movq	%rax, %rbx
	movabsq	$1099511640064, %rax    # imm = 0x10000003000
	movq	%rax, (%rbx)
	movq	%rbx, (%r14)
	movq	%r15, %rdi
	movq	%rbx, %rsi
	callq	gc_add_root
	movq	%rbx, %rax
	popq	%rbx
	popq	%r14
	popq	%r15
	retq
.Lfunc_end3:
	.size	E__fMain_serveBundle$d14, .Lfunc_end3-E__fMain_serveBundle$d14
	.cfi_endproc
                                        # -- End function
	.p2align	4, 0x90         # -- Begin function E__fMain_serveBundle$d11
	.type	E__fMain_serveBundle$d11,@function
E__fMain_serveBundle$d11:               # @"E__fMain_serveBundle$d11"
	.cfi_startproc
# %bb.0:
	pushq	%rax
	.cfi_def_cfa_offset 16
	callq	fMain_serveBundle$d11
.Lfunc_end4:
	.size	E__fMain_serveBundle$d11, .Lfunc_end4-E__fMain_serveBundle$d11
	.cfi_endproc
                                        # -- End function
	.p2align	4, 0x90         # -- Begin function fMain_serveBundle$d11
	.type	fMain_serveBundle$d11,@function
fMain_serveBundle$d11:                  # @"fMain_serveBundle$d11"
	.cfi_startproc
# %bb.0:
	pushq	%rax
	.cfi_def_cfa_offset 16
	movl	$.L.str, %edi
	callq	jhc_error
.Lfunc_end5:
	.size	fMain_serveBundle$d11, .Lfunc_end5-fMain_serveBundle$d11
	.cfi_endproc
                                        # -- End function
	.p2align	4, 0x90         # -- Begin function E__fMain_serveBundle$d10
	.type	E__fMain_serveBundle$d10,@function
E__fMain_serveBundle$d10:               # @"E__fMain_serveBundle$d10"
	.cfi_startproc
# %bb.0:
	pushq	%r15
	.cfi_def_cfa_offset 16
	pushq	%r14
	.cfi_def_cfa_offset 24
	pushq	%rbx
	.cfi_def_cfa_offset 32
	.cfi_offset %rbx, -32
	.cfi_offset %r14, -24
	.cfi_offset %r15, -16
	movq	%rsi, %r14
	movq	%rdi, %r15
	movq	%r15, saved_gc(%rip)
	movq	cCJhc_Type_Ptr_Ptr(%rip), %rsi
	callq	s_alloc
	movq	%rax, %rbx
	movabsq	$1099511640064, %rax    # imm = 0x10000003000
	movq	%rax, (%rbx)
	movq	%rbx, (%r14)
	movq	%r15, %rdi
	movq	%rbx, %rsi
	callq	gc_add_root
	movq	%rbx, %rax
	popq	%rbx
	popq	%r14
	popq	%r15
	retq
.Lfunc_end6:
	.size	E__fMain_serveBundle$d10, .Lfunc_end6-E__fMain_serveBundle$d10
	.cfi_endproc
                                        # -- End function
	.p2align	4, 0x90         # -- Begin function E__fMain_serveBundle$d9
	.type	E__fMain_serveBundle$d9,@function
E__fMain_serveBundle$d9:                # @"E__fMain_serveBundle$d9"
	.cfi_startproc
# %bb.0:
	pushq	%r15
	.cfi_def_cfa_offset 16
	pushq	%r14
	.cfi_def_cfa_offset 24
	pushq	%rbx
	.cfi_def_cfa_offset 32
	.cfi_offset %rbx, -32
	.cfi_offset %r14, -24
	.cfi_offset %r15, -16
	movq	%rsi, %r14
	movq	%rdi, %r15
	movq	%r15, saved_gc(%rip)
	movq	cCJhc_Type_Ptr_Ptr(%rip), %rsi
	callq	s_alloc
	movq	%rax, %rbx
	movabsq	$1099511640064, %rax    # imm = 0x10000003000
	movq	%rax, (%rbx)
	movq	%rbx, (%r14)
	movq	%r15, %rdi
	movq	%rbx, %rsi
	callq	gc_add_root
	movq	%rbx, %rax
	popq	%rbx
	popq	%r14
	popq	%r15
	retq
.Lfunc_end7:
	.size	E__fMain_serveBundle$d9, .Lfunc_end7-E__fMain_serveBundle$d9
	.cfi_endproc
                                        # -- End function
	.p2align	4, 0x90         # -- Begin function E__fMain_serveBundle$d6
	.type	E__fMain_serveBundle$d6,@function
E__fMain_serveBundle$d6:                # @"E__fMain_serveBundle$d6"
	.cfi_startproc
# %bb.0:
	pushq	%rax
	.cfi_def_cfa_offset 16
	callq	fMain_serveBundle$d6
.Lfunc_end8:
	.size	E__fMain_serveBundle$d6, .Lfunc_end8-E__fMain_serveBundle$d6
	.cfi_endproc
                                        # -- End function
	.p2align	4, 0x90         # -- Begin function fMain_serveBundle$d6
	.type	fMain_serveBundle$d6,@function
fMain_serveBundle$d6:                   # @"fMain_serveBundle$d6"
	.cfi_startproc
# %bb.0:
	pushq	%rax
	.cfi_def_cfa_offset 16
	movl	$.L.str, %edi
	callq	jhc_error
.Lfunc_end9:
	.size	fMain_serveBundle$d6, .Lfunc_end9-fMain_serveBundle$d6
	.cfi_endproc
                                        # -- End function
	.p2align	4, 0x90         # -- Begin function E__fMain_serveBundle$d2
	.type	E__fMain_serveBundle$d2,@function
E__fMain_serveBundle$d2:                # @"E__fMain_serveBundle$d2"
	.cfi_startproc
# %bb.0:
	pushq	%rax
	.cfi_def_cfa_offset 16
	callq	fMain_serveBundle$d2
.Lfunc_end10:
	.size	E__fMain_serveBundle$d2, .Lfunc_end10-E__fMain_serveBundle$d2
	.cfi_endproc
                                        # -- End function
	.p2align	4, 0x90         # -- Begin function fMain_serveBundle$d2
	.type	fMain_serveBundle$d2,@function
fMain_serveBundle$d2:                   # @"fMain_serveBundle$d2"
	.cfi_startproc
# %bb.0:
	pushq	%rax
	.cfi_def_cfa_offset 16
	movl	$.L.str, %edi
	callq	jhc_error
.Lfunc_end11:
	.size	fMain_serveBundle$d2, .Lfunc_end11-fMain_serveBundle$d2
	.cfi_endproc
                                        # -- End function
	.p2align	4, 0x90         # -- Begin function E__fHos_User_IPC_transmitMsg$d19
	.type	E__fHos_User_IPC_transmitMsg$d19,@function
E__fHos_User_IPC_transmitMsg$d19:       # @"E__fHos_User_IPC_transmitMsg$d19"
	.cfi_startproc
# %bb.0:
	pushq	%rax
	.cfi_def_cfa_offset 16
	callq	fHos_User_IPC_transmitMsg$d19
.Lfunc_end12:
	.size	E__fHos_User_IPC_transmitMsg$d19, .Lfunc_end12-E__fHos_User_IPC_transmitMsg$d19
	.cfi_endproc
                                        # -- End function
	.p2align	4, 0x90         # -- Begin function fHos_User_IPC_transmitMsg$d19
	.type	fHos_User_IPC_transmitMsg$d19,@function
fHos_User_IPC_transmitMsg$d19:          # @"fHos_User_IPC_transmitMsg$d19"
	.cfi_startproc
# %bb.0:
	pushq	%rax
	.cfi_def_cfa_offset 16
	movl	$.L.str, %edi
	callq	jhc_error
.Lfunc_end13:
	.size	fHos_User_IPC_transmitMsg$d19, .Lfunc_end13-fHos_User_IPC_transmitMsg$d19
	.cfi_endproc
                                        # -- End function
	.p2align	4, 0x90         # -- Begin function E__fHos_User_IPC_transmitMsg$d4
	.type	E__fHos_User_IPC_transmitMsg$d4,@function
E__fHos_User_IPC_transmitMsg$d4:        # @"E__fHos_User_IPC_transmitMsg$d4"
	.cfi_startproc
# %bb.0:
	pushq	%r15
	.cfi_def_cfa_offset 16
	pushq	%r14
	.cfi_def_cfa_offset 24
	pushq	%rbx
	.cfi_def_cfa_offset 32
	.cfi_offset %rbx, -32
	.cfi_offset %r14, -24
	.cfi_offset %r15, -16
	movq	%rsi, %r14
	movq	%rdi, %r15
	movq	%r15, saved_gc(%rip)
	movq	cCJhc_Type_Ptr_Ptr(%rip), %rsi
	callq	s_alloc
	movq	%rax, %rbx
	movabsq	$1099511627776, %rax    # imm = 0x10000000000
	movq	%rax, (%rbx)
	movq	%rbx, (%r14)
	movq	%r15, %rdi
	movq	%rbx, %rsi
	callq	gc_add_root
	movq	%rbx, %rax
	popq	%rbx
	popq	%r14
	popq	%r15
	retq
.Lfunc_end14:
	.size	E__fHos_User_IPC_transmitMsg$d4, .Lfunc_end14-E__fHos_User_IPC_transmitMsg$d4
	.cfi_endproc
                                        # -- End function
	.p2align	4, 0x90         # -- Begin function E__fHos_User_IPC_transmitMsg$d2
	.type	E__fHos_User_IPC_transmitMsg$d2,@function
E__fHos_User_IPC_transmitMsg$d2:        # @"E__fHos_User_IPC_transmitMsg$d2"
	.cfi_startproc
# %bb.0:
	pushq	%rax
	.cfi_def_cfa_offset 16
	callq	fHos_User_IPC_transmitMsg$d2
.Lfunc_end15:
	.size	E__fHos_User_IPC_transmitMsg$d2, .Lfunc_end15-E__fHos_User_IPC_transmitMsg$d2
	.cfi_endproc
                                        # -- End function
	.p2align	4, 0x90         # -- Begin function fHos_User_IPC_transmitMsg$d2
	.type	fHos_User_IPC_transmitMsg$d2,@function
fHos_User_IPC_transmitMsg$d2:           # @"fHos_User_IPC_transmitMsg$d2"
	.cfi_startproc
# %bb.0:
	pushq	%rax
	.cfi_def_cfa_offset 16
	movl	$.L.str, %edi
	callq	jhc_error
.Lfunc_end16:
	.size	fHos_User_IPC_transmitMsg$d2, .Lfunc_end16-fHos_User_IPC_transmitMsg$d2
	.cfi_endproc
                                        # -- End function
	.section	.rodata.cst16,"aM",@progbits,16
	.p2align	4               # -- Begin function E__fInstance$__iData_Binary_get_Hos_User_IPC_ServerName
.LCPI17_0:
	.quad	524290                  # 0x80002
	.quad	524290                  # 0x80002
	.text
	.p2align	4, 0x90
	.type	E__fInstance$__iData_Binary_get_Hos_User_IPC_ServerName,@function
E__fInstance$__iData_Binary_get_Hos_User_IPC_ServerName: # @"E__fInstance$__iData_Binary_get_Hos_User_IPC_ServerName"
	.cfi_startproc
# %bb.0:
	pushq	%r15
	.cfi_def_cfa_offset 16
	pushq	%r14
	.cfi_def_cfa_offset 24
	pushq	%r12
	.cfi_def_cfa_offset 32
	pushq	%rbx
	.cfi_def_cfa_offset 40
	pushq	%rax
	.cfi_def_cfa_offset 48
	.cfi_offset %rbx, -40
	.cfi_offset %r12, -32
	.cfi_offset %r14, -24
	.cfi_offset %r15, -16
	movq	%rsi, %r14
	movq	%rdi, %r15
	movaps	.LCPI17_0(%rip), %xmm0  # xmm0 = [524290,524290]
	movups	%xmm0, (%r15)
	leaq	16(%r15), %rdi
	movq	cFInstance$__iData_Binary_get_Hos_User_IPC_ServerName$d4(%rip), %rsi
	callq	s_alloc
	movq	%rax, %r12
	movq	$E__fInstance$__iData_Binary_get_Hos_User_IPC_ServerName$d4+3, (%r12)
	movl	$247, 16(%r12)
	movq	$524290, 8(%r12)        # imm = 0x80002
	orq	$1, %r12
	movq	%r12, 16(%r15)
	leaq	24(%r15), %rdi
	movq	cP3__Instance$__iData_Binary_get_Hos_User_IPC_ServerName$d11(%rip), %rsi
	callq	s_alloc
	movq	%rax, %rbx
	movq	$9699330, (%rbx)        # imm = 0x940002
	movq	%r12, 8(%rbx)
	movl	$0, 24(%rbx)
	movq	$524290, 16(%rbx)       # imm = 0x80002
	movq	%rbx, (%r14)
	movq	%r15, %rdi
	movq	%rbx, %rsi
	callq	gc_add_root
	movq	%rbx, %rax
	addq	$8, %rsp
	popq	%rbx
	popq	%r12
	popq	%r14
	popq	%r15
	retq
.Lfunc_end17:
	.size	E__fInstance$__iData_Binary_get_Hos_User_IPC_ServerName, .Lfunc_end17-E__fInstance$__iData_Binary_get_Hos_User_IPC_ServerName
	.cfi_endproc
                                        # -- End function
	.p2align	4, 0x90         # -- Begin function E__bap__1__W$__fHos_User_IPC_fl$_Hos_User_IPC_28__go$d3198u100446
	.type	E__bap__1__W$__fHos_User_IPC_fl$_Hos_User_IPC_28__go$d3198u100446,@function
E__bap__1__W$__fHos_User_IPC_fl$_Hos_User_IPC_28__go$d3198u100446: # @"E__bap__1__W$__fHos_User_IPC_fl$_Hos_User_IPC_28__go$d3198u100446"
	.cfi_startproc
# %bb.0:
	pushq	%rbx
	.cfi_def_cfa_offset 16
	.cfi_offset %rbx, -16
	movq	%rsi, %rbx
	movq	%rbx, %rax
	orq	$1, %rax
	movq	%rax, (%rdi)
	addq	$8, %rdi
	movq	8(%rbx), %rsi
	movq	16(%rbx), %rdx
	callq	bapply__84437
	movq	%rax, (%rbx)
	popq	%rbx
	retq
.Lfunc_end18:
	.size	E__bap__1__W$__fHos_User_IPC_fl$_Hos_User_IPC_28__go$d3198u100446, .Lfunc_end18-E__bap__1__W$__fHos_User_IPC_fl$_Hos_User_IPC_28__go$d3198u100446
	.cfi_endproc
                                        # -- End function
	.p2align	4, 0x90         # -- Begin function E__fInstance$__iData_Binary_get_Hos_User_IPC_ServerName$d4
	.type	E__fInstance$__iData_Binary_get_Hos_User_IPC_ServerName$d4,@function
E__fInstance$__iData_Binary_get_Hos_User_IPC_ServerName$d4: # @"E__fInstance$__iData_Binary_get_Hos_User_IPC_ServerName$d4"
	.cfi_startproc
# %bb.0:
	pushq	%rbp
	.cfi_def_cfa_offset 16
	pushq	%r15
	.cfi_def_cfa_offset 24
	pushq	%r14
	.cfi_def_cfa_offset 32
	pushq	%r13
	.cfi_def_cfa_offset 40
	pushq	%r12
	.cfi_def_cfa_offset 48
	pushq	%rbx
	.cfi_def_cfa_offset 56
	pushq	%rax
	.cfi_def_cfa_offset 64
	.cfi_offset %rbx, -56
	.cfi_offset %r12, -48
	.cfi_offset %r13, -40
	.cfi_offset %r14, -32
	.cfi_offset %r15, -24
	.cfi_offset %rbp, -16
	movq	%rdi, %r15
	movq	%rsi, %rax
	orq	$1, %rax
	movq	%rax, (%r15)
	movl	16(%rsi), %ebp
	movq	%rsi, (%rsp)            # 8-byte Spill
	movq	8(%rsi), %r14
	movq	%r14, 8(%r15)
	testl	%ebp, %ebp
	jle	.LBB19_2
# %bb.1:
	leaq	16(%r15), %rdi
	addl	$-1, %ebp
	movq	cFInstance$__iData_Binary_get_Hos_User_IPC_ServerName$d3(%rip), %rsi
	callq	s_alloc
	movq	%rax, %rbx
	movq	$E__fInstance$__iData_Binary_get_Hos_User_IPC_ServerName$d3+3, (%rbx)
	movl	%ebp, 8(%rbx)
	orq	$1, %rbx
	movq	%rbx, 16(%r15)
	leaq	24(%r15), %r13
	movq	cCJhc_Prim_Prim_$x3a(%rip), %rsi
	movq	%r13, %rdi
	callq	s_alloc
	movq	%rax, %r12
	movq	$10223618, (%r12)       # imm = 0x9C0002
	movq	%rbx, 8(%r12)
	jmp	.LBB19_3
.LBB19_2:
	movl	$1, %edi
	callq	assert
	leaq	24(%r15), %r13
	movl	$65538, %r12d           # imm = 0x10002
.LBB19_3:
	movq	%r12, 16(%r15)
	movq	cBap__1__Instance$__iData_Binary_get_Hos_User_IPC_ServerName$d4u100458(%rip), %rsi
	movq	%r13, %rdi
	callq	s_alloc
	movq	%rax, %rbp
	movq	$E__bap__1__Instance$__iData_Binary_get_Hos_User_IPC_ServerName$d4u100458+3, (%rbp)
	movq	%r14, 8(%rbp)
	movq	$65538, 16(%rbp)        # imm = 0x10002
	orq	$1, %rbp
	movq	%rbp, (%r13)
	leaq	32(%r15), %rdi
	movq	cP3__Instance$__iData_Binary_get_Hos_User_IPC_ServerName$d5(%rip), %rsi
	callq	s_alloc
	movq	%rax, %rbx
	movq	$9830402, (%rbx)        # imm = 0x960002
	movq	%rbp, 8(%rbx)
	movq	%rbx, 32(%r15)
	leaq	40(%r15), %rdi
	movq	%r12, %rsi
	callq	eval
	cmpq	$65538, %rax            # imm = 0x10002
	je	.LBB19_5
# %bb.4:
	movq	(%rax), %r14
	movq	8(%rax), %r12
	movq	%r12, 40(%r15)
	movq	%r14, 48(%r15)
	leaq	56(%r15), %rdi
	movq	cFInstance$__iData_Binary_get_Hos_User_IPC_ServerName$d9(%rip), %rsi
	callq	s_alloc
	movq	%rax, %rbp
	movq	$E__fInstance$__iData_Binary_get_Hos_User_IPC_ServerName$d9+3, (%rbp)
	movq	%rbx, 8(%rbp)
	movq	%r12, 16(%rbp)
	orq	$1, %rbp
	movq	%rbp, 56(%r15)
	addq	$64, %r15
	movq	cP3__Instance$__iData_Binary_get_Hos_User_IPC_ServerName$d10(%rip), %rsi
	movq	%r15, %rdi
	callq	s_alloc
	movq	%rax, %rbx
	movq	$9633794, (%rbx)        # imm = 0x930002
	movq	%r14, 8(%rbx)
	movq	%rbp, 16(%rbx)
.LBB19_5:
	movq	(%rsp), %rax            # 8-byte Reload
	movq	%rbx, (%rax)
	movq	%rbx, %rax
	addq	$8, %rsp
	popq	%rbx
	popq	%r12
	popq	%r13
	popq	%r14
	popq	%r15
	popq	%rbp
	retq
.Lfunc_end19:
	.size	E__fInstance$__iData_Binary_get_Hos_User_IPC_ServerName$d4, .Lfunc_end19-E__fInstance$__iData_Binary_get_Hos_User_IPC_ServerName$d4
	.cfi_endproc
                                        # -- End function
	.p2align	4, 0x90         # -- Begin function bapply__84437
	.type	bapply__84437,@function
bapply__84437:                          # @bapply__84437
	.cfi_startproc
# %bb.0:
	pushq	%rbp
	.cfi_def_cfa_offset 16
	pushq	%r15
	.cfi_def_cfa_offset 24
	pushq	%r14
	.cfi_def_cfa_offset 32
	pushq	%r13
	.cfi_def_cfa_offset 40
	pushq	%r12
	.cfi_def_cfa_offset 48
	pushq	%rbx
	.cfi_def_cfa_offset 56
	subq	$72, %rsp
	.cfi_def_cfa_offset 128
	.cfi_offset %rbx, -56
	.cfi_offset %r12, -48
	.cfi_offset %r13, -40
	.cfi_offset %r14, -32
	.cfi_offset %r15, -24
	.cfi_offset %rbp, -16
	movq	%rdx, %r14
	movq	%rdi, %rbx
	movq	%rsi, %rax
	testb	$2, %sil
	jne	.LBB20_2
# %bb.1:
	movq	(%rsi), %rax
.LBB20_2:
	shrq	$16, %rax
	addq	$-8, %rax
	cmpq	$155, %rax
	ja	.LBB20_114
# %bb.3:
	jmpq	*.LJTI20_0(,%rax,8)
.LBB20_4:
	movq	%rbx, %rdi
	movq	%r14, %rsi
	jmp	.LBB20_5
.LBB20_101:
	movq	%r14, (%rbx)
	addq	$8, %rbx
	movq	cP2__Instance$__iData_Binary_get_Jhc_Prim_Prim_Bool(%rip), %rsi
	movq	%rbx, %rdi
	callq	s_alloc
	movq	$6225922, (%rax)        # imm = 0x5F0002
	movq	%r14, 8(%rax)
	jmp	.LBB20_116
.LBB20_109:
	movq	8(%rsi), %rbp
	movq	%r14, (%rsp)
	movq	%rbp, 8(%rsp)
	movaps	(%rsp), %xmm0
	movups	%xmm0, (%rbx)
	addq	$16, %rbx
	movq	cP2__W$__fInstance$__iData_Binary_get_Hos_Init_Msg_InitMessage$d5(%rip), %rsi
	movq	%rbx, %rdi
	callq	s_alloc
	movq	$7667714, (%rax)        # imm = 0x750002
	jmp	.LBB20_26
.LBB20_97:
	movq	8(%rsi), %r15
	movq	16(%rsi), %rbp
	movq	%r14, (%rsp)
	movq	%r15, 8(%rsp)
	movq	%rbp, 16(%rsp)
	movq	%rbp, 16(%rbx)
	movaps	(%rsp), %xmm0
	movups	%xmm0, (%rbx)
	addq	$24, %rbx
	movq	cP2__Instance$__iData_Binary_get_Hos_User_IPC_ServerName$d10(%rip), %rsi
	movq	%rbx, %rdi
	callq	s_alloc
	movq	$5963778, (%rax)        # imm = 0x5B0002
	jmp	.LBB20_45
.LBB20_88:
	movq	%r14, (%rbx)
	addq	$8, %rbx
	movq	cP2__Instance$__iData_Binary_get_Hos_Init_Msg_InitMessage(%rip), %rsi
	movq	%rbx, %rdi
	callq	s_alloc
	movq	$5373954, (%rax)        # imm = 0x520002
	movq	%r14, 8(%rax)
	jmp	.LBB20_116
.LBB20_95:
	movq	%r14, (%rbx)
	addq	$8, %rbx
	movq	cP2__Instance$__iData_Binary_get_Hos_Storage_Msg_TxId(%rip), %rsi
	movq	%rbx, %rdi
	callq	s_alloc
	movq	$5832706, (%rax)        # imm = 0x590002
	movq	%r14, 8(%rax)
	jmp	.LBB20_116
.LBB20_111:
	movq	%r14, (%rbx)
	addq	$8, %rbx
	movq	cP2__W$__fInstance$__iData_Binary_get_Hos_Init_Msg_InitResponse$d3(%rip), %rsi
	movq	%rbx, %rdi
	callq	s_alloc
	movq	$7798786, (%rax)        # imm = 0x770002
	movq	%r14, 8(%rax)
	jmp	.LBB20_116
.LBB20_106:
	movq	%r14, (%rbx)
	addq	$8, %rbx
	movq	cP2__Instance$__iData_Binary_get_Jhc_Type_Word_Word8(%rip), %rsi
	movq	%rbx, %rdi
	callq	s_alloc
	movq	$6553602, (%rax)        # imm = 0x640002
	movq	%r14, 8(%rax)
	jmp	.LBB20_116
.LBB20_53:
	movq	8(%rsi), %rbp
	movq	%r14, (%rsp)
	movq	%rbp, 8(%rsp)
	movaps	(%rsp), %xmm0
	movups	%xmm0, (%rbx)
	addq	$16, %rbx
	movq	cP1__Instance$__iData_Binary_get_Jhc_Type_Word_Word8(%rip), %rsi
	movq	%rbx, %rdi
	callq	s_alloc
	movq	$2424834, (%rax)        # imm = 0x250002
	jmp	.LBB20_26
.LBB20_65:
	movq	8(%rsi), %rbp
	movq	%r14, (%rsp)
	movq	%rbp, 8(%rsp)
	movaps	(%rsp), %xmm0
	movups	%xmm0, (%rbx)
	addq	$16, %rbx
	movq	cP1__W$__fInstance$__iData_Binary_get_Hos_Init_Msg_InitMessage$d2(%rip), %rsi
	movq	%rbx, %rdi
	callq	s_alloc
	movq	$3538946, (%rax)        # imm = 0x360002
	jmp	.LBB20_26
.LBB20_52:
	movq	8(%rsi), %rbp
	movq	%r14, (%rsp)
	movq	%rbp, 8(%rsp)
	movaps	(%rsp), %xmm0
	movups	%xmm0, (%rbx)
	addq	$16, %rbx
	movq	cP1__Instance$__iData_Binary_get_Jhc_Type_Word_Word64(%rip), %rsi
	movq	%rbx, %rdi
	callq	s_alloc
	movq	$2359298, (%rax)        # imm = 0x240002
	jmp	.LBB20_26
.LBB20_84:
	movq	%r14, (%rbx)
	addq	$8, %rbx
	movq	cP2__Instance$__iData_Binary_get_Hos_Common_Bundle_Tag(%rip), %rsi
	movq	%rbx, %rdi
	callq	s_alloc
	movq	$5111810, (%rax)        # imm = 0x4E0002
	movq	%r14, 8(%rax)
	jmp	.LBB20_116
.LBB20_89:
	movq	%r14, (%rbx)
	addq	$8, %rbx
	movq	cP2__Instance$__iData_Binary_get_Hos_Init_Msg_InitResponse(%rip), %rsi
	movq	%rbx, %rdi
	callq	s_alloc
	movq	$5439490, (%rax)        # imm = 0x530002
	movq	%r14, 8(%rax)
	jmp	.LBB20_116
.LBB20_98:
	movl	24(%rsi), %r15d
	movq	8(%rsi), %rbp
	movq	16(%rsi), %r12
	movq	%r14, (%rsp)
	movq	%r12, 8(%rsp)
	movq	%rbp, 16(%rsp)
	movq	%rbp, 16(%rbx)
	movaps	(%rsp), %xmm0
	movups	%xmm0, (%rbx)
	addq	$24, %rbx
	movq	cP2__Instance$__iData_Binary_get_Hos_User_IPC_ServerName$d11(%rip), %rsi
	movq	%rbx, %rdi
	callq	s_alloc
	movq	$6029314, (%rax)        # imm = 0x5C0002
	movq	%rbp, 8(%rax)
	movl	%r15d, 32(%rax)
	jmp	.LBB20_18
.LBB20_71:
	movq	8(%rsi), %r15
	movq	16(%rsi), %rbp
	movq	%r14, (%rsp)
	movq	%r15, 8(%rsp)
	movq	%rbp, 16(%rsp)
	movq	%rbp, 16(%rbx)
	movaps	(%rsp), %xmm0
	movups	%xmm0, (%rbx)
	addq	$24, %rbx
	movq	cP1__W$__fInstance$__iData_Binary_get_Hos_Init_Msg_InitResponse$d6(%rip), %rsi
	movq	%rbx, %rdi
	callq	s_alloc
	movq	$4063234, (%rax)        # imm = 0x3E0002
	jmp	.LBB20_45
.LBB20_74:
	movq	8(%rsi), %rbp
	movq	16(%rsi), %r15
	movq	24(%rsi), %r12
	movq	%r14, (%rsp)
	movq	%r15, 8(%rsp)
	movq	%rbp, 16(%rsp)
	movq	%rbp, 16(%rbx)
	movaps	(%rsp), %xmm0
	movups	%xmm0, (%rbx)
	addq	$24, %rbx
	movq	cP1__W$__fInstance$__iData_Binary_put_Hos_Storage_Msg_StorageResponse$d7(%rip), %rsi
	movq	%rbx, %rdi
	callq	s_alloc
	movq	$4259842, (%rax)        # imm = 0x410002
	movq	%rbp, 8(%rax)
	movq	%r15, 16(%rax)
	movq	%r12, 32(%rax)
	movq	%r14, 24(%rax)
	jmp	.LBB20_116
.LBB20_93:
	movq	%r14, (%rbx)
	addq	$8, %rbx
	movq	cP2__Instance$__iData_Binary_get_Hos_Storage_Msg_StorageQuery(%rip), %rsi
	movq	%rbx, %rdi
	callq	s_alloc
	movq	$5701634, (%rax)        # imm = 0x570002
	movq	%r14, 8(%rax)
	jmp	.LBB20_116
.LBB20_50:
	movq	8(%rsi), %rbp
	movq	%r14, (%rsp)
	movq	%rbp, 8(%rsp)
	movaps	(%rsp), %xmm0
	movups	%xmm0, (%rbx)
	addq	$16, %rbx
	movq	cP1__Instance$__iData_Binary_get_Jhc_Type_Word_Word16(%rip), %rsi
	movq	%rbx, %rdi
	callq	s_alloc
	movq	$2228226, (%rax)        # imm = 0x220002
	jmp	.LBB20_26
.LBB20_87:
	movq	%r14, (%rbx)
	addq	$8, %rbx
	movq	cP2__Instance$__iData_Binary_get_Hos_Common_Bundle_TagValue(%rip), %rsi
	movq	%rbx, %rdi
	callq	s_alloc
	movq	$5308418, (%rax)        # imm = 0x510002
	movq	%r14, 8(%rax)
	jmp	.LBB20_116
.LBB20_49:
	movq	8(%rsi), %rbp
	movq	%r14, (%rsp)
	movq	%rbp, 8(%rsp)
	movaps	(%rsp), %xmm0
	movups	%xmm0, (%rbx)
	addq	$16, %rbx
	movq	cP1__Instance$__iData_Binary_get_Jhc_Type_Basic_Char(%rip), %rsi
	movq	%rbx, %rdi
	callq	s_alloc
	movq	$2162690, (%rax)        # imm = 0x210002
	jmp	.LBB20_26
.LBB20_62:
	movq	8(%rsi), %rbp
	movq	%r14, (%rsp)
	movq	%rbp, 8(%rsp)
	movaps	(%rsp), %xmm0
	movups	%xmm0, (%rbx)
	addq	$16, %rbx
	movq	cP1__W$__fData_Binary_storableB$d5(%rip), %rsi
	movq	%rbx, %rdi
	callq	s_alloc
	movq	$3211266, (%rax)        # imm = 0x310002
	jmp	.LBB20_26
.LBB20_85:
	movq	%r14, (%rbx)
	addq	$8, %rbx
	movq	cP2__Instance$__iData_Binary_get_Hos_Common_Bundle_TagDescriptor(%rip), %rsi
	movq	%rbx, %rdi
	callq	s_alloc
	movq	$5177346, (%rax)        # imm = 0x4F0002
	movq	%r14, 8(%rax)
	jmp	.LBB20_116
.LBB20_66:
	movq	8(%rsi), %rbp
	movq	%r14, (%rsp)
	movq	%rbp, 8(%rsp)
	movaps	(%rsp), %xmm0
	movups	%xmm0, (%rbx)
	addq	$16, %rbx
	movq	cP1__W$__fInstance$__iData_Binary_get_Hos_Init_Msg_InitMessage$d3(%rip), %rsi
	movq	%rbx, %rdi
	callq	s_alloc
	movq	$3604482, (%rax)        # imm = 0x370002
	jmp	.LBB20_26
.LBB20_37:
	movq	8(%rsi), %rbp
	movq	%r14, (%rsp)
	movq	%rbp, 8(%rsp)
	movaps	(%rsp), %xmm0
	movups	%xmm0, (%rbx)
	addq	$16, %rbx
	movq	cP1__Instance$__iData_Binary_get_Hos_Storage_Msg_StorageResponse(%rip), %rsi
	movq	%rbx, %rdi
	callq	s_alloc
	movq	$1441794, (%rax)        # imm = 0x160002
	jmp	.LBB20_26
.LBB20_27:
	movq	8(%rsi), %rbp
	movq	%r14, (%rsp)
	movq	%rbp, 8(%rsp)
	movaps	(%rsp), %xmm0
	movups	%xmm0, (%rbx)
	addq	$16, %rbx
	movq	cP1__Instance$__iData_Binary_get_Hos_Common_Bundle_Tag(%rip), %rsi
	movq	%rbx, %rdi
	callq	s_alloc
	movq	$786434, (%rax)         # imm = 0xC0002
	jmp	.LBB20_26
.LBB20_36:
	movq	8(%rsi), %rbp
	movq	%r14, (%rsp)
	movq	%rbp, 8(%rsp)
	movaps	(%rsp), %xmm0
	movups	%xmm0, (%rbx)
	addq	$16, %rbx
	movq	cP1__Instance$__iData_Binary_get_Hos_Storage_Msg_StorageQuery(%rip), %rsi
	movq	%rbx, %rdi
	callq	s_alloc
	movq	$1376258, (%rax)        # imm = 0x150002
	jmp	.LBB20_26
.LBB20_58:
	movq	24(%rsi), %r15
	movq	8(%rsi), %rbp
	movq	16(%rsi), %r12
	movq	%r14, (%rsp)
	movq	%r12, 8(%rsp)
	movq	%rbp, 16(%rsp)
	movq	%rbp, 16(%rbx)
	movaps	(%rsp), %xmm0
	movups	%xmm0, (%rbx)
	addq	$24, %rbx
	movq	cP1__W$__fData_Binary_put$d6(%rip), %rsi
	movq	%rbx, %rdi
	callq	s_alloc
	movq	$2752514, (%rax)        # imm = 0x2A0002
	movq	%r15, 32(%rax)
	movq	%rbp, 8(%rax)
	jmp	.LBB20_18
.LBB20_76:
	movq	24(%rsi), %r15
	movq	8(%rsi), %r12
	movq	16(%rsi), %rbp
	movq	%r14, (%rsp)
	movq	%r12, 8(%rsp)
	movq	%rbp, 16(%rsp)
	movq	%rbp, 16(%rbx)
	movaps	(%rsp), %xmm0
	movups	%xmm0, (%rbx)
	addq	$24, %rbx
	movq	cP1__W$__fInstance$__iData_Monoid_mappend_Data_Binary_Builder$d2(%rip), %rsi
	movq	%rbx, %rdi
	callq	s_alloc
	movq	$4390914, (%rax)        # imm = 0x430002
	jmp	.LBB20_55
.LBB20_24:
	movq	8(%rsi), %rbp
	movq	16(%rsi), %r15
	movaps	32(%rsi), %xmm0
	movaps	%xmm0, 48(%rsp)         # 16-byte Spill
	movq	24(%rsi), %r12
	movq	%r14, (%rsp)
	movq	%rbp, 8(%rsp)
	movq	%r15, 16(%rsp)
	movq	%r12, 24(%rsp)
	movaps	16(%rsp), %xmm0
	movups	%xmm0, 16(%rbx)
	movaps	(%rsp), %xmm0
	movups	%xmm0, (%rbx)
	addq	$32, %rbx
	movq	cP1__Hos_User_IPC_transmitMsg$d8(%rip), %rsi
	movq	%rbx, %rdi
	callq	s_alloc
	movq	$655362, (%rax)         # imm = 0xA0002
	movq	%rbp, 8(%rax)
	movq	%r15, 16(%rax)
	movaps	48(%rsp), %xmm0         # 16-byte Reload
	movups	%xmm0, 40(%rax)
	jmp	.LBB20_42
.LBB20_100:
	movq	8(%rsi), %rbp
	movq	%r14, (%rsp)
	movq	%rbp, 8(%rsp)
	movaps	(%rsp), %xmm0
	movups	%xmm0, (%rbx)
	addq	$16, %rbx
	movq	cP2__Instance$__iData_Binary_get_Hos_User_IPC_ServerName$d5(%rip), %rsi
	movq	%rbx, %rdi
	callq	s_alloc
	movq	$6160386, (%rax)        # imm = 0x5E0002
	jmp	.LBB20_26
.LBB20_67:
	movq	8(%rsi), %r15
	movq	16(%rsi), %rbp
	movq	%r14, (%rsp)
	movq	%r15, 8(%rsp)
	movq	%rbp, 16(%rsp)
	movq	%rbp, 16(%rbx)
	movaps	(%rsp), %xmm0
	movups	%xmm0, (%rbx)
	addq	$24, %rbx
	movq	cP1__W$__fInstance$__iData_Binary_get_Hos_Init_Msg_InitMessage$d5(%rip), %rsi
	movq	%rbx, %rdi
	callq	s_alloc
	movq	$3735554, (%rax)        # imm = 0x390002
	jmp	.LBB20_45
.LBB20_29:
	movq	8(%rsi), %rbp
	movq	%r14, (%rsp)
	movq	%rbp, 8(%rsp)
	movaps	(%rsp), %xmm0
	movups	%xmm0, (%rbx)
	addq	$16, %rbx
	movq	cP1__Instance$__iData_Binary_get_Hos_Common_Bundle_TagName(%rip), %rsi
	movq	%rbx, %rdi
	callq	s_alloc
	movq	$917506, (%rax)         # imm = 0xE0002
	jmp	.LBB20_26
.LBB20_99:
	movq	8(%rsi), %rbp
	movq	%r14, (%rsp)
	movq	%rbp, 8(%rsp)
	movaps	(%rsp), %xmm0
	movups	%xmm0, (%rbx)
	addq	$16, %rbx
	movq	cP2__Instance$__iData_Binary_get_Hos_User_IPC_ServerName$d2(%rip), %rsi
	movq	%rbx, %rdi
	callq	s_alloc
	movq	$6094850, (%rax)        # imm = 0x5D0002
	jmp	.LBB20_26
.LBB20_13:
	movq	%r14, (%rbx)
	addq	$8, %rbx
	movq	cP1__Data_Binary_fl$_x64315462$d5406(%rip), %rsi
	movq	%rbx, %rdi
	callq	s_alloc
	movq	$65538, (%rax)          # imm = 0x10002
	movq	%r14, 8(%rax)
	jmp	.LBB20_116
.LBB20_32:
	movq	8(%rsi), %rbp
	movq	%r14, (%rsp)
	movq	%rbp, 8(%rsp)
	movaps	(%rsp), %xmm0
	movups	%xmm0, (%rbx)
	addq	$16, %rbx
	movq	cP1__Instance$__iData_Binary_get_Hos_Init_Msg_InitResponse(%rip), %rsi
	movq	%rbx, %rdi
	callq	s_alloc
	movq	$1114114, (%rax)        # imm = 0x110002
	jmp	.LBB20_26
.LBB20_33:
	movq	8(%rsi), %rbp
	movq	%r14, (%rsp)
	movq	%rbp, 8(%rsp)
	movaps	(%rsp), %xmm0
	movups	%xmm0, (%rbx)
	addq	$16, %rbx
	movq	cP1__Instance$__iData_Binary_get_Hos_Storage_Msg_ObId(%rip), %rsi
	movq	%rbx, %rdi
	callq	s_alloc
	movq	$1179650, (%rax)        # imm = 0x120002
	jmp	.LBB20_26
.LBB20_78:
	movq	8(%rsi), %rbp
	movq	%r14, (%rsp)
	movq	%rbp, 8(%rsp)
	movaps	(%rsp), %xmm0
	movups	%xmm0, (%rbx)
	addq	$16, %rbx
	movq	cP2__Data_Binary_get$d3(%rip), %rsi
	movq	%rbx, %rdi
	callq	s_alloc
	movq	$4587522, (%rax)        # imm = 0x460002
	jmp	.LBB20_26
.LBB20_82:
	movq	8(%rsi), %rbp
	movq	%r14, (%rsp)
	movq	%rbp, 8(%rsp)
	movaps	(%rsp), %xmm0
	movups	%xmm0, (%rbx)
	addq	$16, %rbx
	movq	cP2__Data_Binary_get$d7(%rip), %rsi
	movq	%rbx, %rdi
	callq	s_alloc
	movq	$4849666, (%rax)        # imm = 0x4A0002
	jmp	.LBB20_26
.LBB20_47:
	movq	8(%rsi), %rbp
	movq	16(%rsi), %r15
	movq	%r14, (%rsp)
	movq	%r15, 8(%rsp)
	movq	%rbp, 16(%rsp)
	movq	%rbp, 16(%rbx)
	movaps	(%rsp), %xmm0
	movups	%xmm0, (%rbx)
	addq	$24, %rbx
	movq	cP1__Instance$__iData_Binary_get_Hos_User_IPC_ServerName$d5(%rip), %rsi
	movq	%rbx, %rdi
	callq	s_alloc
	movq	$1900546, (%rax)        # imm = 0x1D0002
	movq	%rbp, 8(%rax)
	movq	%r15, 16(%rax)
	movq	%r14, 24(%rax)
	jmp	.LBB20_116
.LBB20_30:
	movq	8(%rsi), %rbp
	movq	%r14, (%rsp)
	movq	%rbp, 8(%rsp)
	movaps	(%rsp), %xmm0
	movups	%xmm0, (%rbx)
	addq	$16, %rbx
	movq	cP1__Instance$__iData_Binary_get_Hos_Common_Bundle_TagValue(%rip), %rsi
	movq	%rbx, %rdi
	callq	s_alloc
	movq	$983042, (%rax)         # imm = 0xF0002
	jmp	.LBB20_26
.LBB20_8:
	movq	%rbx, %rdi
	movq	%r14, %rsi
	callq	eval
	movl	(%rax), %ebx
	cmpl	$10, %ebx
	jae	.LBB20_9
# %bb.11:
	movl	$1, %edi
	callq	assert
	movl	$48, %eax
	jmp	.LBB20_12
.LBB20_20:
	movq	8(%rsi), %r15
	movq	16(%rsi), %r12
	movq	%r14, (%rsp)
	movq	%r12, 8(%rsp)
	movq	%r15, 16(%rsp)
	movq	%r15, 16(%rbx)
	movaps	(%rsp), %xmm0
	movups	%xmm0, (%rbx)
	addq	$24, %rbx
	movq	cP1__Data_Binary_get$d5(%rip), %rsi
	movq	%rbx, %rdi
	callq	s_alloc
	movq	$327682, (%rax)         # imm = 0x50002
	jmp	.LBB20_17
.LBB20_59:
	movaps	32(%rsi), %xmm0
	movaps	%xmm0, 48(%rsp)         # 16-byte Spill
	movq	8(%rsi), %rbp
	movq	16(%rsi), %r15
	movq	24(%rsi), %r12
	movq	%r14, (%rsp)
	movq	%rbp, 8(%rsp)
	movq	%r15, 16(%rsp)
	movq	%r12, 24(%rsp)
	movaps	16(%rsp), %xmm0
	movups	%xmm0, 16(%rbx)
	movaps	(%rsp), %xmm0
	movups	%xmm0, (%rbx)
	addq	$32, %rbx
	movq	cP1__W$__fData_Binary_put$d8(%rip), %rsi
	movq	%rbx, %rdi
	callq	s_alloc
	movq	$2818050, (%rax)        # imm = 0x2B0002
	movq	%rbp, 8(%rax)
	movaps	48(%rsp), %xmm0         # 16-byte Reload
	movups	%xmm0, 40(%rax)
	jmp	.LBB20_41
.LBB20_81:
	movq	8(%rsi), %rbp
	movq	%r14, (%rsp)
	movq	%rbp, 8(%rsp)
	movaps	(%rsp), %xmm0
	movups	%xmm0, (%rbx)
	addq	$16, %rbx
	movq	cP2__Data_Binary_get$d6(%rip), %rsi
	movq	%rbx, %rdi
	callq	s_alloc
	movq	$4784130, (%rax)        # imm = 0x490002
	jmp	.LBB20_26
.LBB20_44:
	movq	8(%rsi), %r15
	movq	16(%rsi), %rbp
	movq	%r14, (%rsp)
	movq	%r15, 8(%rsp)
	movq	%rbp, 16(%rsp)
	movq	%rbp, 16(%rbx)
	movaps	(%rsp), %xmm0
	movups	%xmm0, (%rbx)
	addq	$24, %rbx
	movq	cP1__Instance$__iData_Binary_get_Hos_User_IPC_ServerName$d2(%rip), %rsi
	movq	%rbx, %rdi
	callq	s_alloc
	movq	$1835010, (%rax)        # imm = 0x1C0002
	jmp	.LBB20_45
.LBB20_48:
	movq	8(%rsi), %rbp
	movq	%r14, (%rsp)
	movq	%rbp, 8(%rsp)
	movaps	(%rsp), %xmm0
	movups	%xmm0, (%rbx)
	addq	$16, %rbx
	movq	cP1__Instance$__iData_Binary_get_Jhc_Prim_Prim_Bool(%rip), %rsi
	movq	%rbx, %rdi
	callq	s_alloc
	movq	$2097154, (%rax)        # imm = 0x200002
	jmp	.LBB20_26
.LBB20_115:
	movq	8(%rsi), %r15
	movzbl	16(%rsi), %eax
	movq	%r15, (%rsp)
	movq	%r14, 8(%rsp)
	movaps	(%rsp), %xmm0
	movups	%xmm0, (%rbx)
	leaq	2(,%rax,4), %r12
	movq	%r12, 16(%rbx)
	addq	$24, %rbx
	movq	cCJhc_Prim_Prim_$x3a(%rip), %rsi
	movq	%rbx, %rdi
	callq	s_alloc
	movq	%r12, (%rax)
	movq	%r14, 8(%rax)
	movq	%rbx, %rdi
	movq	%r15, %rsi
	movq	%rax, %rdx
	callq	bapply__84437
	jmp	.LBB20_116
.LBB20_6:
	movq	8(%rsi), %rax
	movq	8(%rax), %rsi
	movq	%rbx, %rdi
.LBB20_5:
	addq	$72, %rsp
	popq	%rbx
	popq	%r12
	popq	%r13
	popq	%r14
	popq	%r15
	popq	%rbp
	jmp	eval                    # TAILCALL
.LBB20_7:
	movq	8(%rsi), %rax
	movq	16(%rsi), %rdx
	movq	%rbx, %rdi
	movq	%rax, %rsi
	movq	%r14, %rcx
	addq	$72, %rsp
	popq	%rbx
	popq	%r12
	popq	%r13
	popq	%r14
	popq	%r15
	popq	%rbp
	jmp	fMain_serveBundle$d8    # TAILCALL
.LBB20_22:
	movq	8(%rsi), %r15
	movq	16(%rsi), %r12
	movq	%r14, (%rsp)
	movq	%r12, 8(%rsp)
	movq	%r15, 16(%rsp)
	movq	%r15, 16(%rbx)
	movaps	(%rsp), %xmm0
	movups	%xmm0, (%rbx)
	addq	$24, %rbx
	movq	cP1__Data_Binary_get$d7(%rip), %rsi
	movq	%rbx, %rdi
	callq	s_alloc
	movq	$458754, (%rax)         # imm = 0x70002
	jmp	.LBB20_17
.LBB20_19:
	movq	8(%rsi), %r15
	movq	16(%rsi), %r12
	movq	%r14, (%rsp)
	movq	%r12, 8(%rsp)
	movq	%r15, 16(%rsp)
	movq	%r15, 16(%rbx)
	movaps	(%rsp), %xmm0
	movups	%xmm0, (%rbx)
	addq	$24, %rbx
	movq	cP1__Data_Binary_get$d4(%rip), %rsi
	movq	%rbx, %rdi
	callq	s_alloc
	movq	$262146, (%rax)         # imm = 0x40002
	jmp	.LBB20_17
.LBB20_110:
	movq	%r14, (%rbx)
	addq	$8, %rbx
	movq	cP2__W$__fInstance$__iData_Binary_get_Hos_Init_Msg_InitResponse$d2(%rip), %rsi
	movq	%rbx, %rdi
	callq	s_alloc
	movq	$7733250, (%rax)        # imm = 0x760002
	movq	%r14, 8(%rax)
	jmp	.LBB20_116
.LBB20_94:
	movq	%r14, (%rbx)
	addq	$8, %rbx
	movq	cP2__Instance$__iData_Binary_get_Hos_Storage_Msg_StorageResponse(%rip), %rsi
	movq	%rbx, %rdi
	callq	s_alloc
	movq	$5767170, (%rax)        # imm = 0x580002
	movq	%r14, 8(%rax)
	jmp	.LBB20_116
.LBB20_79:
	movq	8(%rsi), %rbp
	movq	%r14, (%rsp)
	movq	%rbp, 8(%rsp)
	movaps	(%rsp), %xmm0
	movups	%xmm0, (%rbx)
	addq	$16, %rbx
	movq	cP2__Data_Binary_get$d4(%rip), %rsi
	movq	%rbx, %rdi
	callq	s_alloc
	movq	$4653058, (%rax)        # imm = 0x470002
	jmp	.LBB20_26
.LBB20_80:
	movq	8(%rsi), %rbp
	movq	%r14, (%rsp)
	movq	%rbp, 8(%rsp)
	movaps	(%rsp), %xmm0
	movups	%xmm0, (%rbx)
	addq	$16, %rbx
	movq	cP2__Data_Binary_get$d5(%rip), %rsi
	movq	%rbx, %rdi
	callq	s_alloc
	movq	$4718594, (%rax)        # imm = 0x480002
	jmp	.LBB20_26
.LBB20_83:
	movq	%r14, (%rbx)
	addq	$8, %rbx
	movq	cP2__Instance$__iData_Binary_get_Hos_Common_Bundle_GUID(%rip), %rsi
	movq	%rbx, %rdi
	callq	s_alloc
	movq	$5046274, (%rax)        # imm = 0x4D0002
	movq	%r14, 8(%rax)
	jmp	.LBB20_116
.LBB20_14:
	movq	8(%rsi), %r15
	movq	16(%rsi), %r12
	movq	24(%rsi), %r13
	movq	%r14, (%rsp)
	movq	%r13, 8(%rsp)
	movq	%r12, 16(%rsp)
	movq	%r15, 24(%rsp)
	movaps	16(%rsp), %xmm0
	movups	%xmm0, 16(%rbx)
	movaps	(%rsp), %xmm0
	movups	%xmm0, (%rbx)
	addq	$32, %rbx
	movq	cP1__Data_Binary_get$d2(%rip), %rsi
	movq	%rbx, %rdi
	callq	s_alloc
	movq	$131074, (%rax)         # imm = 0x20002
	movq	%r15, 8(%rax)
	jmp	.LBB20_15
.LBB20_34:
	movq	8(%rsi), %rbp
	movq	%r14, (%rsp)
	movq	%rbp, 8(%rsp)
	movaps	(%rsp), %xmm0
	movups	%xmm0, (%rbx)
	addq	$16, %rbx
	movq	cP1__Instance$__iData_Binary_get_Hos_Storage_Msg_QId(%rip), %rsi
	movq	%rbx, %rdi
	callq	s_alloc
	movq	$1245186, (%rax)        # imm = 0x130002
	jmp	.LBB20_26
.LBB20_25:
	movq	8(%rsi), %rbp
	movq	%r14, (%rsp)
	movq	%rbp, 8(%rsp)
	movaps	(%rsp), %xmm0
	movups	%xmm0, (%rbx)
	addq	$16, %rbx
	movq	cP1__Instance$__iData_Binary_get_Hos_Common_Bundle_GUID(%rip), %rsi
	movq	%rbx, %rdi
	callq	s_alloc
	movq	$720898, (%rax)         # imm = 0xB0002
	jmp	.LBB20_26
.LBB20_112:
	movq	%r14, (%rbx)
	addq	$8, %rbx
	movq	cP2__W$__fInstance$__iData_Binary_get_Hos_Init_Msg_InitResponse$d4(%rip), %rsi
	movq	%rbx, %rdi
	callq	s_alloc
	movq	$7864322, (%rax)        # imm = 0x780002
	movq	%r14, 8(%rax)
	jmp	.LBB20_116
.LBB20_31:
	movq	8(%rsi), %rbp
	movq	%r14, (%rsp)
	movq	%rbp, 8(%rsp)
	movaps	(%rsp), %xmm0
	movups	%xmm0, (%rbx)
	addq	$16, %rbx
	movq	cP1__Instance$__iData_Binary_get_Hos_Init_Msg_InitMessage(%rip), %rsi
	movq	%rbx, %rdi
	callq	s_alloc
	movq	$1048578, (%rax)        # imm = 0x100002
	jmp	.LBB20_26
.LBB20_28:
	movq	8(%rsi), %rbp
	movq	%r14, (%rsp)
	movq	%rbp, 8(%rsp)
	movaps	(%rsp), %xmm0
	movups	%xmm0, (%rbx)
	addq	$16, %rbx
	movq	cP1__Instance$__iData_Binary_get_Hos_Common_Bundle_TagDescriptor(%rip), %rsi
	movq	%rbx, %rdi
	callq	s_alloc
	movq	$851970, (%rax)         # imm = 0xD0002
	jmp	.LBB20_26
.LBB20_63:
	movq	8(%rsi), %rbp
	movq	%r14, (%rsp)
	movq	%rbp, 8(%rsp)
	movaps	(%rsp), %xmm0
	movups	%xmm0, (%rbx)
	addq	$16, %rbx
	movq	cP1__W$__fData_Binary_storableB$d7(%rip), %rsi
	movq	%rbx, %rdi
	callq	s_alloc
	movq	$3342338, (%rax)        # imm = 0x330002
	jmp	.LBB20_26
.LBB20_16:
	movq	8(%rsi), %r15
	movq	16(%rsi), %r12
	movq	%r14, (%rsp)
	movq	%r15, 8(%rsp)
	movq	%r12, 16(%rsp)
	movq	%r12, 16(%rbx)
	movaps	(%rsp), %xmm0
	movups	%xmm0, (%rbx)
	addq	$24, %rbx
	movq	cP1__Data_Binary_get$d3(%rip), %rsi
	movq	%rbx, %rdi
	callq	s_alloc
	movq	$196610, (%rax)         # imm = 0x30002
	jmp	.LBB20_17
.LBB20_35:
	movq	8(%rsi), %rbp
	movq	%r14, (%rsp)
	movq	%rbp, 8(%rsp)
	movaps	(%rsp), %xmm0
	movups	%xmm0, (%rbx)
	addq	$16, %rbx
	movq	cP1__Instance$__iData_Binary_get_Hos_Storage_Msg_StorageMessage(%rip), %rsi
	movq	%rbx, %rdi
	callq	s_alloc
	movq	$1310722, (%rax)        # imm = 0x140002
	jmp	.LBB20_26
.LBB20_23:
	movups	40(%rsi), %xmm0
	movaps	%xmm0, 48(%rsp)         # 16-byte Spill
	movq	8(%rsi), %r15
	movq	16(%rsi), %r12
	movq	24(%rsi), %r13
	movq	56(%rsi), %rax
	movq	%rax, 64(%rsp)          # 8-byte Spill
	movq	32(%rsi), %rbp
	movq	%r14, (%rsp)
	movq	%r12, 8(%rsp)
	movq	%r13, 16(%rsp)
	movq	%r15, 24(%rsp)
	movq	%rbp, 32(%rsp)
	movq	%rbp, 32(%rbx)
	movaps	16(%rsp), %xmm0
	movups	%xmm0, 16(%rbx)
	movaps	(%rsp), %xmm0
	movups	%xmm0, (%rbx)
	addq	$40, %rbx
	movq	cP1__Hos_User_IPC_transmitMsg$d15(%rip), %rsi
	movq	%rbx, %rdi
	callq	s_alloc
	movq	$589826, (%rax)         # imm = 0x90002
	movaps	48(%rsp), %xmm0         # 16-byte Reload
	movaps	%xmm0, 48(%rax)
	movq	%r15, 8(%rax)
	movq	%r12, 16(%rax)
	movq	%r13, 24(%rax)
	movq	64(%rsp), %rcx          # 8-byte Reload
	movq	%rcx, 64(%rax)
	movq	%rbp, 32(%rax)
	movq	%r14, 40(%rax)
	jmp	.LBB20_116
.LBB20_21:
	movq	8(%rsi), %r15
	movq	16(%rsi), %r12
	movq	%r14, (%rsp)
	movq	%r12, 8(%rsp)
	movq	%r15, 16(%rsp)
	movq	%r15, 16(%rbx)
	movaps	(%rsp), %xmm0
	movups	%xmm0, (%rbx)
	addq	$24, %rbx
	movq	cP1__Data_Binary_get$d6(%rip), %rsi
	movq	%rbx, %rdi
	callq	s_alloc
	movq	$393218, (%rax)         # imm = 0x60002
.LBB20_17:
	movq	%r15, 8(%rax)
.LBB20_18:
	movq	%r12, 16(%rax)
	movq	%r14, 24(%rax)
	jmp	.LBB20_116
.LBB20_40:
	movq	8(%rsi), %rbp
	movq	16(%rsi), %r15
	movq	24(%rsi), %r12
	movq	%r14, (%rsp)
	movq	%rbp, 8(%rsp)
	movq	%r15, 16(%rsp)
	movq	%r12, 24(%rsp)
	movaps	16(%rsp), %xmm0
	movups	%xmm0, 16(%rbx)
	movaps	(%rsp), %xmm0
	movups	%xmm0, (%rbx)
	addq	$32, %rbx
	movq	cP1__Instance$__iData_Binary_get_Hos_User_IPC_ServerName$d10(%rip), %rsi
	movq	%rbx, %rdi
	callq	s_alloc
	movq	$1638402, (%rax)        # imm = 0x190002
	movq	%rbp, 8(%rax)
.LBB20_41:
	movq	%r15, 16(%rax)
.LBB20_42:
	movq	%r12, 24(%rax)
	movq	%r14, 32(%rax)
	jmp	.LBB20_116
.LBB20_56:
	movq	24(%rsi), %r15
	movq	8(%rsi), %r12
	movq	16(%rsi), %rbp
	movq	%r14, (%rsp)
	movq	%r12, 8(%rsp)
	movq	%rbp, 16(%rsp)
	movq	%rbp, 16(%rbx)
	movaps	(%rsp), %xmm0
	movups	%xmm0, (%rbx)
	addq	$24, %rbx
	movq	cP1__W$__fData_Binary_put$d4(%rip), %rsi
	movq	%rbx, %rdi
	callq	s_alloc
	movq	$2686978, (%rax)        # imm = 0x290002
	jmp	.LBB20_57
.LBB20_60:
	movq	8(%rsi), %rbp
	movq	%r14, (%rsp)
	movq	%rbp, 8(%rsp)
	movaps	(%rsp), %xmm0
	movups	%xmm0, (%rbx)
	addq	$16, %rbx
	movq	cP1__W$__fData_Binary_storableB$d11(%rip), %rsi
	movq	%rbx, %rdi
	callq	s_alloc
	movq	$2949122, (%rax)        # imm = 0x2D0002
	jmp	.LBB20_26
.LBB20_43:
	movl	32(%rsi), %r15d
	movq	8(%rsi), %rbp
	movq	16(%rsi), %r12
	movq	24(%rsi), %r13
	movq	%r14, (%rsp)
	movq	%rbp, 8(%rsp)
	movq	%r12, 16(%rsp)
	movq	%r13, 24(%rsp)
	movaps	16(%rsp), %xmm0
	movups	%xmm0, 16(%rbx)
	movaps	(%rsp), %xmm0
	movups	%xmm0, (%rbx)
	addq	$32, %rbx
	movq	cP1__Instance$__iData_Binary_get_Hos_User_IPC_ServerName$d11(%rip), %rsi
	movq	%rbx, %rdi
	callq	s_alloc
	movq	$1703938, (%rax)        # imm = 0x1A0002
	movq	%rbp, 8(%rax)
	movl	%r15d, 40(%rax)
.LBB20_15:
	movq	%r12, 16(%rax)
	movq	%r13, 24(%rax)
	movq	%r14, 32(%rax)
	jmp	.LBB20_116
.LBB20_103:
	movq	%r14, (%rbx)
	addq	$8, %rbx
	movq	cP2__Instance$__iData_Binary_get_Jhc_Type_Word_Word16(%rip), %rsi
	movq	%rbx, %rdi
	callq	s_alloc
	movq	$6356994, (%rax)        # imm = 0x610002
	movq	%r14, 8(%rax)
	jmp	.LBB20_116
.LBB20_104:
	movq	%r14, (%rbx)
	addq	$8, %rbx
	movq	cP2__Instance$__iData_Binary_get_Jhc_Type_Word_Word32(%rip), %rsi
	movq	%rbx, %rdi
	callq	s_alloc
	movq	$6422530, (%rax)        # imm = 0x620002
	movq	%r14, 8(%rax)
	jmp	.LBB20_116
.LBB20_38:
	movq	8(%rsi), %rbp
	movq	%r14, (%rsp)
	movq	%rbp, 8(%rsp)
	movaps	(%rsp), %xmm0
	movups	%xmm0, (%rbx)
	addq	$16, %rbx
	movq	cP1__Instance$__iData_Binary_get_Hos_Storage_Msg_TxId(%rip), %rsi
	movq	%rbx, %rdi
	callq	s_alloc
	movq	$1507330, (%rax)        # imm = 0x170002
	jmp	.LBB20_26
.LBB20_75:
	movq	24(%rsi), %r15
	movq	8(%rsi), %r12
	movq	16(%rsi), %rbp
	movq	%r14, (%rsp)
	movq	%r12, 8(%rsp)
	movq	%rbp, 16(%rsp)
	movq	%rbp, 16(%rbx)
	movaps	(%rsp), %xmm0
	movups	%xmm0, (%rbx)
	addq	$24, %rbx
	movq	cP1__W$__fInstance$__iData_Binary_put_Jhc_Prim_Prim_$BEd5(%rip), %rsi
	movq	%rbx, %rdi
	callq	s_alloc
	movq	$4325378, (%rax)        # imm = 0x420002
	jmp	.LBB20_57
.LBB20_77:
	movq	8(%rsi), %r15
	movq	16(%rsi), %rbp
	movq	%r14, (%rsp)
	movq	%r15, 8(%rsp)
	movq	%rbp, 16(%rsp)
	movq	%rbp, 16(%rbx)
	movaps	(%rsp), %xmm0
	movups	%xmm0, (%rbx)
	addq	$24, %rbx
	movq	cP2__Data_Binary_get$d2(%rip), %rsi
	movq	%rbx, %rdi
	callq	s_alloc
	movq	$4521986, (%rax)        # imm = 0x450002
.LBB20_45:
	movq	%r15, 8(%rax)
	jmp	.LBB20_46
.LBB20_54:
	movq	24(%rsi), %r15
	movq	8(%rsi), %r12
	movq	16(%rsi), %rbp
	movq	%r14, (%rsp)
	movq	%r12, 8(%rsp)
	movq	%rbp, 16(%rsp)
	movq	%rbp, 16(%rbx)
	movaps	(%rsp), %xmm0
	movups	%xmm0, (%rbx)
	addq	$24, %rbx
	movq	cP1__W$__fData_Binary_put$d2(%rip), %rsi
	movq	%rbx, %rdi
	callq	s_alloc
	movq	$2621442, (%rax)        # imm = 0x280002
.LBB20_55:
	movq	%r12, 8(%rax)
	movq	%r15, 32(%rax)
	jmp	.LBB20_46
.LBB20_72:
	movq	8(%rsi), %rbp
	movq	16(%rsi), %r15
	movq	24(%rsi), %r12
	movaps	32(%rsi), %xmm0
	movaps	%xmm0, 48(%rsp)         # 16-byte Spill
	movq	%r14, (%rsp)
	movq	%rbp, 8(%rsp)
	movq	%r15, 16(%rsp)
	movq	%r12, 24(%rsp)
	movaps	16(%rsp), %xmm0
	movups	%xmm0, 16(%rbx)
	movaps	(%rsp), %xmm0
	movups	%xmm0, (%rbx)
	addq	$32, %rbx
	movq	cP1__W$__fInstance$__iData_Binary_put_Hos_Storage_Msg_StorageResponse$d2(%rip), %rsi
	movq	%rbx, %rdi
	callq	s_alloc
	movq	$4128770, (%rax)        # imm = 0x3F0002
	movq	%rbp, 8(%rax)
	movq	%r15, 16(%rax)
	movq	%r12, 24(%rax)
	movaps	48(%rsp), %xmm0         # 16-byte Reload
	movups	%xmm0, 40(%rax)
	movq	%r14, 32(%rax)
	jmp	.LBB20_116
.LBB20_39:
	movq	8(%rsi), %rbp
	movq	%r14, (%rsp)
	movq	%rbp, 8(%rsp)
	movaps	(%rsp), %xmm0
	movups	%xmm0, (%rbx)
	addq	$16, %rbx
	movq	cP1__Instance$__iData_Binary_get_Hos_Storage_Msg_TxStatus(%rip), %rsi
	movq	%rbx, %rdi
	callq	s_alloc
	movq	$1572866, (%rax)        # imm = 0x180002
	jmp	.LBB20_26
.LBB20_90:
	movq	%r14, (%rbx)
	addq	$8, %rbx
	movq	cP2__Instance$__iData_Binary_get_Hos_Storage_Msg_ObId(%rip), %rsi
	movq	%rbx, %rdi
	callq	s_alloc
	movq	$5505026, (%rax)        # imm = 0x540002
	movq	%r14, 8(%rax)
	jmp	.LBB20_116
.LBB20_73:
	movq	24(%rsi), %r15
	movq	8(%rsi), %r12
	movq	16(%rsi), %rbp
	movq	%r14, (%rsp)
	movq	%r12, 8(%rsp)
	movq	%rbp, 16(%rsp)
	movq	%rbp, 16(%rbx)
	movaps	(%rsp), %xmm0
	movups	%xmm0, (%rbx)
	addq	$24, %rbx
	movq	cP1__W$__fInstance$__iData_Binary_put_Hos_Storage_Msg_StorageResponse$d5(%rip), %rsi
	movq	%rbx, %rdi
	callq	s_alloc
	movq	$4194306, (%rax)        # imm = 0x400002
.LBB20_57:
	movq	%r15, 32(%rax)
	movq	%r12, 8(%rax)
.LBB20_46:
	movq	%rbp, 16(%rax)
	movq	%r14, 24(%rax)
	jmp	.LBB20_116
.LBB20_51:
	movq	8(%rsi), %rbp
	movq	%r14, (%rsp)
	movq	%rbp, 8(%rsp)
	movaps	(%rsp), %xmm0
	movups	%xmm0, (%rbx)
	addq	$16, %rbx
	movq	cP1__Instance$__iData_Binary_get_Jhc_Type_Word_Word32(%rip), %rsi
	movq	%rbx, %rdi
	callq	s_alloc
	movq	$2293762, (%rax)        # imm = 0x230002
	jmp	.LBB20_26
.LBB20_64:
	movq	8(%rsi), %rbp
	movq	%r14, (%rsp)
	movq	%rbp, 8(%rsp)
	movaps	(%rsp), %xmm0
	movups	%xmm0, (%rbx)
	addq	$16, %rbx
	movq	cP1__W$__fData_Binary_storableB$d9(%rip), %rsi
	movq	%rbx, %rdi
	callq	s_alloc
	movq	$3473410, (%rax)        # imm = 0x350002
	jmp	.LBB20_26
.LBB20_70:
	movq	8(%rsi), %rbp
	movq	%r14, (%rsp)
	movq	%rbp, 8(%rsp)
	movaps	(%rsp), %xmm0
	movups	%xmm0, (%rbx)
	addq	$16, %rbx
	movq	cP1__W$__fInstance$__iData_Binary_get_Hos_Init_Msg_InitResponse$d4(%rip), %rsi
	movq	%rbx, %rdi
	callq	s_alloc
	movq	$3932162, (%rax)        # imm = 0x3C0002
	jmp	.LBB20_26
.LBB20_91:
	movq	%r14, (%rbx)
	addq	$8, %rbx
	movq	cP2__Instance$__iData_Binary_get_Hos_Storage_Msg_QId(%rip), %rsi
	movq	%rbx, %rdi
	callq	s_alloc
	movq	$5570562, (%rax)        # imm = 0x550002
	movq	%r14, 8(%rax)
	jmp	.LBB20_116
.LBB20_61:
	movq	8(%rsi), %rbp
	movq	%r14, (%rsp)
	movq	%rbp, 8(%rsp)
	movaps	(%rsp), %xmm0
	movups	%xmm0, (%rbx)
	addq	$16, %rbx
	movq	cP1__W$__fData_Binary_storableB$d3(%rip), %rsi
	movq	%rbx, %rdi
	callq	s_alloc
	movq	$3080194, (%rax)        # imm = 0x2F0002
	jmp	.LBB20_26
.LBB20_92:
	movq	%r14, (%rbx)
	addq	$8, %rbx
	movq	cP2__Instance$__iData_Binary_get_Hos_Storage_Msg_StorageMessage(%rip), %rsi
	movq	%rbx, %rdi
	callq	s_alloc
	movq	$5636098, (%rax)        # imm = 0x560002
	movq	%r14, 8(%rax)
	jmp	.LBB20_116
.LBB20_69:
	movq	8(%rsi), %rbp
	movq	%r14, (%rsp)
	movq	%rbp, 8(%rsp)
	movaps	(%rsp), %xmm0
	movups	%xmm0, (%rbx)
	addq	$16, %rbx
	movq	cP1__W$__fInstance$__iData_Binary_get_Hos_Init_Msg_InitResponse$d3(%rip), %rsi
	movq	%rbx, %rdi
	callq	s_alloc
	movq	$3866626, (%rax)        # imm = 0x3B0002
	jmp	.LBB20_26
.LBB20_105:
	movq	%r14, (%rbx)
	addq	$8, %rbx
	movq	cP2__Instance$__iData_Binary_get_Jhc_Type_Word_Word64(%rip), %rsi
	movq	%rbx, %rdi
	callq	s_alloc
	movq	$6488066, (%rax)        # imm = 0x630002
	movq	%r14, 8(%rax)
	jmp	.LBB20_116
.LBB20_96:
	movq	%r14, (%rbx)
	addq	$8, %rbx
	movq	cP2__Instance$__iData_Binary_get_Hos_Storage_Msg_TxStatus(%rip), %rsi
	movq	%rbx, %rdi
	callq	s_alloc
	movq	$5898242, (%rax)        # imm = 0x5A0002
	movq	%r14, 8(%rax)
	jmp	.LBB20_116
.LBB20_68:
	movq	8(%rsi), %rbp
	movq	%r14, (%rsp)
	movq	%rbp, 8(%rsp)
	movaps	(%rsp), %xmm0
	movups	%xmm0, (%rbx)
	addq	$16, %rbx
	movq	cP1__W$__fInstance$__iData_Binary_get_Hos_Init_Msg_InitResponse$d2(%rip), %rsi
	movq	%rbx, %rdi
	callq	s_alloc
	movq	$3801090, (%rax)        # imm = 0x3A0002
	jmp	.LBB20_26
.LBB20_86:
	movq	%r14, (%rbx)
	addq	$8, %rbx
	movq	cP2__Instance$__iData_Binary_get_Hos_Common_Bundle_TagName(%rip), %rsi
	movq	%rbx, %rdi
	callq	s_alloc
	movq	$5242882, (%rax)        # imm = 0x500002
	movq	%r14, 8(%rax)
	jmp	.LBB20_116
.LBB20_113:
	movq	8(%rsi), %rbp
	movq	%r14, (%rsp)
	movq	%rbp, 8(%rsp)
	movaps	(%rsp), %xmm0
	movups	%xmm0, (%rbx)
	addq	$16, %rbx
	movq	cP2__W$__fInstance$__iData_Binary_get_Hos_Init_Msg_InitResponse$d6(%rip), %rsi
	movq	%rbx, %rdi
	callq	s_alloc
	movq	$7929858, (%rax)        # imm = 0x790002
.LBB20_26:
	movq	%rbp, 8(%rax)
	movq	%r14, 16(%rax)
.LBB20_116:
	addq	$72, %rsp
	popq	%rbx
	popq	%r12
	popq	%r13
	popq	%r14
	popq	%r15
	popq	%rbp
	retq
.LBB20_108:
	movq	%r14, (%rbx)
	addq	$8, %rbx
	movq	cP2__W$__fInstance$__iData_Binary_get_Hos_Init_Msg_InitMessage$d3(%rip), %rsi
	movq	%rbx, %rdi
	callq	s_alloc
	movq	$7602178, (%rax)        # imm = 0x740002
	movq	%r14, 8(%rax)
	jmp	.LBB20_116
.LBB20_107:
	movq	%r14, (%rbx)
	addq	$8, %rbx
	movq	cP2__W$__fInstance$__iData_Binary_get_Hos_Init_Msg_InitMessage$d2(%rip), %rsi
	movq	%rbx, %rdi
	callq	s_alloc
	movq	$7536642, (%rax)        # imm = 0x730002
	movq	%r14, 8(%rax)
	jmp	.LBB20_116
.LBB20_102:
	movq	%r14, (%rbx)
	addq	$8, %rbx
	movq	cP2__Instance$__iData_Binary_get_Jhc_Type_Basic_Char(%rip), %rsi
	movq	%rbx, %rdi
	callq	s_alloc
	movq	$6291458, (%rax)        # imm = 0x600002
	movq	%r14, 8(%rax)
	jmp	.LBB20_116
.LBB20_9:
	cmpl	$16, %ebx
	jae	.LBB20_117
# %bb.10:
	movl	$1, %edi
	callq	assert
	movl	$87, %eax
.LBB20_12:
	addl	%eax, %ebx
	leaq	2(,%rbx,4), %rax
	jmp	.LBB20_116
.LBB20_114:
	movl	$7938, %edi             # imm = 0x1F02
	callq	jhc_case_fell_off
.LBB20_117:
	movl	$.L.str.1, %edi
	callq	jhc_error
.Lfunc_end20:
	.size	bapply__84437, .Lfunc_end20-bapply__84437
	.cfi_endproc
	.section	.rodata,"a",@progbits
	.p2align	3
.LJTI20_0:
	.quad	.LBB20_4
	.quad	.LBB20_114
	.quad	.LBB20_114
	.quad	.LBB20_114
	.quad	.LBB20_114
	.quad	.LBB20_114
	.quad	.LBB20_114
	.quad	.LBB20_114
	.quad	.LBB20_114
	.quad	.LBB20_114
	.quad	.LBB20_114
	.quad	.LBB20_114
	.quad	.LBB20_114
	.quad	.LBB20_114
	.quad	.LBB20_114
	.quad	.LBB20_114
	.quad	.LBB20_114
	.quad	.LBB20_114
	.quad	.LBB20_114
	.quad	.LBB20_115
	.quad	.LBB20_114
	.quad	.LBB20_114
	.quad	.LBB20_114
	.quad	.LBB20_6
	.quad	.LBB20_114
	.quad	.LBB20_114
	.quad	.LBB20_114
	.quad	.LBB20_114
	.quad	.LBB20_114
	.quad	.LBB20_114
	.quad	.LBB20_7
	.quad	.LBB20_8
	.quad	.LBB20_114
	.quad	.LBB20_114
	.quad	.LBB20_114
	.quad	.LBB20_114
	.quad	.LBB20_114
	.quad	.LBB20_114
	.quad	.LBB20_114
	.quad	.LBB20_114
	.quad	.LBB20_114
	.quad	.LBB20_114
	.quad	.LBB20_114
	.quad	.LBB20_114
	.quad	.LBB20_114
	.quad	.LBB20_114
	.quad	.LBB20_114
	.quad	.LBB20_114
	.quad	.LBB20_114
	.quad	.LBB20_114
	.quad	.LBB20_114
	.quad	.LBB20_114
	.quad	.LBB20_114
	.quad	.LBB20_114
	.quad	.LBB20_114
	.quad	.LBB20_114
	.quad	.LBB20_114
	.quad	.LBB20_114
	.quad	.LBB20_114
	.quad	.LBB20_114
	.quad	.LBB20_13
	.quad	.LBB20_14
	.quad	.LBB20_16
	.quad	.LBB20_19
	.quad	.LBB20_20
	.quad	.LBB20_21
	.quad	.LBB20_22
	.quad	.LBB20_23
	.quad	.LBB20_24
	.quad	.LBB20_25
	.quad	.LBB20_27
	.quad	.LBB20_28
	.quad	.LBB20_29
	.quad	.LBB20_30
	.quad	.LBB20_31
	.quad	.LBB20_32
	.quad	.LBB20_33
	.quad	.LBB20_34
	.quad	.LBB20_35
	.quad	.LBB20_36
	.quad	.LBB20_37
	.quad	.LBB20_38
	.quad	.LBB20_39
	.quad	.LBB20_40
	.quad	.LBB20_43
	.quad	.LBB20_44
	.quad	.LBB20_47
	.quad	.LBB20_48
	.quad	.LBB20_49
	.quad	.LBB20_50
	.quad	.LBB20_51
	.quad	.LBB20_52
	.quad	.LBB20_53
	.quad	.LBB20_54
	.quad	.LBB20_56
	.quad	.LBB20_58
	.quad	.LBB20_59
	.quad	.LBB20_114
	.quad	.LBB20_60
	.quad	.LBB20_114
	.quad	.LBB20_61
	.quad	.LBB20_114
	.quad	.LBB20_62
	.quad	.LBB20_114
	.quad	.LBB20_63
	.quad	.LBB20_114
	.quad	.LBB20_64
	.quad	.LBB20_65
	.quad	.LBB20_66
	.quad	.LBB20_67
	.quad	.LBB20_68
	.quad	.LBB20_69
	.quad	.LBB20_70
	.quad	.LBB20_71
	.quad	.LBB20_72
	.quad	.LBB20_73
	.quad	.LBB20_74
	.quad	.LBB20_75
	.quad	.LBB20_76
	.quad	.LBB20_77
	.quad	.LBB20_78
	.quad	.LBB20_79
	.quad	.LBB20_80
	.quad	.LBB20_81
	.quad	.LBB20_82
	.quad	.LBB20_83
	.quad	.LBB20_84
	.quad	.LBB20_85
	.quad	.LBB20_86
	.quad	.LBB20_87
	.quad	.LBB20_88
	.quad	.LBB20_89
	.quad	.LBB20_90
	.quad	.LBB20_91
	.quad	.LBB20_92
	.quad	.LBB20_93
	.quad	.LBB20_94
	.quad	.LBB20_95
	.quad	.LBB20_96
	.quad	.LBB20_97
	.quad	.LBB20_98
	.quad	.LBB20_99
	.quad	.LBB20_100
	.quad	.LBB20_101
	.quad	.LBB20_102
	.quad	.LBB20_103
	.quad	.LBB20_104
	.quad	.LBB20_105
	.quad	.LBB20_106
	.quad	.LBB20_107
	.quad	.LBB20_108
	.quad	.LBB20_109
	.quad	.LBB20_110
	.quad	.LBB20_111
	.quad	.LBB20_112
	.quad	.LBB20_113
                                        # -- End function
	.text
	.p2align	4, 0x90         # -- Begin function fMain_serveBundle$d8
	.type	fMain_serveBundle$d8,@function
fMain_serveBundle$d8:                   # @"fMain_serveBundle$d8"
	.cfi_startproc
# %bb.0:
	pushq	%rbp
	.cfi_def_cfa_offset 16
	pushq	%r15
	.cfi_def_cfa_offset 24
	pushq	%r14
	.cfi_def_cfa_offset 32
	pushq	%r13
	.cfi_def_cfa_offset 40
	pushq	%r12
	.cfi_def_cfa_offset 48
	pushq	%rbx
	.cfi_def_cfa_offset 56
	subq	$120, %rsp
	.cfi_def_cfa_offset 176
	.cfi_offset %rbx, -56
	.cfi_offset %r12, -48
	.cfi_offset %r13, -40
	.cfi_offset %r14, -32
	.cfi_offset %r15, -24
	.cfi_offset %rbp, -16
	movq	%rcx, %r12
	movq	%rdx, %r14
	movq	%rsi, %r15
	leaq	24(%rdi), %rax
	movq	%rax, 64(%rsp)          # 8-byte Spill
	leaq	32(%rdi), %rax
	movq	%rax, 56(%rsp)          # 8-byte Spill
	leaq	48(%rdi), %rax
	movq	%rax, 48(%rsp)          # 8-byte Spill
	leaq	56(%rdi), %rax
	movq	%rax, 8(%rsp)           # 8-byte Spill
	leaq	64(%rdi), %rax
	movq	%rax, (%rsp)            # 8-byte Spill
	movq	%rdi, 72(%rsp)          # 8-byte Spill
	leaq	72(%rdi), %rax
	movq	%rax, 24(%rsp)          # 8-byte Spill
	movq	%r14, 40(%rsp)          # 8-byte Spill
	movq	%r15, 32(%rsp)          # 8-byte Spill
	.p2align	4, 0x90
.LBB21_1:                               # =>This Inner Loop Header: Depth=1
	movq	%r15, 96(%rsp)
	movq	%r14, 104(%rsp)
	movq	%r12, 112(%rsp)
	movq	72(%rsp), %rbp          # 8-byte Reload
	movq	%r12, 16(%rbp)
	movaps	96(%rsp), %xmm0
	movups	%xmm0, (%rbp)
	movq	cP1__Main_serveBundle$d8(%rip), %rsi
	movq	64(%rsp), %rdi          # 8-byte Reload
	callq	s_alloc
	movq	%rax, %rbx
	movq	$2490370, (%rbx)        # imm = 0x260002
	movq	%r15, 8(%rbx)
	movq	%r14, 16(%rbx)
	movq	%rbx, 24(%rbp)
	movq	56(%rsp), %rbp          # 8-byte Reload
	movq	%rbp, %rdi
	movq	%r12, %rsi
	callq	eval
	cmpq	$65538, %rax            # imm = 0x10002
	je	.LBB21_23
# %bb.2:                                #   in Loop: Header=BB21_1 Depth=1
	movq	(%rax), %r13
	movq	8(%rax), %r12
	movq	%r13, 80(%rsp)
	movq	%r12, 88(%rsp)
	movapd	80(%rsp), %xmm0
	movupd	%xmm0, (%rbp)
	movq	48(%rsp), %rbp          # 8-byte Reload
	movq	%rbp, %rdi
	movq	%r13, %rsi
	callq	eval
	movq	8(%rax), %rsi
	movq	%rbp, %rdi
	callq	eval
	movq	8(%rax), %rsi
	movq	%rbp, %rdi
	callq	eval
	movq	%rbp, %rdi
	movq	%r15, %rsi
	movq	%rax, %rdx
	callq	fMain_findTag
	cmpq	$2, %rax
	je	.LBB21_1
# %bb.3:                                #   in Loop: Header=BB21_1 Depth=1
	movq	(%rax), %rsi
	movq	48(%rsp), %rax          # 8-byte Reload
	movq	%r14, (%rax)
	movq	8(%rsp), %rdi           # 8-byte Reload
	callq	eval
	movq	%rax, %rcx
	testb	$2, %al
	jne	.LBB21_5
# %bb.4:                                #   in Loop: Header=BB21_1 Depth=1
	movq	(%rax), %rcx
.LBB21_5:                               #   in Loop: Header=BB21_1 Depth=1
	shrq	$16, %rcx
	cmpq	$3, %rcx
	ja	.LBB21_30
# %bb.6:                                #   in Loop: Header=BB21_1 Depth=1
	jmpq	*.LJTI21_0(,%rcx,8)
.LBB21_7:                               #   in Loop: Header=BB21_1 Depth=1
	movq	8(%rax), %rbp
	movq	8(%rsp), %rax           # 8-byte Reload
	movq	%rbp, (%rax)
	movq	(%rsp), %rdi            # 8-byte Reload
	movq	%r14, %rsi
	callq	eval
	movq	%rax, %rcx
	testb	$2, %al
	jne	.LBB21_9
# %bb.8:                                #   in Loop: Header=BB21_1 Depth=1
	movq	(%rax), %rcx
.LBB21_9:                               #   in Loop: Header=BB21_1 Depth=1
	cmpq	$65535, %rcx            # imm = 0xFFFF
	ja	.LBB21_27
# %bb.10:                               #   in Loop: Header=BB21_1 Depth=1
	movq	8(%rax), %rdx
	movq	(%rsp), %rdi            # 8-byte Reload
	movq	%rbp, %rsi
	callq	fW$__fInstance$__iJhc_Class_Ord_$ee_$Jhc_Prim_Prim_$BE
                                        # kill: def %ax killed %ax def %rax
	testw	%ax, %ax
	je	.LBB21_1
	jmp	.LBB21_28
.LBB21_11:                              #   in Loop: Header=BB21_1 Depth=1
	movq	8(%rax), %rbp
	movq	8(%rsp), %rax           # 8-byte Reload
	movq	%rbp, (%rax)
	movq	(%rsp), %rdi            # 8-byte Reload
	movq	%r14, %rsi
	callq	eval
	movq	%rax, %rcx
	testb	$2, %al
	jne	.LBB21_13
# %bb.12:                               #   in Loop: Header=BB21_1 Depth=1
	movq	(%rax), %rcx
.LBB21_13:                              #   in Loop: Header=BB21_1 Depth=1
	andq	$-65536, %rcx           # imm = 0xFFFF0000
	cmpq	$131072, %rcx           # imm = 0x20000
	jne	.LBB21_27
# %bb.14:                               #   in Loop: Header=BB21_1 Depth=1
	movq	%r13, 16(%rsp)          # 8-byte Spill
	movq	%rbp, %rsi
	movq	8(%rax), %r15
	movq	(%rsp), %rax            # 8-byte Reload
	movq	%r15, (%rax)
	movq	24(%rsp), %rbp          # 8-byte Reload
	movq	%rbp, %rdi
	callq	eval
	movq	%rax, %r14
	movq	%rbp, %rdi
	movq	%r15, %rsi
	movq	16(%rsp), %r13          # 8-byte Reload
	callq	eval
	movq	%rax, %rcx
	xorl	%r14d, %ecx
	movq	32(%rsp), %r15          # 8-byte Reload
	movq	40(%rsp), %r14          # 8-byte Reload
	xorl	%eax, %eax
	testl	$262140, %ecx           # imm = 0x3FFFC
	sete	%al
	testw	%ax, %ax
	je	.LBB21_1
	jmp	.LBB21_28
.LBB21_15:                              #   in Loop: Header=BB21_1 Depth=1
	movq	8(%rax), %rbp
	movq	8(%rsp), %rax           # 8-byte Reload
	movq	%rbp, (%rax)
	movq	(%rsp), %rdi            # 8-byte Reload
	movq	%r14, %rsi
	callq	eval
	movq	%rax, %rcx
	testb	$2, %al
	jne	.LBB21_17
# %bb.16:                               #   in Loop: Header=BB21_1 Depth=1
	movq	(%rax), %rcx
.LBB21_17:                              #   in Loop: Header=BB21_1 Depth=1
	andq	$-65536, %rcx           # imm = 0xFFFF0000
	cmpq	$196608, %rcx           # imm = 0x30000
	jne	.LBB21_27
# %bb.18:                               #   in Loop: Header=BB21_1 Depth=1
	movq	%rbp, %rsi
	movq	8(%rax), %r15
	movq	(%rsp), %rax            # 8-byte Reload
	movq	%r15, (%rax)
	movq	24(%rsp), %rbp          # 8-byte Reload
	movq	%rbp, %rdi
	callq	eval
	movsd	(%rax), %xmm0           # xmm0 = mem[0],zero
	movsd	%xmm0, 16(%rsp)         # 8-byte Spill
	movq	%rbp, %rdi
	movq	%r15, %rsi
	movq	32(%rsp), %r15          # 8-byte Reload
	movq	40(%rsp), %r14          # 8-byte Reload
	callq	eval
	movsd	16(%rsp), %xmm0         # 8-byte Reload
                                        # xmm0 = mem[0],zero
	cmpeqsd	(%rax), %xmm0
	movq	%xmm0, %rax
	andl	$1, %eax
	testw	%ax, %ax
	je	.LBB21_1
	jmp	.LBB21_28
.LBB21_19:                              #   in Loop: Header=BB21_1 Depth=1
	movq	8(%rax), %r15
	movq	8(%rsp), %rax           # 8-byte Reload
	movq	%r15, (%rax)
	movq	(%rsp), %rdi            # 8-byte Reload
	movq	%r14, %rsi
	callq	eval
	movq	%rax, %rcx
	testb	$2, %al
	jne	.LBB21_21
# %bb.20:                               #   in Loop: Header=BB21_1 Depth=1
	movq	(%rax), %rcx
.LBB21_21:                              #   in Loop: Header=BB21_1 Depth=1
	andq	$-65536, %rcx           # imm = 0xFFFF0000
	cmpq	$65536, %rcx            # imm = 0x10000
	jne	.LBB21_27
# %bb.22:                               #   in Loop: Header=BB21_1 Depth=1
	movq	8(%rax), %r14
	movq	(%rsp), %rax            # 8-byte Reload
	movq	%r14, (%rax)
	movq	24(%rsp), %rbp          # 8-byte Reload
	movq	%rbp, %rdi
	movq	%r15, %rsi
	callq	eval
	movq	%r13, 16(%rsp)          # 8-byte Spill
	movq	(%rax), %r13
	movq	%rbp, %rdi
	movq	%r14, %rsi
	movq	32(%rsp), %r15          # 8-byte Reload
	movq	40(%rsp), %r14          # 8-byte Reload
	callq	eval
	movq	%rax, %rcx
	xorl	%eax, %eax
	cmpq	(%rcx), %r13
	movq	16(%rsp), %r13          # 8-byte Reload
	sete	%al
	testw	%ax, %ax
	je	.LBB21_1
	jmp	.LBB21_28
.LBB21_23:
	movl	$65538, %eax            # imm = 0x10002
	jmp	.LBB21_29
.LBB21_27:
	movw	$1, %ax
.LBB21_28:
	movzwl	%ax, %eax
	xorl	%edi, %edi
	cmpl	$1, %eax
	sete	%dil
	callq	assert
	movq	cBap__1__Main_serveBundle$d8u101180(%rip), %rsi
	movq	48(%rsp), %r15          # 8-byte Reload
	movq	%r15, %rdi
	callq	s_alloc
	movq	%rax, %rbp
	movq	$E__bap__1__Main_serveBundle$d8u101180+3, (%rbp)
	movq	%rbx, 8(%rbp)
	movq	%r12, 16(%rbp)
	orq	$1, %rbp
	movq	%rbp, (%r15)
	movq	cCJhc_Prim_Prim_$x3a(%rip), %rsi
	movq	8(%rsp), %rdi           # 8-byte Reload
	callq	s_alloc
	movq	%r13, (%rax)
	movq	%rbp, 8(%rax)
.LBB21_29:
	addq	$120, %rsp
	popq	%rbx
	popq	%r12
	popq	%r13
	popq	%r14
	popq	%r15
	popq	%rbp
	retq
.LBB21_30:
	movl	$16297, %edi            # imm = 0x3FA9
	callq	jhc_case_fell_off
.Lfunc_end21:
	.size	fMain_serveBundle$d8, .Lfunc_end21-fMain_serveBundle$d8
	.cfi_endproc
	.section	.rodata,"a",@progbits
	.p2align	3
.LJTI21_0:
	.quad	.LBB21_7
	.quad	.LBB21_19
	.quad	.LBB21_11
	.quad	.LBB21_15
                                        # -- End function
	.text
	.p2align	4, 0x90         # -- Begin function fMain_findTag
	.type	fMain_findTag,@function
fMain_findTag:                          # @fMain_findTag
	.cfi_startproc
# %bb.0:
	pushq	%rbp
	.cfi_def_cfa_offset 16
	pushq	%r15
	.cfi_def_cfa_offset 24
	pushq	%r14
	.cfi_def_cfa_offset 32
	pushq	%r13
	.cfi_def_cfa_offset 40
	pushq	%r12
	.cfi_def_cfa_offset 48
	pushq	%rbx
	.cfi_def_cfa_offset 56
	pushq	%rax
	.cfi_def_cfa_offset 64
	.cfi_offset %rbx, -56
	.cfi_offset %r12, -48
	.cfi_offset %r13, -40
	.cfi_offset %r14, -32
	.cfi_offset %r15, -24
	.cfi_offset %rbp, -16
	movq	%rsi, %r12
	movq	%rdi, %r15
	leaq	8(%r15), %rbx
	movq	%r12, (%r15)
	movq	%rbx, %rdi
	movq	%rdx, %rsi
	callq	eval
	cmpq	$65538, %rax            # imm = 0x10002
	je	.LBB22_5
# %bb.1:
	leaq	16(%r15), %rbp
	leaq	24(%r15), %rcx
	movq	%rcx, (%rsp)            # 8-byte Spill
	.p2align	4, 0x90
.LBB22_2:                               # =>This Inner Loop Header: Depth=1
	movq	(%rax), %rsi
	movq	8(%rax), %r13
	movq	%r13, (%rbx)
	movq	%rbp, %rdi
	callq	eval
	movq	(%rax), %rdx
	movq	8(%rax), %r14
	movq	%r14, (%rbp)
	movq	(%rsp), %rdi            # 8-byte Reload
	movq	%r12, %rsi
	callq	fW$__fInstance$__iJhc_Class_Ord_$ee_$Jhc_Prim_Prim_$BE
	testw	%ax, %ax
	jne	.LBB22_6
# %bb.3:                                #   in Loop: Header=BB22_2 Depth=1
	movq	%r12, (%r15)
	movq	%rbx, %rdi
	movq	%r13, %rsi
	callq	eval
	cmpq	$65538, %rax            # imm = 0x10002
	jne	.LBB22_2
.LBB22_5:
	movl	$2, %eax
	jmp	.LBB22_7
.LBB22_6:
	movzwl	%ax, %eax
	xorl	%edi, %edi
	cmpl	$1, %eax
	sete	%dil
	callq	assert
	movq	cCJhc_Type_Basic_Just(%rip), %rsi
	movq	(%rsp), %rdi            # 8-byte Reload
	callq	s_alloc
	movq	%r14, (%rax)
.LBB22_7:
	addq	$8, %rsp
	popq	%rbx
	popq	%r12
	popq	%r13
	popq	%r14
	popq	%r15
	popq	%rbp
	retq
.Lfunc_end22:
	.size	fMain_findTag, .Lfunc_end22-fMain_findTag
	.cfi_endproc
                                        # -- End function
	.p2align	4, 0x90         # -- Begin function E__bap__1__Main_serveBundle$d8u101180
	.type	E__bap__1__Main_serveBundle$d8u101180,@function
E__bap__1__Main_serveBundle$d8u101180:  # @"E__bap__1__Main_serveBundle$d8u101180"
	.cfi_startproc
# %bb.0:
	pushq	%rbx
	.cfi_def_cfa_offset 16
	.cfi_offset %rbx, -16
	movq	%rsi, %rbx
	movq	%rbx, %rax
	orq	$1, %rax
	movq	%rax, (%rdi)
	addq	$8, %rdi
	movq	8(%rbx), %rax
	movq	16(%rbx), %rcx
	movq	8(%rax), %rsi
	movq	16(%rax), %rdx
	callq	fMain_serveBundle$d8
	movq	%rax, (%rbx)
	popq	%rbx
	retq
.Lfunc_end23:
	.size	E__bap__1__Main_serveBundle$d8u101180, .Lfunc_end23-E__bap__1__Main_serveBundle$d8u101180
	.cfi_endproc
                                        # -- End function
	.p2align	4, 0x90         # -- Begin function fW$__fInstance$__iJhc_Class_Ord_$ee_$Jhc_Prim_Prim_$BE
	.type	fW$__fInstance$__iJhc_Class_Ord_$ee_$Jhc_Prim_Prim_$BE,@function
fW$__fInstance$__iJhc_Class_Ord_$ee_$Jhc_Prim_Prim_$BE: # @"fW$__fInstance$__iJhc_Class_Ord_$ee_$Jhc_Prim_Prim_$BE"
	.cfi_startproc
# %bb.0:
	pushq	%rbp
	.cfi_def_cfa_offset 16
	pushq	%r15
	.cfi_def_cfa_offset 24
	pushq	%r14
	.cfi_def_cfa_offset 32
	pushq	%r13
	.cfi_def_cfa_offset 40
	pushq	%r12
	.cfi_def_cfa_offset 48
	pushq	%rbx
	.cfi_def_cfa_offset 56
	subq	$72, %rsp
	.cfi_def_cfa_offset 128
	.cfi_offset %rbx, -56
	.cfi_offset %r12, -48
	.cfi_offset %r13, -40
	.cfi_offset %r14, -32
	.cfi_offset %r15, -24
	.cfi_offset %rbp, -16
	movq	%rdx, %r15
	movq	%rdi, %r13
	leaq	8(%r13), %r12
	movq	%r15, (%r13)
	movq	%r12, %rdi
	callq	eval
	cmpq	$65538, %rax            # imm = 0x10002
	je	.LBB24_5
# %bb.1:
	leaq	24(%r13), %rbx
	leaq	40(%r13), %rcx
	movq	%rcx, 16(%rsp)          # 8-byte Spill
	movq	%r12, 8(%rsp)           # 8-byte Spill
	movq	%rbx, (%rsp)            # 8-byte Spill
	.p2align	4, 0x90
.LBB24_2:                               # =>This Inner Loop Header: Depth=1
	movq	(%rax), %r14
	movq	8(%rax), %rbp
	movq	%rbp, 48(%rsp)
	movq	%r14, 56(%rsp)
	movaps	48(%rsp), %xmm0
	movups	%xmm0, (%r12)
	movq	%rbx, %rdi
	movq	%r15, %rsi
	callq	eval
	cmpq	$65538, %rax            # imm = 0x10002
	je	.LBB24_6
# %bb.3:                                #   in Loop: Header=BB24_2 Depth=1
	movq	%rbp, 24(%rsp)          # 8-byte Spill
	movq	%r13, %rbp
	movq	(%rax), %r12
	movq	8(%rax), %r15
	movq	%r12, 32(%rsp)
	movq	%r15, 40(%rsp)
	movaps	32(%rsp), %xmm0
	movups	%xmm0, (%rbx)
	movq	16(%rsp), %r13          # 8-byte Reload
	movq	%r13, %rdi
	movq	%r14, %rsi
	callq	eval
	movq	%rax, %rbx
	shrq	$2, %rbx
	movq	%r13, %rdi
	movq	%r12, %rsi
	callq	eval
	shrq	$2, %rax
	cmpl	%eax, %ebx
	jne	.LBB24_6
# %bb.4:                                #   in Loop: Header=BB24_2 Depth=1
	movl	$1, %edi
	callq	assert
	movq	%rbp, %r13
	movq	%r15, (%r13)
	movq	8(%rsp), %r12           # 8-byte Reload
	movq	%r12, %rdi
	movq	24(%rsp), %rsi          # 8-byte Reload
	callq	eval
	cmpq	$65538, %rax            # imm = 0x10002
	movq	(%rsp), %rbx            # 8-byte Reload
	jne	.LBB24_2
.LBB24_5:
	movq	%r12, %rdi
	movq	%r15, %rsi
	callq	eval
	movq	%rax, %rcx
	xorl	%eax, %eax
	cmpq	$65538, %rcx            # imm = 0x10002
	sete	%al
	jmp	.LBB24_7
.LBB24_6:
	xorl	%eax, %eax
.LBB24_7:
                                        # kill: def %ax killed %ax killed %eax
	addq	$72, %rsp
	popq	%rbx
	popq	%r12
	popq	%r13
	popq	%r14
	popq	%r15
	popq	%rbp
	retq
.Lfunc_end24:
	.size	fW$__fInstance$__iJhc_Class_Ord_$ee_$Jhc_Prim_Prim_$BE, .Lfunc_end24-fW$__fInstance$__iJhc_Class_Ord_$ee_$Jhc_Prim_Prim_$BE
	.cfi_endproc
                                        # -- End function
	.p2align	4, 0x90         # -- Begin function E__bap__1__Instance$__iData_Binary_get_Hos_User_IPC_ServerName$d4u100458
	.type	E__bap__1__Instance$__iData_Binary_get_Hos_User_IPC_ServerName$d4u100458,@function
E__bap__1__Instance$__iData_Binary_get_Hos_User_IPC_ServerName$d4u100458: # @"E__bap__1__Instance$__iData_Binary_get_Hos_User_IPC_ServerName$d4u100458"
	.cfi_startproc
# %bb.0:
	pushq	%rbx
	.cfi_def_cfa_offset 16
	.cfi_offset %rbx, -16
	movq	%rsi, %rbx
	movq	%rbx, %rax
	orq	$1, %rax
	movq	%rax, (%rdi)
	addq	$8, %rdi
	movq	8(%rbx), %rsi
	movq	16(%rbx), %rdx
	callq	bapply__84437
	movq	%rax, (%rbx)
	popq	%rbx
	retq
.Lfunc_end25:
	.size	E__bap__1__Instance$__iData_Binary_get_Hos_User_IPC_ServerName$d4u100458, .Lfunc_end25-E__bap__1__Instance$__iData_Binary_get_Hos_User_IPC_ServerName$d4u100458
	.cfi_endproc
                                        # -- End function
	.p2align	4, 0x90         # -- Begin function E__fInstance$__iData_Binary_get_Hos_User_IPC_ServerName$d3
	.type	E__fInstance$__iData_Binary_get_Hos_User_IPC_ServerName$d3,@function
E__fInstance$__iData_Binary_get_Hos_User_IPC_ServerName$d3: # @"E__fInstance$__iData_Binary_get_Hos_User_IPC_ServerName$d3"
	.cfi_startproc
# %bb.0:
	pushq	%rbp
	.cfi_def_cfa_offset 16
	pushq	%r15
	.cfi_def_cfa_offset 24
	pushq	%r14
	.cfi_def_cfa_offset 32
	pushq	%rbx
	.cfi_def_cfa_offset 40
	pushq	%rax
	.cfi_def_cfa_offset 48
	.cfi_offset %rbx, -40
	.cfi_offset %r14, -32
	.cfi_offset %r15, -24
	.cfi_offset %rbp, -16
	movq	%rsi, %r14
	movq	%rdi, %r15
	movq	%r14, %rax
	orq	$1, %rax
	movq	%rax, (%r15)
	movl	8(%r14), %ebp
	testl	%ebp, %ebp
	jle	.LBB26_2
# %bb.1:
	leaq	8(%r15), %rdi
	addl	$-1, %ebp
	movq	cFInstance$__iData_Binary_get_Hos_User_IPC_ServerName$d3(%rip), %rsi
	callq	s_alloc
	movq	%rax, %rbx
	movq	$E__fInstance$__iData_Binary_get_Hos_User_IPC_ServerName$d3+3, (%rbx)
	movl	%ebp, 8(%rbx)
	orq	$1, %rbx
	movq	%rbx, 8(%r15)
	addq	$16, %r15
	movq	cCJhc_Prim_Prim_$x3a(%rip), %rsi
	movq	%r15, %rdi
	callq	s_alloc
	movq	$10223618, (%rax)       # imm = 0x9C0002
	movq	%rbx, 8(%rax)
	jmp	.LBB26_3
.LBB26_2:
	movl	$1, %edi
	callq	assert
	movl	$65538, %eax            # imm = 0x10002
.LBB26_3:
	movq	%rax, (%r14)
	addq	$8, %rsp
	popq	%rbx
	popq	%r14
	popq	%r15
	popq	%rbp
	retq
.Lfunc_end26:
	.size	E__fInstance$__iData_Binary_get_Hos_User_IPC_ServerName$d3, .Lfunc_end26-E__fInstance$__iData_Binary_get_Hos_User_IPC_ServerName$d3
	.cfi_endproc
                                        # -- End function
	.p2align	4, 0x90         # -- Begin function E__fInstance$__iData_Binary_get_Hos_User_IPC_ServerName$d9
	.type	E__fInstance$__iData_Binary_get_Hos_User_IPC_ServerName$d9,@function
E__fInstance$__iData_Binary_get_Hos_User_IPC_ServerName$d9: # @"E__fInstance$__iData_Binary_get_Hos_User_IPC_ServerName$d9"
	.cfi_startproc
# %bb.0:
	pushq	%rbp
	.cfi_def_cfa_offset 16
	pushq	%r15
	.cfi_def_cfa_offset 24
	pushq	%r14
	.cfi_def_cfa_offset 32
	pushq	%r13
	.cfi_def_cfa_offset 40
	pushq	%r12
	.cfi_def_cfa_offset 48
	pushq	%rbx
	.cfi_def_cfa_offset 56
	pushq	%rax
	.cfi_def_cfa_offset 64
	.cfi_offset %rbx, -56
	.cfi_offset %r12, -48
	.cfi_offset %r13, -40
	.cfi_offset %r14, -32
	.cfi_offset %r15, -24
	.cfi_offset %rbp, -16
	movq	%rsi, %r14
	movq	%rdi, %rbx
	movq	%r14, %rax
	orq	$1, %rax
	movq	%rax, (%rbx)
	movq	8(%r14), %r15
	movq	16(%r14), %rsi
	movq	%r15, 8(%rbx)
	leaq	16(%rbx), %rdi
	callq	eval
	cmpq	$65538, %rax            # imm = 0x10002
	je	.LBB27_2
# %bb.1:
	movq	(%rax), %r13
	movq	8(%rax), %rbp
	movq	%rbp, 16(%rbx)
	movq	%r13, 24(%rbx)
	leaq	32(%rbx), %rdi
	movq	cFInstance$__iData_Binary_get_Hos_User_IPC_ServerName$d9(%rip), %rsi
	callq	s_alloc
	movq	%rax, %r12
	movq	$E__fInstance$__iData_Binary_get_Hos_User_IPC_ServerName$d9+3, (%r12)
	movq	%r15, 8(%r12)
	movq	%rbp, 16(%r12)
	orq	$1, %r12
	movq	%r12, 32(%rbx)
	addq	$40, %rbx
	movq	cP3__Instance$__iData_Binary_get_Hos_User_IPC_ServerName$d10(%rip), %rsi
	movq	%rbx, %rdi
	callq	s_alloc
	movq	%rax, %r15
	movq	$9633794, (%r15)        # imm = 0x930002
	movq	%r13, 8(%r15)
	movq	%r12, 16(%r15)
.LBB27_2:
	movq	%r15, (%r14)
	movq	%r15, %rax
	addq	$8, %rsp
	popq	%rbx
	popq	%r12
	popq	%r13
	popq	%r14
	popq	%r15
	popq	%rbp
	retq
.Lfunc_end27:
	.size	E__fInstance$__iData_Binary_get_Hos_User_IPC_ServerName$d9, .Lfunc_end27-E__fInstance$__iData_Binary_get_Hos_User_IPC_ServerName$d9
	.cfi_endproc
                                        # -- End function
	.p2align	4, 0x90         # -- Begin function E__fHos_User_IPC_transmitMsg$d13
	.type	E__fHos_User_IPC_transmitMsg$d13,@function
E__fHos_User_IPC_transmitMsg$d13:       # @"E__fHos_User_IPC_transmitMsg$d13"
	.cfi_startproc
# %bb.0:
	pushq	%rbp
	.cfi_def_cfa_offset 16
	pushq	%r15
	.cfi_def_cfa_offset 24
	pushq	%r14
	.cfi_def_cfa_offset 32
	pushq	%r13
	.cfi_def_cfa_offset 40
	pushq	%r12
	.cfi_def_cfa_offset 48
	pushq	%rbx
	.cfi_def_cfa_offset 56
	pushq	%rax
	.cfi_def_cfa_offset 64
	.cfi_offset %rbx, -56
	.cfi_offset %r12, -48
	.cfi_offset %r13, -40
	.cfi_offset %r14, -32
	.cfi_offset %r15, -24
	.cfi_offset %rbp, -16
	movq	%rsi, %r14
	movq	%rdi, %r12
	movq	$2, (%r12)
	leaq	8(%r12), %r15
	movq	cFW$__fInstance$__iData_Binary_put_Jhc_Type_Basic_Char$d2(%rip), %rsi
	movq	%r15, %rdi
	callq	s_alloc
	movq	%rax, %rbx
	movq	$E__fW$__fInstance$__iData_Binary_put_Jhc_Type_Basic_Char$d2+3, (%rbx)
	movq	$2, 8(%rbx)
	orq	$1, %rbx
	movq	$12713986, 8(%r12)      # imm = 0xC20002
	movq	%rbx, 16(%r12)
	leaq	24(%r12), %rdi
	movq	cP2__W$__fData_Binary_storableB$d2(%rip), %rsi
	callq	s_alloc
	movq	%rax, %r13
	movq	$7012354, (%r13)        # imm = 0x6B0002
	movq	%rbx, 8(%r13)
	movq	$12713986, 16(%r13)     # imm = 0xC20002
	movq	%r13, 24(%r12)
	leaq	32(%r12), %rdi
	movq	cP2__W$__fData_Binary_storableB$d3(%rip), %rsi
	callq	s_alloc
	movq	%rax, %rbp
	movq	$7077890, (%rbp)        # imm = 0x6C0002
	movq	%r13, 8(%rbp)
	movq	%rbp, (%r12)
	movq	cCData_Binary_Builder(%rip), %rsi
	movq	%r15, %rdi
	callq	s_alloc
	movq	%rax, %rbx
	movq	%rbp, (%rbx)
	movq	$1, 8(%rbx)
	movq	%rbx, (%r14)
	movq	%r12, %rdi
	movq	%rbx, %rsi
	callq	gc_add_root
	movq	%rbx, %rax
	addq	$8, %rsp
	popq	%rbx
	popq	%r12
	popq	%r13
	popq	%r14
	popq	%r15
	popq	%rbp
	retq
.Lfunc_end28:
	.size	E__fHos_User_IPC_transmitMsg$d13, .Lfunc_end28-E__fHos_User_IPC_transmitMsg$d13
	.cfi_endproc
                                        # -- End function
	.p2align	4, 0x90         # -- Begin function E__fW$__fInstance$__iData_Binary_put_Jhc_Type_Basic_Char$d2
	.type	E__fW$__fInstance$__iData_Binary_put_Jhc_Type_Basic_Char$d2,@function
E__fW$__fInstance$__iData_Binary_put_Jhc_Type_Basic_Char$d2: # @"E__fW$__fInstance$__iData_Binary_put_Jhc_Type_Basic_Char$d2"
	.cfi_startproc
# %bb.0:
	pushq	%rbx
	.cfi_def_cfa_offset 16
	.cfi_offset %rbx, -16
	movq	%rsi, %rbx
	movq	%rbx, %rax
	orq	$1, %rax
	movq	%rax, (%rdi)
	addq	$8, %rdi
	movq	8(%rbx), %rsi
	callq	eval
	andl	$1020, %eax             # imm = 0x3FC
	orq	$2, %rax
	movq	%rax, (%rbx)
	popq	%rbx
	retq
.Lfunc_end29:
	.size	E__fW$__fInstance$__iData_Binary_put_Jhc_Type_Basic_Char$d2, .Lfunc_end29-E__fW$__fInstance$__iData_Binary_put_Jhc_Type_Basic_Char$d2
	.cfi_endproc
                                        # -- End function
	.p2align	4, 0x90         # -- Begin function fHos_User_SysCall_hosDebugLog
	.type	fHos_User_SysCall_hosDebugLog,@function
fHos_User_SysCall_hosDebugLog:          # @fHos_User_SysCall_hosDebugLog
	.cfi_startproc
# %bb.0:
	pushq	%rbp
	.cfi_def_cfa_offset 16
	pushq	%r15
	.cfi_def_cfa_offset 24
	pushq	%r14
	.cfi_def_cfa_offset 32
	pushq	%r13
	.cfi_def_cfa_offset 40
	pushq	%r12
	.cfi_def_cfa_offset 48
	pushq	%rbx
	.cfi_def_cfa_offset 56
	subq	$56, %rsp
	.cfi_def_cfa_offset 112
	.cfi_offset %rbx, -56
	.cfi_offset %r12, -48
	.cfi_offset %r13, -40
	.cfi_offset %r14, -32
	.cfi_offset %r15, -24
	.cfi_offset %rbp, -16
	movq	%rsi, %r14
	movq	%rdi, %r12
	movq	%r14, (%r12)
	leaq	8(%r12), %rbx
	movq	%rbx, %rdi
	callq	eval
	xorl	%ebp, %ebp
	cmpq	$65538, %rax            # imm = 0x10002
	je	.LBB30_3
	.p2align	4, 0x90
.LBB30_1:                               # =>This Inner Loop Header: Depth=1
	movq	8(%rax), %rsi
	addl	$1, %ebp
	movq	%rbx, %rdi
	callq	eval
	cmpq	$65538, %rax            # imm = 0x10002
	jne	.LBB30_1
.LBB30_3:
	movl	%ebp, 4(%rsp)           # 4-byte Spill
	movslq	%ebp, %rdi
	movq	%rbx, saved_gc(%rip)
	callq	malloc
	movq	%rax, %rbp
	movq	cCJhc_Type_Ptr_Ptr(%rip), %rsi
	movq	%rbx, %rdi
	callq	s_alloc
	movq	%rax, %r13
	movq	%rbp, (%r13)
	testq	%rbp, %rbp
	je	.LBB30_8
# %bb.4:
	movq	%r13, 8(%r12)
	leaq	16(%r12), %rbx
	movq	cFHos_User_SysCall_hosDebugLog$d2(%rip), %rsi
	movq	%rbx, %rdi
	callq	s_alloc
	movq	%rax, %r15
	movq	$E__fHos_User_SysCall_hosDebugLog$d2+3, (%r15)
	movq	%r13, 16(%rsp)          # 8-byte Spill
	movq	%r13, 8(%r15)
	orq	$1, %r15
	leaq	24(%r12), %rbp
	movq	%r12, 8(%rsp)           # 8-byte Spill
	movq	%r15, 16(%r12)
	movq	%rbp, %rdi
	movq	%r14, %rsi
	callq	eval
	cmpq	$65538, %rax            # imm = 0x10002
	je	.LBB30_7
# %bb.5:
	addq	$40, 8(%rsp)            # 8-byte Folded Spill
	movq	8(%rsp), %r14           # 8-byte Reload
	.p2align	4, 0x90
.LBB30_6:                               # =>This Inner Loop Header: Depth=1
	movq	(%rax), %r12
	movq	8(%rax), %rax
	movq	%rax, 24(%rsp)          # 8-byte Spill
	movq	%r12, 32(%rsp)
	movq	%rax, 40(%rsp)
	movaps	32(%rsp), %xmm0
	movups	%xmm0, (%rbp)
	movq	%r14, %rdi
	movq	%r15, %rsi
	callq	eval
	movq	(%rax), %r13
	movq	%r14, %rdi
	movq	%r12, %rsi
	callq	eval
	shrq	$2, %rax
	movb	%al, (%r13)
	addq	$1, %r13
	movq	cCJhc_Type_Ptr_Ptr(%rip), %rsi
	movq	%r14, %rdi
	callq	s_alloc
	movq	%rax, %r15
	movq	%r13, (%r15)
	movq	%r15, (%rbx)
	movq	%rbp, %rdi
	movq	24(%rsp), %rsi          # 8-byte Reload
	callq	eval
	cmpq	$65538, %rax            # imm = 0x10002
	jne	.LBB30_6
.LBB30_7:
	movq	16(%rsp), %rax          # 8-byte Reload
	movq	(%rax), %rbp
	movl	4(%rsp), %edx           # 4-byte Reload
	movq	%rbx, saved_gc(%rip)
	xorl	%edi, %edi
	xorl	%ecx, %ecx
	xorl	%r8d, %r8d
	xorl	%r9d, %r9d
	movq	%rbp, %rsi
	callq	syscall
	movq	%rbx, saved_gc(%rip)
	movq	%rbp, %rdi
	addq	$56, %rsp
	popq	%rbx
	popq	%r12
	popq	%r13
	popq	%r14
	popq	%r15
	popq	%rbp
	jmp	free                    # TAILCALL
.LBB30_8:
	movl	$_c63, %esi
	movl	$_c78, %edx
	movq	%rbx, %rdi
	callq	fJhc_Basics_$pp
	movq	%rbx, %rdi
	movq	%rax, %rsi
	callq	fJhc_IO_putErrLn
	movl	$255, %edi
	callq	jhc_exit
.Lfunc_end30:
	.size	fHos_User_SysCall_hosDebugLog, .Lfunc_end30-fHos_User_SysCall_hosDebugLog
	.cfi_endproc
                                        # -- End function
	.section	.rodata.cst16,"aM",@progbits,16
	.p2align	4               # -- Begin function fHos_User_IPC_transmitMsg
.LCPI31_0:
	.quad	12582914                # 0xc00002
	.zero	8
.LCPI31_1:
	.zero	8
	.quad	12582914                # 0xc00002
.LCPI31_2:
	.quad	4                       # 0x4
	.quad	4                       # 0x4
	.text
	.p2align	4, 0x90
	.type	fHos_User_IPC_transmitMsg,@function
fHos_User_IPC_transmitMsg:              # @fHos_User_IPC_transmitMsg
	.cfi_startproc
# %bb.0:
	pushq	%rbp
	.cfi_def_cfa_offset 16
	pushq	%r15
	.cfi_def_cfa_offset 24
	pushq	%r14
	.cfi_def_cfa_offset 32
	pushq	%r13
	.cfi_def_cfa_offset 40
	pushq	%r12
	.cfi_def_cfa_offset 48
	pushq	%rbx
	.cfi_def_cfa_offset 56
	subq	$152, %rsp
	.cfi_def_cfa_offset 208
	.cfi_offset %rbx, -56
	.cfi_offset %r12, -48
	.cfi_offset %r13, -40
	.cfi_offset %r14, -32
	.cfi_offset %r15, -24
	.cfi_offset %rbp, -16
	movq	%rsi, %r12
	movq	%rdi, %r15
	movabsq	$1099511631872, %rbp    # imm = 0x10000001000
	movl	$_c504, %eax
	movq	%rax, %xmm0
	pshufd	$68, %xmm0, %xmm0       # xmm0 = xmm0[0,1,0,1]
	movdqa	%xmm0, 96(%rsp)
	movl	$_c322, %eax
	movq	%rax, %xmm1
	pshufd	$68, %xmm1, %xmm1       # xmm1 = xmm1[0,1,0,1]
	movdqa	%xmm1, 112(%rsp)
	movq	$_c322, 128(%rsp)
	movq	%r12, 136(%rsp)
	movaps	128(%rsp), %xmm2
	movups	%xmm2, 32(%r15)
	movdqu	%xmm1, 16(%r15)
	movdqu	%xmm0, (%r15)
	leaq	48(%r15), %rbx
	leaq	-4096(%rbp), %rdx
	movl	$-1, %esi
	movl	$_c396, %r8d
	movq	%rbx, %rdi
	movq	%rbp, %rcx
	callq	fW$__fW$__fHos_User_SysCall_hosAddMapping
	cmpq	$0, (%rax)
	je	.LBB31_2
# %bb.1:
	movl	$_c417, %eax
	jmp	.LBB31_26
.LBB31_2:
	movq	%rbx, saved_gc(%rip)
	movq	cCJhc_Type_Ptr_Ptr(%rip), %rsi
	movq	%rbx, %rdi
	callq	s_alloc
	movq	%rbp, (%rax)
	movq	%rax, 88(%rsp)          # 8-byte Spill
	movq	%rax, 48(%r15)
	movl	$_c397, %eax
	movdqa	.LCPI31_0(%rip), %xmm0  # xmm0 = <12582914,u>
	movq	%rax, %xmm1
	punpcklqdq	%xmm1, %xmm0    # xmm0 = xmm0[0],xmm1[0]
	movdqu	%xmm0, 56(%r15)
	movq	%rax, %xmm0
	movdqa	%xmm0, (%rsp)           # 16-byte Spill
	leaq	72(%r15), %r13
	movq	cP2__W$__fData_Binary_storableB$d6(%rip), %rsi
	movq	%r13, %rdi
	callq	s_alloc
	movq	%rax, %rbx
	movq	$7274498, (%rbx)        # imm = 0x6F0002
	movapd	.LCPI31_1(%rip), %xmm0  # xmm0 = <u,12582914>
	movapd	(%rsp), %xmm1           # 16-byte Reload
	movsd	%xmm1, %xmm0            # xmm0 = xmm1[0],xmm0[1]
	movupd	%xmm0, 8(%rbx)
	movq	%rbx, 72(%r15)
	leaq	80(%r15), %r14
	movq	cP2__W$__fData_Binary_storableB$d7(%rip), %rsi
	movq	%r14, %rdi
	callq	s_alloc
	movq	$7340034, (%rax)        # imm = 0x700002
	movq	%rbx, 8(%rax)
	movq	%rax, 56(%rsp)          # 8-byte Spill
	movq	%rax, 56(%r15)
	movq	$12582914, 64(%r15)     # imm = 0xC00002
	movq	$_c322, 72(%r15)
	movl	$_c322, %eax
	movq	%rax, %xmm0
	movdqa	%xmm0, (%rsp)           # 16-byte Spill
	movq	cP2__W$__fData_Binary_storableB$d6(%rip), %rsi
	movq	%r14, %rdi
	callq	s_alloc
	movq	%rax, %rbx
	movq	$7274498, (%rbx)        # imm = 0x6F0002
	movapd	.LCPI31_1(%rip), %xmm0  # xmm0 = <u,12582914>
	movapd	(%rsp), %xmm1           # 16-byte Reload
	movsd	%xmm1, %xmm0            # xmm0 = xmm1[0],xmm0[1]
	movupd	%xmm0, 8(%rbx)
	movq	%rbx, 80(%r15)
	leaq	88(%r15), %rbp
	movq	cP2__W$__fData_Binary_storableB$d7(%rip), %rsi
	movq	%rbp, %rdi
	callq	s_alloc
	movq	$7340034, (%rax)        # imm = 0x700002
	movq	%rbx, 8(%rax)
	movq	%rax, 48(%rsp)          # 8-byte Spill
	movq	%rax, 64(%r15)
	movl	$_c504, %esi
	movq	%r13, %rdi
	callq	eval
	cmpq	$65538, %rax            # imm = 0x10002
	movq	%rbp, (%rsp)            # 8-byte Spill
	movq	%r14, 64(%rsp)          # 8-byte Spill
	movq	%r12, 24(%rsp)          # 8-byte Spill
	je	.LBB31_6
# %bb.3:
	xorl	%ebx, %ebx
	.p2align	4, 0x90
.LBB31_4:                               # =>This Inner Loop Header: Depth=1
	movq	8(%rax), %rsi
	addl	$1, %ebx
	movq	%r13, %rdi
	callq	eval
	cmpq	$65538, %rax            # imm = 0x10002
	jne	.LBB31_4
# %bb.5:
	cmpl	$247, %ebx
	jle	.LBB31_6
# %bb.12:
	movl	$1, %edi
	callq	assert
	movl	$_c504, %esi
	movq	%r13, %rdi
	callq	eval
	cmpq	$65538, %rax            # imm = 0x10002
	je	.LBB31_13
# %bb.14:
	movq	(%rax), %r14
	movq	8(%rax), %rbp
	movq	%r14, 72(%r15)
	movq	%rbp, 80(%r15)
	movq	cFW$__fR$__fJhc_List_383__f(%rip), %rsi
	movq	(%rsp), %rdi            # 8-byte Reload
	callq	s_alloc
	movq	%rax, %rbx
	movq	$E__fW$__fR$__fJhc_List_383__f+3, (%rbx)
	movl	$247, 16(%rbx)
	movq	%rbp, 8(%rbx)
	orq	$1, %rbx
	movq	%rbx, 88(%r15)
	addq	$96, %r15
	movq	cCJhc_Prim_Prim_$x3a(%rip), %rsi
	movq	%r15, %rdi
	callq	s_alloc
	movq	%rax, %rsi
	movq	%r14, (%rsi)
	movq	%rbx, 8(%rsi)
	jmp	.LBB31_15
.LBB31_6:
	movl	$_c504, %esi
	movq	%r13, %rdi
	callq	fHos_User_IPC_transmitMsg$d12
	movq	%r13, %rdi
	movq	%rax, %rsi
	callq	fx59642631
	movq	(%rax), %rbx
	movq	8(%rax), %rax
	movq	%rax, 32(%rsp)          # 8-byte Spill
	movq	%rbx, (%r13)
	movl	$_c504, %esi
	movq	%r14, %rdi
	callq	eval
	cmpq	$65538, %rax            # imm = 0x10002
	movq	%rbx, 40(%rsp)          # 8-byte Spill
	movl	$248, %ebp
	je	.LBB31_9
	.p2align	4, 0x90
.LBB31_7:                               # =>This Inner Loop Header: Depth=1
	movq	8(%rax), %rsi
	movq	%r14, %rdi
	callq	eval
	addl	$-1, %ebp
	cmpq	$65538, %rax            # imm = 0x10002
	jne	.LBB31_7
# %bb.8:
	testl	%ebp, %ebp
	jle	.LBB31_10
.LBB31_9:
	addl	$-1, %ebp
	movq	cFHos_User_IPC_transmitMsg$d14(%rip), %rsi
	movq	%r14, %rdi
	callq	s_alloc
	movq	%rax, %rbx
	movq	$E__fHos_User_IPC_transmitMsg$d14+3, (%rbx)
	movl	%ebp, 8(%rbx)
	orq	$1, %rbx
	movq	%rbx, (%r14)
	movq	cCJhc_Prim_Prim_$x3a(%rip), %rsi
	movq	(%rsp), %rdi            # 8-byte Reload
	callq	s_alloc
	movq	%rax, %rsi
	movq	$_g1047414841+1, (%rsi)
	movq	%rbx, 8(%rsi)
	jmp	.LBB31_11
.LBB31_10:
	movl	$1, %edi
	callq	assert
	movl	$65538, %esi            # imm = 0x10002
.LBB31_11:
	movq	%r14, %rdi
	callq	fx59642631
	movq	(%rax), %rcx
	movq	%rcx, 72(%rsp)          # 8-byte Spill
	movq	8(%rax), %r14
	movq	32(%rsp), %rbx          # 8-byte Reload
	addq	%rbx, %r14
	movq	%rcx, 80(%r15)
	movq	40(%rsp), %rbp          # 8-byte Reload
	movq	%rbp, 88(%r15)
	leaq	96(%r15), %rdi
	movq	%rdi, 80(%rsp)          # 8-byte Spill
	movq	cP2__W$__fInstance$__iData_Monoid_mappend_Data_Binary_Builder$d2(%rip), %rsi
	callq	s_alloc
	movq	%rax, %r12
	movq	$8257538, (%r12)        # imm = 0x7E0002
	movq	%rbp, 8(%r12)
	movq	%rbx, 24(%r12)
	movq	72(%rsp), %rax          # 8-byte Reload
	movq	%rax, 16(%r12)
	movq	%r12, 80(%r15)
	movl	$11272194, %esi         # imm = 0xAC0002
	movq	(%rsp), %rdi            # 8-byte Reload
	movq	24(%rsp), %rdx          # 8-byte Reload
	callq	bRfW$__fData_Binary_put
	movq	%rax, %rbp
	movq	%rdx, %rbx
	addq	%r14, %rbx
	movq	%rbp, 88(%r15)
	movq	cP2__Hos_User_IPC_transmitMsg$d15(%rip), %rsi
	movq	80(%rsp), %rdi          # 8-byte Reload
	callq	s_alloc
	movq	$4915202, (%rax)        # imm = 0x4B0002
	movq	$4, 40(%rax)
	movq	%r14, 48(%rax)
	movq	%rbp, 8(%rax)
	movq	56(%rsp), %rcx          # 8-byte Reload
	movq	%rcx, 16(%rax)
	movq	%r12, 24(%rax)
	movq	$4, 56(%rax)
	movq	48(%rsp), %rcx          # 8-byte Reload
	movq	%rcx, 32(%rax)
	jmp	.LBB31_16
.LBB31_13:
	addq	$96, %r15
	movl	$65538, %esi            # imm = 0x10002
.LBB31_15:
	movq	%r13, %rdi
	callq	fHos_User_IPC_transmitMsg$d7
	movq	%r13, %rdi
	movq	%rax, %rsi
	callq	fx59642631
	movq	(%rax), %r12
	movq	8(%rax), %rax
	movq	%rax, 40(%rsp)          # 8-byte Spill
	movq	%r12, (%r13)
	movq	%r12, 32(%rsp)          # 8-byte Spill
	movl	$11272194, %esi         # imm = 0xAC0002
	movq	64(%rsp), %r14          # 8-byte Reload
	movq	%r14, %rdi
	movq	24(%rsp), %rdx          # 8-byte Reload
	callq	bRfW$__fData_Binary_put
	movq	%rax, 24(%rsp)          # 8-byte Spill
	movq	%rdx, %rbx
	movq	%rax, (%r14)
	movq	(%rsp), %rbp            # 8-byte Reload
	movq	%r12, (%rbp)
	movq	40(%rsp), %r12          # 8-byte Reload
	addq	%r12, %rbx
	movq	cP2__W$__fInstance$__iData_Monoid_mappend_Data_Binary_Builder$d2(%rip), %rsi
	movq	%r15, %rdi
	callq	s_alloc
	movq	%rbp, %rdi
	movq	%rax, %rbp
	movq	$8257538, (%rbp)        # imm = 0x7E0002
	movq	32(%rsp), %rax          # 8-byte Reload
	movq	%rax, 8(%rbp)
	movq	%r12, 24(%rbp)
	movq	24(%rsp), %rax          # 8-byte Reload
	movq	%rax, 16(%rbp)
	movq	%rbp, (%r14)
	movq	cP2__Hos_User_IPC_transmitMsg$d8(%rip), %rsi
	callq	s_alloc
	movq	$4980738, (%rax)        # imm = 0x4C0002
	movq	%rbp, 8(%rax)
	movq	56(%rsp), %rcx          # 8-byte Reload
	movq	%rcx, 16(%rax)
	movapd	.LCPI31_2(%rip), %xmm0  # xmm0 = [4,4]
	movapd	%xmm0, 32(%rax)
	movq	48(%rsp), %rcx          # 8-byte Reload
	movq	%rcx, 24(%rax)
.LBB31_16:
	addq	$8, %rbx
	cmpq	$4096, %rbx             # imm = 0x1000
	ja	.LBB31_19
# %bb.17:
	movl	$_g982271543+1, %edx
	movq	%r13, %rdi
	movq	%rax, %rsi
	callq	bapply__84437
	movq	%r13, %rdi
	movq	%rax, %rsi
	callq	bapply__84438
	movq	%r13, saved_gc(%rip)
	movl	$256, %edi              # imm = 0x100
	xorl	%esi, %esi
	xorl	%edx, %edx
	xorl	%ecx, %ecx
	xorl	%r8d, %r8d
	xorl	%r9d, %r9d
	callq	syscall
	movq	%r13, saved_gc(%rip)
	movl	$-1, %esi
	movabsq	$1099511631872, %rdx    # imm = 0x10000001000
	leaq	4096(%rdx), %rcx
	movl	$_c414, %r8d
	movq	%r13, %rdi
	callq	fW$__fW$__fHos_User_SysCall_hosAddMapping
	cmpq	$0, (%rax)
	movq	64(%rsp), %rbp          # 8-byte Reload
	je	.LBB31_20
# %bb.18:
	movl	$_c416, %eax
	jmp	.LBB31_26
.LBB31_20:
	movq	%r13, saved_gc(%rip)
	movl	$260, %edi              # imm = 0x104
	movl	$2147483648, %esi       # imm = 0x80000000
	xorl	%edx, %edx
	xorl	%ecx, %ecx
	xorl	%r8d, %r8d
	xorl	%r9d, %r9d
	callq	syscall
	xorl	%esi, %esi
	movq	%r13, %rdi
	callq	fW$__fHos_User_SysCall_hosWaitOnChannels
	movl	$11337730, %esi         # imm = 0xAD0002
	movl	$_c415, %ecx
	movq	%r13, %rdi
	movq	88(%rsp), %rdx          # 8-byte Reload
	callq	fData_Binary_getFrom
	movq	%rax, %rcx
	testb	$2, %al
	jne	.LBB31_22
# %bb.21:
	movq	(%rax), %rcx
.LBB31_22:
	cmpq	$65535, %rcx            # imm = 0xFFFF
	ja	.LBB31_24
# %bb.23:
	movq	8(%rax), %r14
	movq	%r14, (%r13)
	movq	cCHos_User_IPC_CouldNotParseResponse(%rip), %rsi
	movq	%rbp, %rdi
	callq	s_alloc
	movq	%rax, %rbx
	movq	%r14, (%rbx)
	movq	%rbx, (%rbp)
	movq	cCJhc_Type_Basic_Left(%rip), %rsi
	movq	(%rsp), %rdi            # 8-byte Reload
	callq	s_alloc
	movq	$2, (%rax)
	jmp	.LBB31_25
.LBB31_24:
	movq	8(%rax), %rbx
	movq	%rbx, (%r13)
	movq	cCJhc_Type_Basic_Right(%rip), %rsi
	movq	%rbp, %rdi
	callq	s_alloc
	movq	$65538, (%rax)          # imm = 0x10002
.LBB31_25:
	movq	%rbx, 8(%rax)
.LBB31_26:
	addq	$152, %rsp
	popq	%rbx
	popq	%r12
	popq	%r13
	popq	%r14
	popq	%r15
	popq	%rbp
	retq
.LBB31_19:
	movl	$1, %edi
	callq	assert
	movl	$_c411, %esi
	movq	%r13, %rdi
	callq	fJhc_IO_putErrLn
	movl	$255, %edi
	callq	jhc_exit
.Lfunc_end31:
	.size	fHos_User_IPC_transmitMsg, .Lfunc_end31-fHos_User_IPC_transmitMsg
	.cfi_endproc
                                        # -- End function
	.p2align	4, 0x90         # -- Begin function fJhc_Basics_$pp
	.type	fJhc_Basics_$pp,@function
fJhc_Basics_$pp:                        # @"fJhc_Basics_$pp"
	.cfi_startproc
# %bb.0:
	pushq	%r15
	.cfi_def_cfa_offset 16
	pushq	%r14
	.cfi_def_cfa_offset 24
	pushq	%r13
	.cfi_def_cfa_offset 32
	pushq	%r12
	.cfi_def_cfa_offset 40
	pushq	%rbx
	.cfi_def_cfa_offset 48
	.cfi_offset %rbx, -48
	.cfi_offset %r12, -40
	.cfi_offset %r13, -32
	.cfi_offset %r14, -24
	.cfi_offset %r15, -16
	movq	%rdx, %r14
	movq	%rdi, %rbx
	movq	%r14, (%rbx)
	leaq	8(%rbx), %r15
	movq	%r15, %rdi
	callq	eval
	cmpq	$65538, %rax            # imm = 0x10002
	je	.LBB32_2
# %bb.1:
	movq	(%rax), %r12
	movq	8(%rax), %r13
	movq	%r12, 8(%rbx)
	movq	%r13, 16(%rbx)
	leaq	24(%rbx), %rdi
	movq	cFR$__fJhc_Basics_$pp(%rip), %rsi
	callq	s_alloc
	movq	%rax, %r15
	movq	$E__fR$__fJhc_Basics_$pp+3, (%r15)
	movq	%r13, 8(%r15)
	movq	%r14, 16(%r15)
	orq	$1, %r15
	movq	%r15, 24(%rbx)
	addq	$32, %rbx
	movq	cCJhc_Prim_Prim_$x3a(%rip), %rsi
	movq	%rbx, %rdi
	callq	s_alloc
	movq	%r12, (%rax)
	movq	%r15, 8(%rax)
	popq	%rbx
	popq	%r12
	popq	%r13
	popq	%r14
	popq	%r15
	retq
.LBB32_2:
	movq	%r15, %rdi
	movq	%r14, %rsi
	popq	%rbx
	popq	%r12
	popq	%r13
	popq	%r14
	popq	%r15
	jmp	eval                    # TAILCALL
.Lfunc_end32:
	.size	fJhc_Basics_$pp, .Lfunc_end32-fJhc_Basics_$pp
	.cfi_endproc
                                        # -- End function
	.p2align	4, 0x90         # -- Begin function E__fInstance$__iJhc_Show_show_default
	.type	E__fInstance$__iJhc_Show_show_default,@function
E__fInstance$__iJhc_Show_show_default:  # @"E__fInstance$__iJhc_Show_show_default"
	.cfi_startproc
# %bb.0:
	pushq	%rbx
	.cfi_def_cfa_offset 16
	.cfi_offset %rbx, -16
	movq	%rsi, %rbx
	movq	%rbx, %rax
	orq	$1, %rax
	movq	%rax, (%rdi)
	addq	$8, %rdi
	movq	8(%rbx), %rsi
	movq	16(%rbx), %rcx
	movl	$_c227, %edx
	movl	$65538, %r8d            # imm = 0x10002
	callq	fJhc_Show_showsPrec
	movq	%rax, (%rbx)
	popq	%rbx
	retq
.Lfunc_end33:
	.size	E__fInstance$__iJhc_Show_show_default, .Lfunc_end33-E__fInstance$__iJhc_Show_show_default
	.cfi_endproc
                                        # -- End function
	.p2align	4, 0x90         # -- Begin function E__fJhc_Basics_$pp
	.type	E__fJhc_Basics_$pp,@function
E__fJhc_Basics_$pp:                     # @"E__fJhc_Basics_$pp"
	.cfi_startproc
# %bb.0:
	pushq	%rbp
	.cfi_def_cfa_offset 16
	pushq	%r15
	.cfi_def_cfa_offset 24
	pushq	%r14
	.cfi_def_cfa_offset 32
	pushq	%r13
	.cfi_def_cfa_offset 40
	pushq	%r12
	.cfi_def_cfa_offset 48
	pushq	%rbx
	.cfi_def_cfa_offset 56
	pushq	%rax
	.cfi_def_cfa_offset 64
	.cfi_offset %rbx, -56
	.cfi_offset %r12, -48
	.cfi_offset %r13, -40
	.cfi_offset %r14, -32
	.cfi_offset %r15, -24
	.cfi_offset %rbp, -16
	movq	%rsi, %r14
	movq	%rdi, %rbx
	movq	%r14, %rax
	orq	$1, %rax
	movq	%rax, (%rbx)
	movq	16(%r14), %rsi
	movq	24(%r14), %r15
	movq	%r15, 8(%rbx)
	leaq	16(%rbx), %r12
	movq	%r12, %rdi
	callq	eval
	cmpq	$65538, %rax            # imm = 0x10002
	je	.LBB34_1
# %bb.2:
	movq	(%rax), %r13
	movq	8(%rax), %rbp
	movq	%r13, 16(%rbx)
	movq	%rbp, 24(%rbx)
	leaq	32(%rbx), %rdi
	movq	cFR$__fJhc_Basics_$pp(%rip), %rsi
	callq	s_alloc
	movq	%rax, %r12
	movq	$E__fR$__fJhc_Basics_$pp+3, (%r12)
	movq	%rbp, 8(%r12)
	movq	%r15, 16(%r12)
	orq	$1, %r12
	movq	%r12, 32(%rbx)
	addq	$40, %rbx
	movq	cCJhc_Prim_Prim_$x3a(%rip), %rsi
	movq	%rbx, %rdi
	callq	s_alloc
	movq	%r13, (%rax)
	movq	%r12, 8(%rax)
	jmp	.LBB34_3
.LBB34_1:
	movq	%r12, %rdi
	movq	%r15, %rsi
	callq	eval
.LBB34_3:
	movq	%rax, (%r14)
	addq	$8, %rsp
	popq	%rbx
	popq	%r12
	popq	%r13
	popq	%r14
	popq	%r15
	popq	%rbp
	retq
.Lfunc_end34:
	.size	E__fJhc_Basics_$pp, .Lfunc_end34-E__fJhc_Basics_$pp
	.cfi_endproc
                                        # -- End function
	.section	.rodata.cst16,"aM",@progbits,16
	.p2align	4               # -- Begin function E__fNumeric_showHex
.LCPI35_0:
	.quad	2555906                 # 0x270002
	.zero	8
	.text
	.p2align	4, 0x90
	.type	E__fNumeric_showHex,@function
E__fNumeric_showHex:                    # @E__fNumeric_showHex
	.cfi_startproc
# %bb.0:
	pushq	%rbp
	.cfi_def_cfa_offset 16
	pushq	%r15
	.cfi_def_cfa_offset 24
	pushq	%r14
	.cfi_def_cfa_offset 32
	pushq	%r13
	.cfi_def_cfa_offset 40
	pushq	%r12
	.cfi_def_cfa_offset 48
	pushq	%rbx
	.cfi_def_cfa_offset 56
	subq	$72, %rsp
	.cfi_def_cfa_offset 128
	.cfi_offset %rbx, -56
	.cfi_offset %r12, -48
	.cfi_offset %r13, -40
	.cfi_offset %r14, -32
	.cfi_offset %r15, -24
	.cfi_offset %rbp, -16
	movq	%rsi, %rbx
	movq	%rdi, %rbp
	movq	%rbx, %rax
	orq	$1, %rax
	movq	%rax, (%rbp)
	movq	8(%rbx), %rax
	movq	16(%rbx), %r15
	movl	(%rax), %ecx
	movl	%ecx, %r12d
	shrl	$4, %r12d
	leaq	32(%rbp), %rax
	movq	%rax, 24(%rsp)          # 8-byte Spill
	leaq	40(%rbp), %r13
	testl	%r12d, %r12d
	je	.LBB35_1
# %bb.2:
	movq	%rbx, 32(%rsp)          # 8-byte Spill
	leaq	48(%rbp), %rax
	movq	%rax, 40(%rsp)          # 8-byte Spill
	movl	$_c104, %eax
	movq	%rax, %xmm0
	movdqa	.LCPI35_0(%rip), %xmm1  # xmm1 = <2555906,u>
	punpcklqdq	%xmm0, %xmm1    # xmm1 = xmm1[0],xmm0[0]
	movdqa	%xmm1, 48(%rsp)         # 16-byte Spill
	movq	%r13, 16(%rsp)          # 8-byte Spill
	.p2align	4, 0x90
.LBB35_3:                               # =>This Inner Loop Header: Depth=1
	movq	%r15, 8(%rbp)
	movl	%ecx, %ebx
	movl	%r12d, 12(%rsp)         # 4-byte Spill
	movdqa	48(%rsp), %xmm0         # 16-byte Reload
	movdqu	%xmm0, 16(%rbp)
	movq	cFW$__fNumeric_showIntAtBase$d3(%rip), %rsi
	movq	24(%rsp), %rdi          # 8-byte Reload
	callq	s_alloc
	movq	%rbp, %r13
	movq	%rax, %rbp
	movq	$E__fW$__fNumeric_showIntAtBase$d3+3, (%rbp)
	movl	$16, 8(%rbp)
	movl	%ebx, 12(%rbp)
	orq	$1, %rbp
	movq	%rbp, 32(%r13)
	movq	cBap__1__W$__fNumeric_showIntAtBase__100352(%rip), %rsi
	movq	16(%rsp), %rdi          # 8-byte Reload
	callq	s_alloc
	movq	%rax, %r14
	movq	$E__bap__1__W$__fNumeric_showIntAtBase__100352+3, (%r14)
	movq	$2555906, 8(%r14)       # imm = 0x270002
	movq	%rbp, 16(%r14)
	movq	%r13, %rbp
	orq	$1, %r14
	movq	%r14, 40(%rbp)
	movq	cCJhc_Prim_Prim_$x3a(%rip), %rsi
	movq	40(%rsp), %rdi          # 8-byte Reload
	callq	s_alloc
	movl	12(%rsp), %ecx          # 4-byte Reload
	movq	%r14, (%rax)
	movq	%r15, 8(%rax)
	shrl	$4, %r12d
	movq	%rax, %r15
	jne	.LBB35_3
# %bb.4:
	movl	%ecx, %r12d
	movq	%rax, %r15
	movq	32(%rsp), %rbx          # 8-byte Reload
	movq	16(%rsp), %r13          # 8-byte Reload
	jmp	.LBB35_5
.LBB35_1:
	movl	%ecx, %r12d
.LBB35_5:
	leaq	24(%rbp), %rdi
	movq	%r15, 8(%rbp)
	movq	$2555906, 16(%rbp)      # imm = 0x270002
	movq	cFW$__fNumeric_showIntAtBase$d2(%rip), %rsi
	callq	s_alloc
	movq	%rax, %r14
	movq	$E__fW$__fNumeric_showIntAtBase$d2+3, (%r14)
	movl	$16, 8(%r14)
	movl	%r12d, 12(%r14)
	orq	$1, %r14
	movq	%r14, 24(%rbp)
	movq	cBap__1__W$__fNumeric_showIntAtBase__100348(%rip), %rsi
	movq	24(%rsp), %rdi          # 8-byte Reload
	callq	s_alloc
	movq	%rbp, %rcx
	movq	%rax, %rbp
	movq	$E__bap__1__W$__fNumeric_showIntAtBase__100348+3, (%rbp)
	movq	$2555906, 8(%rbp)       # imm = 0x270002
	movq	%r14, 16(%rbp)
	orq	$1, %rbp
	movq	%rbp, 32(%rcx)
	movq	cCJhc_Prim_Prim_$x3a(%rip), %rsi
	movq	%r13, %rdi
	callq	s_alloc
	movq	%rbp, (%rax)
	movq	%r15, 8(%rax)
	movq	%rax, (%rbx)
	addq	$72, %rsp
	popq	%rbx
	popq	%r12
	popq	%r13
	popq	%r14
	popq	%r15
	popq	%rbp
	retq
.Lfunc_end35:
	.size	E__fNumeric_showHex, .Lfunc_end35-E__fNumeric_showHex
	.cfi_endproc
                                        # -- End function
	.p2align	4, 0x90         # -- Begin function fData_Binary_get
	.type	fData_Binary_get,@function
fData_Binary_get:                       # @fData_Binary_get
	.cfi_startproc
# %bb.0:
	pushq	%r14
	.cfi_def_cfa_offset 16
	pushq	%rbx
	.cfi_def_cfa_offset 24
	subq	$24, %rsp
	.cfi_def_cfa_offset 48
	.cfi_offset %rbx, -24
	.cfi_offset %r14, -16
	movq	%rsi, %rcx
	testb	$2, %sil
	jne	.LBB36_2
# %bb.1:
	movq	(%rsi), %rcx
.LBB36_2:
	shrq	$16, %rcx
	addq	$-164, %rcx
	cmpq	$30, %rcx
	ja	.LBB36_29
# %bb.3:
	movl	$10223618, %eax         # imm = 0x9C0002
	jmpq	*.LJTI36_0(,%rcx,8)
.LBB36_24:
	movq	8(%rsi), %rbx
	movq	%rbx, (%rdi)
	addq	$8, %rdi
	movq	cP3__Data_Binary_get$d6(%rip), %rsi
	callq	s_alloc
	movq	$8585218, (%rax)        # imm = 0x830002
	movq	%rbx, 8(%rax)
	jmp	.LBB36_31
.LBB36_23:
	movl	$8978434, %eax          # imm = 0x890002
	jmp	.LBB36_31
.LBB36_14:
	movl	$9109506, %eax          # imm = 0x8B0002
	jmp	.LBB36_31
.LBB36_21:
	movl	$9306114, %eax          # imm = 0x8E0002
	jmp	.LBB36_31
.LBB36_25:
	movq	8(%rsi), %rbx
	movq	%rbx, (%rdi)
	addq	$8, %rdi
	movq	cP3__Data_Binary_get$d7(%rip), %rsi
	callq	s_alloc
	movq	$8650754, (%rax)        # imm = 0x840002
	movq	%rbx, 8(%rax)
	jmp	.LBB36_31
.LBB36_26:
	movl	$8716290, %eax          # imm = 0x850002
	jmp	.LBB36_31
.LBB36_27:
	movl	$8781826, %eax          # imm = 0x860002
	jmp	.LBB36_31
.LBB36_22:
	movl	$8847362, %eax          # imm = 0x870002
	jmp	.LBB36_31
.LBB36_28:
	movl	$8912898, %eax          # imm = 0x880002
	jmp	.LBB36_31
.LBB36_13:
	movl	$9043970, %eax          # imm = 0x8A0002
	jmp	.LBB36_31
.LBB36_17:
	movl	$9175042, %eax          # imm = 0x8C0002
	jmp	.LBB36_31
.LBB36_20:
	movl	$9371650, %eax          # imm = 0x8F0002
	jmp	.LBB36_31
.LBB36_15:
	movl	$9502722, %eax          # imm = 0x910002
	jmp	.LBB36_31
.LBB36_12:
	movq	8(%rsi), %rbx
	movq	%rbx, (%rdi)
	addq	$8, %rdi
	movq	cP3__Data_Binary_get$d5(%rip), %rsi
	callq	s_alloc
	movq	$8519682, (%rax)        # imm = 0x820002
	movq	%rbx, 8(%rax)
	jmp	.LBB36_31
.LBB36_11:
	movl	$_g954484327+1, %esi
	addq	$24, %rsp
	popq	%rbx
	popq	%r14
	jmp	eval                    # TAILCALL
.LBB36_30:
	movq	8(%rsi), %rbx
	movq	16(%rsi), %r14
	movq	%rbx, (%rsp)
	movq	%r14, 8(%rsp)
	movaps	(%rsp), %xmm0
	movups	%xmm0, (%rdi)
	addq	$16, %rdi
	movq	cP3__Data_Binary_get$d2(%rip), %rsi
	callq	s_alloc
	movq	$8323074, (%rax)        # imm = 0x7F0002
	movq	%rbx, 8(%rax)
	movq	%r14, 16(%rax)
	jmp	.LBB36_31
.LBB36_9:
	movl	$9895938, %eax          # imm = 0x970002
	jmp	.LBB36_31
.LBB36_6:
	movl	$10027010, %eax         # imm = 0x990002
	jmp	.LBB36_31
.LBB36_7:
	movl	$10092546, %eax         # imm = 0x9A0002
	jmp	.LBB36_31
.LBB36_16:
	movl	$9240578, %eax          # imm = 0x8D0002
	jmp	.LBB36_31
.LBB36_19:
	movl	$9437186, %eax          # imm = 0x900002
	jmp	.LBB36_31
.LBB36_18:
	movl	$9568258, %eax          # imm = 0x920002
	jmp	.LBB36_31
.LBB36_4:
	movq	8(%rsi), %rbx
	movq	%rbx, (%rdi)
	addq	$8, %rdi
	movq	cP3__Data_Binary_get$d3(%rip), %rsi
	callq	s_alloc
	movq	$8388610, (%rax)        # imm = 0x800002
	movq	%rbx, 8(%rax)
	jmp	.LBB36_31
.LBB36_10:
	movl	$9961474, %eax          # imm = 0x980002
	jmp	.LBB36_31
.LBB36_5:
	movq	8(%rsi), %rbx
	movq	%rbx, (%rdi)
	addq	$8, %rdi
	movq	cP3__Data_Binary_get$d4(%rip), %rsi
	callq	s_alloc
	movq	$8454146, (%rax)        # imm = 0x810002
	movq	%rbx, 8(%rax)
	jmp	.LBB36_31
.LBB36_8:
	movl	$10158082, %eax         # imm = 0x9B0002
.LBB36_31:
	addq	$24, %rsp
	popq	%rbx
	popq	%r14
	retq
.LBB36_29:
	movl	$8751, %edi             # imm = 0x222F
	callq	jhc_case_fell_off
.Lfunc_end36:
	.size	fData_Binary_get, .Lfunc_end36-fData_Binary_get
	.cfi_endproc
	.section	.rodata,"a",@progbits
	.p2align	3
.LJTI36_0:
	.quad	.LBB36_24
	.quad	.LBB36_25
	.quad	.LBB36_26
	.quad	.LBB36_27
	.quad	.LBB36_22
	.quad	.LBB36_28
	.quad	.LBB36_23
	.quad	.LBB36_29
	.quad	.LBB36_13
	.quad	.LBB36_14
	.quad	.LBB36_17
	.quad	.LBB36_16
	.quad	.LBB36_21
	.quad	.LBB36_20
	.quad	.LBB36_19
	.quad	.LBB36_15
	.quad	.LBB36_18
	.quad	.LBB36_12
	.quad	.LBB36_11
	.quad	.LBB36_4
	.quad	.LBB36_29
	.quad	.LBB36_30
	.quad	.LBB36_9
	.quad	.LBB36_10
	.quad	.LBB36_5
	.quad	.LBB36_29
	.quad	.LBB36_29
	.quad	.LBB36_6
	.quad	.LBB36_7
	.quad	.LBB36_8
	.quad	.LBB36_31
                                        # -- End function
	.section	.rodata.cst16,"aM",@progbits,16
	.p2align	4               # -- Begin function bapply__84438
.LCPI37_0:
	.quad	2                       # 0x2
	.zero	8
	.text
	.p2align	4, 0x90
	.type	bapply__84438,@function
bapply__84438:                          # @bapply__84438
	.cfi_startproc
# %bb.0:
	pushq	%rbp
	.cfi_def_cfa_offset 16
	pushq	%r15
	.cfi_def_cfa_offset 24
	pushq	%r14
	.cfi_def_cfa_offset 32
	pushq	%r13
	.cfi_def_cfa_offset 40
	pushq	%r12
	.cfi_def_cfa_offset 48
	pushq	%rbx
	.cfi_def_cfa_offset 56
	subq	$168, %rsp
	.cfi_def_cfa_offset 224
	.cfi_offset %rbx, -56
	.cfi_offset %r12, -48
	.cfi_offset %r13, -40
	.cfi_offset %r14, -32
	.cfi_offset %r15, -24
	.cfi_offset %rbp, -16
	movq	%rdi, %r13
	movq	%rsi, %rcx
	testb	$2, %sil
	jne	.LBB37_2
# %bb.1:
	movq	(%rsi), %rcx
.LBB37_2:
	shrq	$16, %rcx
	addq	$-1, %rcx
	cmpq	$66, %rcx
	ja	.LBB37_250
# %bb.3:
	movl	$2, %eax
	jmpq	*.LJTI37_0(,%rcx,8)
.LBB37_4:
	movq	8(%rsi), %rcx
	movq	16(%rsi), %rax
	movq	24(%rsi), %rdx
	movq	%r13, %rdi
	movq	%rax, %rsi
	jmp	.LBB37_6
.LBB37_5:
	movq	8(%rsi), %rbx
	movq	16(%rsi), %rsi
	movq	%rbx, (%r13)
	addq	$8, %r13
	movq	%r13, %rdi
	callq	eval
	movq	(%rax), %rdx
	movq	8(%rbx), %rcx
	movq	16(%rbx), %rsi
	movq	%r13, %rdi
.LBB37_6:
	callq	fW$__fForeign_Storable_poke
	movl	$2, %eax
	jmp	.LBB37_249
.LBB37_7:
	movq	8(%rsi), %rdx
	movq	16(%rsi), %rcx
	movl	$12255234, %esi         # imm = 0xBB0002
	movq	%r13, %rdi
	callq	fInstance$__iData_Binary_get_Jhc_Prim_Prim_$BE
	movq	%rax, %rcx
	testb	$2, %al
	jne	.LBB37_9
# %bb.8:
	movq	(%rax), %rcx
.LBB37_9:
	cmpq	$65535, %rcx            # imm = 0xFFFF
	jbe	.LBB37_103
# %bb.10:
	movq	8(%rax), %rsi
	movq	%r13, %rdi
	callq	eval
	movq	(%rax), %rbp
	movq	8(%rax), %r14
	movq	16(%rax), %r15
	movq	%r14, 16(%rsp)
	movq	%rbp, 24(%rsp)
	movq	%r15, 32(%rsp)
	movq	%r15, 16(%r13)
	movdqa	16(%rsp), %xmm0
	movdqu	%xmm0, (%r13)
	leaq	24(%r13), %rdi
	movq	cCHos_Init_Msg_InitFindProvider(%rip), %rsi
	callq	s_alloc
	movq	%rax, %rbx
	movq	$65538, (%rbx)          # imm = 0x10002
	jmp	.LBB37_23
.LBB37_11:
	movq	32(%rsi), %r15
	movq	8(%rsi), %rbx
	movq	16(%rsi), %rax
	movq	24(%rsi), %r14
	movq	%rbx, 48(%rsp)
	movq	%r14, 56(%rsp)
	movdqa	48(%rsp), %xmm0
	movdqu	%xmm0, (%r13)
	leaq	16(%r13), %rbp
	movq	%rbp, %rdi
	movq	%rax, %rsi
	movq	%r14, %rdx
	callq	bapply__84437
	movq	%rbp, %rdi
	movq	%rax, %rsi
	callq	bapply__84438
	movq	%rbx, 16(%r13)
	addq	$24, %r13
	movq	cFW$__fData_Binary_put$d7(%rip), %rsi
	movq	%r13, %rdi
	callq	s_alloc
	movq	$E__fW$__fData_Binary_put$d7+3, (%rax)
	jmp	.LBB37_16
.LBB37_12:
	movq	40(%rsi), %r12
	movq	48(%rsi), %rax
	movq	%rax, 8(%rsp)           # 8-byte Spill
	movq	8(%rsi), %rax
	movq	16(%rsi), %r15
	movq	24(%rsi), %r14
	movq	32(%rsi), %rbx
	movq	%rbx, 16(%rsp)
	movq	%r15, 24(%rsp)
	movq	%r14, 32(%rsp)
	movq	%r14, 16(%r13)
	movdqa	16(%rsp), %xmm0
	movdqu	%xmm0, (%r13)
	leaq	24(%r13), %rbp
	movq	%rbp, %rdi
	movq	%rax, %rsi
	movq	%rbx, %rdx
	callq	bapply__84437
	movq	%rbp, %rdi
	movq	%rax, %rsi
	callq	bapply__84438
	movq	%r14, 24(%r13)
	leaq	32(%r13), %rdi
	movq	cFW$__fData_Binary_put$d9(%rip), %rsi
	callq	s_alloc
	movq	%rax, %rbp
	movq	$E__fW$__fData_Binary_put$d9+3, (%rbp)
	movq	%r12, 16(%rbp)
	movq	%rbx, 8(%rbp)
	orq	$1, %rbp
	movq	%rbp, 32(%r13)
	leaq	40(%r13), %rbx
	movq	%rbx, %rdi
	movq	%r14, %rsi
	movq	%rbp, %rdx
	callq	bapply__84437
	movq	%rbx, %rdi
	movq	%rax, %rsi
	callq	bapply__84438
	movq	%r15, 40(%r13)
	addq	$48, %r13
	movq	cFW$__fData_Binary_put$d10(%rip), %rsi
	movq	%r13, %rdi
	callq	s_alloc
	movq	$E__fW$__fData_Binary_put$d10+3, (%rax)
	movq	8(%rsp), %rcx           # 8-byte Reload
	movq	%rcx, 16(%rax)
	movq	%rbp, 8(%rax)
	orq	$1, %rax
	movq	24(%r15), %rsi
	movq	8(%r15), %rdx
	movq	16(%r15), %rcx
	jmp	.LBB37_17
.LBB37_13:
	movq	8(%rsi), %rbp
	movq	16(%rsi), %r14
	movq	%rbp, 48(%rsp)
	movq	%r14, 56(%rsp)
	movdqa	48(%rsp), %xmm0
	movdqu	%xmm0, (%r13)
	leaq	16(%r13), %rdi
	movq	cCJhc_Prim_Prim_$LccR(%rip), %rsi
	callq	s_alloc
	movq	%rax, %rbx
	movq	$2, (%rbx)
	jmp	.LBB37_144
.LBB37_14:
	movq	40(%rsi), %r12
	movq	8(%rsi), %rax
	movq	16(%rsi), %r14
	movq	24(%rsi), %r15
	movq	48(%rsi), %rcx
	movq	%rcx, 8(%rsp)           # 8-byte Spill
	movq	32(%rsi), %rbx
	movq	%rbx, 16(%rsp)
	movq	%r14, 24(%rsp)
	movq	%r15, 32(%rsp)
	movq	%r15, 16(%r13)
	movdqa	16(%rsp), %xmm0
	movdqu	%xmm0, (%r13)
	leaq	24(%r13), %rbp
	movq	%rbp, %rdi
	movq	%rax, %rsi
	movq	%rbx, %rdx
	callq	bapply__84437
	movq	%rbp, %rdi
	movq	%rax, %rsi
	callq	bapply__84438
	movq	%r15, 24(%r13)
	leaq	32(%r13), %rdi
	movq	cFW$__fInstance$__iData_Binary_put_Hos_Storage_Msg_StorageResponse$d3(%rip), %rsi
	callq	s_alloc
	movq	%rax, %rbp
	movq	$E__fW$__fInstance$__iData_Binary_put_Hos_Storage_Msg_StorageResponse$d3+3, (%rbp)
	movq	%rbx, 8(%rbp)
	movq	%r12, 16(%rbp)
	orq	$1, %rbp
	movq	%rbp, 32(%r13)
	leaq	40(%r13), %rbx
	movq	%rbx, %rdi
	movq	%r15, %rsi
	movq	%rbp, %rdx
	callq	bapply__84437
	movq	%rbx, %rdi
	movq	%rax, %rsi
	callq	bapply__84438
	movq	%r14, 40(%r13)
	addq	$48, %r13
	movq	cFW$__fInstance$__iData_Binary_put_Hos_Storage_Msg_StorageResponse$d4(%rip), %rsi
	movq	%r13, %rdi
	callq	s_alloc
	movq	$E__fW$__fInstance$__iData_Binary_put_Hos_Storage_Msg_StorageResponse$d4+3, (%rax)
	movq	%rbp, 8(%rax)
	movq	8(%rsp), %rcx           # 8-byte Reload
	movq	%rcx, 16(%rax)
	jmp	.LBB37_127
.LBB37_15:
	movq	32(%rsi), %r15
	movq	8(%rsi), %rax
	movq	16(%rsi), %rbx
	movq	24(%rsi), %r14
	movq	%r14, 48(%rsp)
	movq	%rbx, 56(%rsp)
	movdqa	48(%rsp), %xmm0
	movdqu	%xmm0, (%r13)
	leaq	16(%r13), %rbp
	movq	%rbp, %rdi
	movq	%rax, %rsi
	movq	%r14, %rdx
	callq	bapply__84437
	movq	%rbp, %rdi
	movq	%rax, %rsi
	callq	bapply__84438
	movq	%rbx, 16(%r13)
	addq	$24, %r13
	movq	cFW$__fData_Binary_put$d5(%rip), %rsi
	movq	%r13, %rdi
	callq	s_alloc
	movq	$E__fW$__fData_Binary_put$d5+3, (%rax)
.LBB37_16:
	movq	%r15, 16(%rax)
	movq	%r14, 8(%rax)
	orq	$1, %rax
	movq	24(%rbx), %rsi
	movq	8(%rbx), %rdx
	movq	16(%rbx), %rcx
.LBB37_17:
	movq	%r13, %rdi
	movq	%rax, %r8
	callq	fW$__fInstance$__iData_Binary_put_Jhc_Prim_Prim_$BEd5
	jmp	.LBB37_249
.LBB37_18:
	movq	32(%rsi), %r15
	movq	8(%rsi), %r14
	movq	16(%rsi), %rax
	movq	24(%rsi), %rbx
	movq	%r14, 48(%rsp)
	movq	%rbx, 56(%rsp)
	movdqa	48(%rsp), %xmm0
	movdqu	%xmm0, (%r13)
	leaq	16(%r13), %rbp
	movq	%rbp, %rdi
	movq	%rax, %rsi
	movq	%rbx, %rdx
	callq	bapply__84437
	movq	%rbp, %rdi
	movq	%rax, %rsi
	callq	bapply__84438
	movq	%r14, 16(%r13)
	addq	$24, %r13
	movq	cFW$__fData_Binary_put$d3(%rip), %rsi
	movq	%r13, %rdi
	callq	s_alloc
	movq	$E__fW$__fData_Binary_put$d3+3, (%rax)
	jmp	.LBB37_126
.LBB37_19:
	movq	8(%rsi), %rdx
	movq	16(%rsi), %rcx
	movl	$12255234, %esi         # imm = 0xBB0002
	movq	%r13, %rdi
	callq	fInstance$__iData_Binary_get_Jhc_Prim_Prim_$BE
	movq	%rax, %rcx
	testb	$2, %al
	jne	.LBB37_21
# %bb.20:
	movq	(%rax), %rcx
.LBB37_21:
	cmpq	$65535, %rcx            # imm = 0xFFFF
	jbe	.LBB37_103
# %bb.22:
	movq	8(%rax), %rsi
	movq	%r13, %rdi
	callq	eval
	movq	(%rax), %rbp
	movq	8(%rax), %r14
	movq	16(%rax), %r15
	movq	%r14, 16(%rsp)
	movq	%rbp, 24(%rsp)
	movq	%r15, 32(%rsp)
	movq	%r15, 16(%r13)
	movdqa	16(%rsp), %xmm0
	movdqu	%xmm0, (%r13)
	leaq	24(%r13), %rdi
	movq	cCHos_Init_Msg_InitRegisterProvider(%rip), %rsi
	callq	s_alloc
	movq	%rax, %rbx
	movq	$2, (%rbx)
.LBB37_23:
	movq	%rbp, 8(%rbx)
	movq	%rbx, 24(%r13)
	leaq	32(%r13), %rdi
	movq	cCJhc_Prim_Prim_$LccR(%rip), %rsi
	callq	s_alloc
	movq	%rax, %rbp
	movq	%rbx, (%rbp)
	movq	%r14, 8(%rbp)
	movq	%r15, 16(%rbp)
	movq	%rbp, 32(%r13)
	addq	$40, %r13
	jmp	.LBB37_247
.LBB37_24:
	movq	8(%rsi), %rax
	movq	16(%rsi), %r14
	movq	32(%rsi), %r15
	movq	24(%rsi), %rbx
	movq	%rbx, 48(%rsp)
	movq	%r14, 56(%rsp)
	movdqa	48(%rsp), %xmm0
	movdqu	%xmm0, (%r13)
	leaq	16(%r13), %rbp
	movq	%rbp, %rdi
	movq	%rax, %rsi
	movq	%rbx, %rdx
	callq	bapply__84437
	movq	%rbp, %rdi
	movq	%rax, %rsi
	callq	bapply__84438
	movq	%r14, 16(%r13)
	addq	$24, %r13
	movq	cFW$__fInstance$__iData_Binary_put_Hos_Storage_Msg_StorageResponse$d8(%rip), %rsi
	movq	%r13, %rdi
	callq	s_alloc
	movq	$E__fW$__fInstance$__iData_Binary_put_Hos_Storage_Msg_StorageResponse$d8+3, (%rax)
	movq	%rbx, 8(%rax)
	movq	%r15, 16(%rax)
	jmp	.LBB37_127
.LBB37_25:
	movq	8(%rsi), %rax
	movq	16(%rsi), %rdx
	movq	%r13, %rdi
	movq	%rax, %rsi
	callq	fInstance$__iData_Binary_get_Hos_Common_Bundle_TagName
	movq	%rax, %rcx
	testb	$2, %al
	jne	.LBB37_27
# %bb.26:
	movq	(%rax), %rcx
.LBB37_27:
	cmpq	$65535, %rcx            # imm = 0xFFFF
	jbe	.LBB37_103
# %bb.28:
	movq	8(%rax), %rsi
	movq	%r13, %rdi
	callq	eval
	movq	(%rax), %r15
	movq	8(%rax), %rbx
	movq	16(%rax), %rsi
	movq	%r15, 48(%rsp)
	movq	%rbx, 56(%rsp)
	movdqa	48(%rsp), %xmm0
	movdqu	%xmm0, (%r13)
	leaq	16(%r13), %r14
	movq	%r14, %rdi
	callq	eval
	movq	(%rax), %rdx
	movq	%r14, %rdi
	movq	%rbx, %rsi
	callq	fW$__fInstance$__iData_Binary_get_Hos_Common_Bundle_TagValue
	movq	%rax, %rcx
	testb	$2, %al
	jne	.LBB37_30
# %bb.29:
	movq	(%rax), %rcx
.LBB37_30:
	cmpq	$65535, %rcx            # imm = 0xFFFF
	jbe	.LBB37_163
# %bb.31:
	movq	8(%rax), %rsi
	movq	%r14, %rdi
	callq	eval
	movq	(%rax), %rbp
	movq	8(%rax), %r12
	movq	16(%rax), %rax
	movq	%rax, 8(%rsp)           # 8-byte Spill
	movq	%rax, 16(%rsp)
	movq	%rbp, 24(%rsp)
	movq	%r12, 32(%rsp)
	movq	%r12, 16(%r14)
	movdqa	16(%rsp), %xmm0
	movdqu	%xmm0, (%r14)
	leaq	40(%r13), %rdi
	movq	cCHos_Common_Bundle_Tag(%rip), %rsi
	callq	s_alloc
	movq	%rax, %rbx
	movq	%r15, (%rbx)
	movq	%rbp, 8(%rbx)
	movq	%rbx, 40(%r13)
	leaq	48(%r13), %rdi
	movq	cCJhc_Prim_Prim_$LccR(%rip), %rsi
	callq	s_alloc
	movq	%rax, %rbp
	movq	%rbx, (%rbp)
	movq	%r12, 8(%rbp)
	movq	8(%rsp), %rax           # 8-byte Reload
	movq	%rax, 16(%rbp)
	jmp	.LBB37_122
.LBB37_32:
	movq	8(%rsi), %rbp
	movq	16(%rsi), %r14
	movq	24(%rsi), %r15
	movq	%r14, 16(%rsp)
	movq	%r15, 24(%rsp)
	jmp	.LBB37_133
.LBB37_33:
	movq	8(%rsi), %rbx
	movq	16(%rsi), %rsi
	movq	%rbx, (%r13)
	leaq	8(%r13), %r12
	movq	%r12, %rdi
	callq	eval
	movq	(%rax), %rcx
	movl	$12713986, %esi         # imm = 0xC20002
	movq	%r12, %rdi
	movq	%rbx, %rdx
	callq	fW$__fData_Binary_getStorable
	movq	%rax, %rcx
	testb	$2, %al
	jne	.LBB37_35
# %bb.34:
	movq	(%rax), %rcx
.LBB37_35:
	cmpq	$65535, %rcx            # imm = 0xFFFF
	jbe	.LBB37_154
# %bb.36:
	movq	8(%rax), %rsi
	movq	%r12, %rdi
	callq	eval
	movq	(%rax), %rbx
	movq	8(%rax), %r15
	movq	16(%rax), %r14
	movq	%rbx, 16(%rsp)
	movq	%r14, 24(%rsp)
	movq	%r15, 32(%rsp)
	movq	%r15, 16(%r12)
	movdqa	16(%rsp), %xmm0
	movdqu	%xmm0, (%r12)
	leaq	32(%r13), %r12
	movq	%r12, %rdi
	movq	%rbx, %rsi
	callq	eval
	movl	%eax, %ecx
	andl	$1020, %ecx             # imm = 0x3FC
	cmpq	$1020, %rcx             # imm = 0x3FC
	jne	.LBB37_155
# %bb.37:
	movq	cCJhc_Prim_Prim_$LccR(%rip), %rsi
	movq	%r12, %rdi
	callq	s_alloc
	movq	%rax, %rbx
	movq	$131074, (%rbx)         # imm = 0x20002
	movq	%r15, 8(%rbx)
	movq	%r14, 16(%rbx)
	jmp	.LBB37_63
.LBB37_38:
	movq	8(%rsi), %r14
	movq	16(%rsi), %r12
	movl	40(%rsi), %r15d
	movq	24(%rsi), %rbp
	movq	32(%rsi), %rsi
	movq	%rbp, 16(%rsp)
	movq	%r14, 24(%rsp)
	movq	%r12, 32(%rsp)
	movq	%r12, 16(%r13)
	movdqa	16(%rsp), %xmm0
	movdqu	%xmm0, (%r13)
	leaq	24(%r13), %rbx
	movq	%rbx, %rdi
	callq	eval
	movq	(%rax), %rcx
	movl	$12713986, %esi         # imm = 0xC20002
	movq	%rbx, %rdi
	movq	%rbp, %rdx
	callq	fW$__fData_Binary_getStorable
	movq	%rax, %rcx
	testb	$2, %al
	jne	.LBB37_40
# %bb.39:
	movq	(%rax), %rcx
.LBB37_40:
	cmpq	$65535, %rcx            # imm = 0xFFFF
	jbe	.LBB37_96
# %bb.41:
	movq	8(%rax), %rsi
	movq	%rbx, %rdi
	callq	eval
	movq	(%rax), %rsi
	movq	8(%rax), %rcx
	movq	16(%rax), %rax
	movq	%rax, 8(%rsp)           # 8-byte Spill
	movq	%rax, 48(%rsp)
	movq	%rcx, 104(%rsp)         # 8-byte Spill
	movq	%rcx, 56(%rsp)
	movaps	48(%rsp), %xmm0
	movups	%xmm0, (%rbx)
	leaq	40(%r13), %rbx
	movq	%rbx, %rdi
	callq	eval
	movq	%rax, %rbp
	testl	$1020, %ebp             # imm = 0x3FC
	je	.LBB37_43
# %bb.42:
	shrq	$2, %rbp
	addl	$1, %r15d
	movl	%r15d, 160(%rsp)        # 4-byte Spill
	movq	cP1__Instance$__iData_Binary_get_Hos_User_IPC_ServerName$d13(%rip), %rsi
	movq	%rbx, %rdi
	callq	s_alloc
	movq	%rax, %r15
	movq	$1769474, (%r15)        # imm = 0x1B0002
	movb	%bpl, 16(%r15)
	movq	%r12, 8(%r15)
	movq	%r15, 40(%r13)
	leaq	48(%r13), %rdi
	movq	cFW$__fHos_User_IPC_fl$_Hos_User_IPC_28__go$d3198(%rip), %rsi
	callq	s_alloc
	movq	%rax, %r14
	movq	$E__fW$__fHos_User_IPC_fl$_Hos_User_IPC_28__go$d3198+3, (%r14)
	movl	160(%rsp), %eax         # 4-byte Reload
	movl	%eax, 16(%r14)
	movq	%r15, 8(%r14)
	orq	$1, %r14
.LBB37_43:
	movq	%rbx, %rax
	movq	104(%rsp), %rbx         # 8-byte Reload
	movq	%rbx, 64(%rsp)
	movq	8(%rsp), %rbp           # 8-byte Reload
	movq	%rbp, 72(%rsp)
	movdqa	64(%rsp), %xmm0
	movdqu	%xmm0, (%rax)
	addq	$56, %r13
	movq	%r13, %rdi
	movq	%r14, %rsi
	callq	eval
	movq	%r13, %rdi
	movq	%rax, %rsi
	movq	%rbx, %rdx
	callq	bapply__84437
	movq	%r13, %rdi
	movq	%rax, %rsi
	movq	%rbp, %rdx
	jmp	.LBB37_129
.LBB37_44:
	movq	8(%rsi), %rbp
	jmp	.LBB37_147
.LBB37_45:
	movq	8(%rsi), %rbx
	movq	16(%rsi), %rbp
	movq	24(%rsi), %r15
	movq	%rbp, 16(%rsp)
	movq	%r15, 24(%rsp)
	movq	%rbx, 32(%rsp)
	movq	%rbx, 16(%r13)
	movdqa	16(%rsp), %xmm0
	movdqu	%xmm0, (%r13)
	leaq	24(%r13), %r14
	movq	cTHos_Common_Bundle_BundleItem(%rip), %rsi
	movq	%r14, %rdi
	callq	s_alloc
	movq	$10813442, (%rax)       # imm = 0xA50002
	movq	%rbx, 8(%rax)
	movq	%r14, %rdi
	movq	%rax, %rsi
	movq	%rbp, %rdx
	movq	%r15, %rcx
	callq	fInstance$__iData_Binary_get_Jhc_Prim_Prim_$BE
	movq	%rax, %rcx
	testb	$2, %al
	jne	.LBB37_47
# %bb.46:
	movq	(%rax), %rcx
.LBB37_47:
	cmpq	$65535, %rcx            # imm = 0xFFFF
	jbe	.LBB37_96
# %bb.48:
	movq	8(%rax), %rsi
	movq	%r14, %rdi
	callq	eval
	movq	(%rax), %r12
	movq	8(%rax), %r15
	movq	16(%rax), %rbx
	movq	%r15, 64(%rsp)
	movq	%r12, 72(%rsp)
	movq	%rbx, 80(%rsp)
	movq	%rbx, 16(%r14)
	movdqa	64(%rsp), %xmm0
	movdqu	%xmm0, (%r14)
	leaq	48(%r13), %rdi
	movq	cCJhc_Prim_Prim_$LccR(%rip), %rsi
	callq	s_alloc
	movq	%rax, %rbp
	movq	%r12, (%rbp)
	movq	%r15, 8(%rbp)
	movq	%rbx, 16(%rbp)
	jmp	.LBB37_122
.LBB37_49:
	movq	8(%rsi), %rbx
	movq	16(%rsi), %rsi
	movq	%rbx, (%r13)
	addq	$8, %r13
	movq	%r13, %rdi
	callq	eval
	movq	(%rax), %rdx
	movq	%r13, %rdi
	movq	%rbx, %rsi
	addq	$168, %rsp
	popq	%rbx
	popq	%r12
	popq	%r13
	popq	%r14
	popq	%r15
	popq	%rbp
	jmp	fW$__fInstance$__iData_Binary_get_Hos_Common_Bundle_TagValue # TAILCALL
.LBB37_50:
	movq	32(%rsi), %rdx
	movq	8(%rsi), %rax
	movq	16(%rsi), %rcx
	movq	24(%rsi), %r8
	movq	%r13, %rdi
	movq	%rax, %rsi
	addq	$168, %rsp
	popq	%rbx
	popq	%r12
	popq	%r13
	popq	%r14
	popq	%r15
	popq	%rbp
	jmp	fW$__fInstance$__iData_Monoid_mappend_Data_Binary_Builder$d2 # TAILCALL
.LBB37_51:
	movq	8(%rsi), %rax
	movq	16(%rsi), %r14
	movq	24(%rsi), %rbp
	movq	32(%rsi), %r12
	movq	%rbp, 16(%rsp)
	movq	%r12, 24(%rsp)
	movq	%r14, 32(%rsp)
	movq	%r14, 16(%r13)
	movdqa	16(%rsp), %xmm0
	movdqu	%xmm0, (%r13)
	leaq	24(%r13), %r15
	movq	%r15, %rdi
	movq	%rax, %rsi
	callq	fData_Binary_get
	movq	%r15, %rdi
	movq	%rax, %rsi
	movq	%rbp, %rdx
	callq	bapply__84437
	movq	%r15, %rdi
	movq	%rax, %rsi
	movq	%r12, %rdx
	callq	bapply__84437
	movq	%r15, %rdi
	movq	%rax, %rsi
	callq	bapply__84438
	movq	%r15, %rdi
	movq	%rax, %rsi
	callq	eval
	movq	%rax, %rcx
	testb	$2, %al
	jne	.LBB37_53
# %bb.52:
	movq	(%rax), %rcx
.LBB37_53:
	cmpq	$65535, %rcx            # imm = 0xFFFF
	jbe	.LBB37_96
# %bb.54:
	movq	8(%rax), %rsi
	movq	%r15, %rdi
	callq	eval
	movq	(%rax), %rbx
	movq	8(%rax), %rbp
	movq	16(%rax), %r12
	movq	%rbp, 64(%rsp)
	movq	%r12, 72(%rsp)
	movq	%rbx, 80(%rsp)
	movq	%rbx, 16(%r15)
	movdqa	64(%rsp), %xmm0
	movdqu	%xmm0, (%r15)
	leaq	48(%r13), %r15
	movq	%r15, %rdi
	movq	%r14, %rsi
	callq	fData_Binary_get
	movq	%r15, %rdi
	movq	%rax, %rsi
	movq	%rbp, %rdx
	callq	bapply__84437
	movq	%r15, %rdi
	movq	%rax, %rsi
	movq	%r12, %rdx
	callq	bapply__84437
	movq	%r15, %rdi
	movq	%rax, %rsi
	callq	bapply__84438
	movq	%r15, %rdi
	movq	%rax, %rsi
	callq	eval
	movq	%rax, %rcx
	testb	$2, %al
	jne	.LBB37_56
# %bb.55:
	movq	(%rax), %rcx
.LBB37_56:
	cmpq	$65535, %rcx            # imm = 0xFFFF
	ja	.LBB37_159
# %bb.57:
	movq	8(%rax), %rbx
	movq	%rbx, 48(%r13)
	addq	$56, %r13
	jmp	.LBB37_164
.LBB37_58:
	movq	8(%rsi), %rax
	movq	16(%rsi), %rdx
	movq	24(%rsi), %rcx
	movq	%r13, %rdi
	movq	%rax, %rsi
	addq	$168, %rsp
	popq	%rbx
	popq	%r12
	popq	%r13
	popq	%r14
	popq	%r15
	popq	%rbp
	jmp	fInstance$__iData_Binary_get_Jhc_Prim_Prim_$BE # TAILCALL
.LBB37_59:
	movq	8(%rsi), %rbx
	movq	16(%rsi), %rsi
	movq	%rbx, (%r13)
	leaq	8(%r13), %r14
	movq	%r14, %rdi
	callq	eval
	movq	(%rax), %rcx
	movl	$12713986, %esi         # imm = 0xC20002
	movq	%r14, %rdi
	movq	%rbx, %rdx
	callq	fW$__fData_Binary_getStorable
	movq	%rax, %rcx
	testb	$2, %al
	jne	.LBB37_61
# %bb.60:
	movq	(%rax), %rcx
.LBB37_61:
	cmpq	$65535, %rcx            # imm = 0xFFFF
	jbe	.LBB37_154
# %bb.62:
	movq	8(%rax), %rsi
	movq	%r14, %rdi
	callq	eval
	movq	(%rax), %rbp
	movq	8(%rax), %r14
	movq	16(%rax), %r15
	movq	%r14, 8(%r13)
	movq	%r15, 16(%r13)
	movq	%rbp, 24(%r13)
	leaq	32(%r13), %rdi
	movq	cCJhc_Prim_Prim_$LccR(%rip), %rsi
	callq	s_alloc
	movq	%rax, %rbx
	movq	%rbp, (%rbx)
	movq	%r14, 8(%rbx)
	movq	%r15, 16(%rbx)
.LBB37_63:
	movq	%rbx, 32(%r13)
	addq	$40, %r13
	jmp	.LBB37_145
.LBB37_64:
	movq	8(%rsi), %r14
	movq	16(%rsi), %rbp
	movq	24(%rsi), %rsi
	movq	%rbp, 48(%rsp)
	movq	%r14, 56(%rsp)
	movdqa	48(%rsp), %xmm0
	movdqu	%xmm0, (%r13)
	leaq	16(%r13), %rdi
	callq	eval
	movq	(%rax), %rdx
	movq	%r14, 16(%r13)
	leaq	24(%r13), %r15
	movq	%r15, %rdi
	movq	%rbp, %rsi
	callq	fW$__fInstance$__iData_Binary_get_Hos_Common_Bundle_GUID
	movq	%rax, %rcx
	testb	$2, %al
	jne	.LBB37_66
# %bb.65:
	movq	(%rax), %rcx
.LBB37_66:
	cmpq	$65535, %rcx            # imm = 0xFFFF
	jbe	.LBB37_96
# %bb.67:
	movq	8(%rax), %rsi
	movq	%r15, %rdi
	callq	eval
	movq	(%rax), %rbx
	movq	8(%rax), %rdx
	movq	16(%rax), %rcx
	movq	%rbx, 24(%r13)
	leaq	32(%r13), %r15
	movl	$10944514, %esi         # imm = 0xA70002
	movq	%r15, %rdi
	callq	fInstance$__iData_Binary_get_Jhc_Prim_Prim_$BE
	movq	%rax, %rcx
	testb	$2, %al
	jne	.LBB37_69
# %bb.68:
	movq	(%rax), %rcx
.LBB37_69:
	cmpq	$65535, %rcx            # imm = 0xFFFF
	jbe	.LBB37_113
# %bb.70:
	movq	8(%rax), %rsi
	movq	%r15, %rdi
	callq	eval
	movq	(%rax), %rcx
	movq	8(%rax), %r12
	movq	16(%rax), %rbp
	movq	%r12, 16(%rsp)
	movq	%rcx, 8(%rsp)           # 8-byte Spill
	movq	%rcx, 24(%rsp)
	movq	%rbp, 32(%rsp)
	movq	%rbp, 16(%r15)
	movdqa	16(%rsp), %xmm0
	movdqu	%xmm0, (%r15)
	leaq	56(%r13), %r15
	movq	%r15, %rdi
	movq	%r14, %rsi
	callq	fData_Binary_get
	movq	%r15, %rdi
	movq	%rax, %rsi
	movq	%r12, %rdx
	callq	bapply__84437
	movq	%r15, %rdi
	movq	%rax, %rsi
	movq	%rbp, %rdx
	callq	bapply__84437
	movq	%r15, %rdi
	movq	%rax, %rsi
	callq	bapply__84438
	movq	%r15, %rdi
	movq	%rax, %rsi
	callq	eval
	movq	%rax, %rcx
	testb	$2, %al
	jne	.LBB37_72
# %bb.71:
	movq	(%rax), %rcx
.LBB37_72:
	cmpq	$65535, %rcx            # imm = 0xFFFF
	ja	.LBB37_175
# %bb.73:
	movq	8(%rax), %rbx
	movq	%rbx, 56(%r13)
	addq	$64, %r13
	jmp	.LBB37_164
.LBB37_74:
	movq	48(%rsi), %rbx
	movq	56(%rsi), %rax
	movq	%rax, 8(%rsp)           # 8-byte Spill
	movq	8(%rsi), %rcx
	movq	%rcx, 104(%rsp)         # 8-byte Spill
	movq	16(%rsi), %rax
	movq	24(%rsi), %r14
	movq	64(%rsi), %rdx
	movq	%rdx, 160(%rsp)         # 8-byte Spill
	movq	32(%rsi), %r15
	movq	40(%rsi), %r12
	movq	%r12, 64(%rsp)
	movq	%rcx, 72(%rsp)
	movq	%r15, 80(%rsp)
	movq	%r14, 88(%rsp)
	movaps	80(%rsp), %xmm0
	movups	%xmm0, 16(%r13)
	movdqa	64(%rsp), %xmm0
	movdqu	%xmm0, (%r13)
	leaq	32(%r13), %rbp
	movq	%rbp, %rdi
	movq	%rax, %rsi
	movq	%r12, %rdx
	callq	bapply__84437
	movq	%rbp, %rdi
	movq	%rax, %rsi
	callq	bapply__84438
	movq	%r15, 32(%r13)
	leaq	40(%r13), %rdi
	movq	cFHos_User_IPC_transmitMsg$d16(%rip), %rsi
	callq	s_alloc
	movq	%rax, %rbp
	movq	$E__fHos_User_IPC_transmitMsg$d16+3, (%rbp)
	movq	%r12, 8(%rbp)
	movq	%rbx, 16(%rbp)
	orq	$1, %rbp
	movq	%rbp, 40(%r13)
	leaq	48(%r13), %r12
	movq	%r12, %rdi
	movq	%r15, %rsi
	movq	%rbp, %rdx
	callq	bapply__84437
	movq	%r12, %rdi
	movq	%rax, %rsi
	callq	bapply__84438
	movq	%r14, 48(%r13)
	leaq	56(%r13), %rdi
	movq	cFHos_User_IPC_transmitMsg$d17(%rip), %rsi
	callq	s_alloc
	movq	%rax, %rbx
	movq	$E__fHos_User_IPC_transmitMsg$d17+3, (%rbx)
	movq	%rbp, 8(%rbx)
	movq	160(%rsp), %rax         # 8-byte Reload
	movq	%rax, 16(%rbx)
	orq	$1, %rbx
	movq	24(%r14), %rdx
	movq	8(%r14), %rsi
	movq	16(%r14), %rcx
	movq	%rbx, 56(%r13)
	leaq	64(%r13), %rdi
	movq	%rbx, %r8
	callq	fW$__fInstance$__iData_Monoid_mappend_Data_Binary_Builder$d2
	movq	104(%rsp), %rbp         # 8-byte Reload
	movq	%rbp, 64(%r13)
	addq	$72, %r13
	movq	cFHos_User_IPC_transmitMsg$d18(%rip), %rsi
	movq	%r13, %rdi
	callq	s_alloc
	movq	$E__fHos_User_IPC_transmitMsg$d18+3, (%rax)
	movq	8(%rsp), %rcx           # 8-byte Reload
	movq	%rcx, 16(%rax)
	movq	%rbx, 8(%rax)
	orq	$1, %rax
	movq	%r13, %rdi
	movq	%rbp, %rsi
	jmp	.LBB37_128
.LBB37_75:
	movq	8(%rsi), %rbx
	movq	16(%rsi), %rsi
	movq	%rbx, (%r13)
	leaq	8(%r13), %r14
	movq	%r14, %rdi
	callq	eval
	movq	(%rax), %rcx
	movl	$12713986, %esi         # imm = 0xC20002
	movq	%r14, %rdi
	movq	%rbx, %rdx
	callq	fW$__fData_Binary_getStorable
	movq	%rax, %rcx
	testb	$2, %al
	jne	.LBB37_77
# %bb.76:
	movq	(%rax), %rcx
.LBB37_77:
	cmpq	$65535, %rcx            # imm = 0xFFFF
	jbe	.LBB37_154
# %bb.78:
	movq	8(%rax), %rsi
	movq	%r14, %rdi
	callq	eval
	movq	(%rax), %rsi
	movq	8(%rax), %r15
	movq	16(%rax), %r12
	movq	%r15, 8(%r13)
	movq	%r12, 16(%r13)
	leaq	24(%r13), %r14
	movq	%r14, %rdi
	callq	eval
	movq	%rax, %rcx
	shrq	$2, %rcx
	addb	$1, %cl
	cmpb	$18, %cl
	ja	.LBB37_185
# %bb.79:
	movzbl	%cl, %ecx
	jmpq	*.LJTI37_1(,%rcx,8)
.LBB37_80:
	movq	cCJhc_Prim_Prim_$LccR(%rip), %rsi
	movq	%r14, %rdi
	callq	s_alloc
	movq	%rax, %rbx
	movq	$327682, (%rbx)         # imm = 0x50002
	jmp	.LBB37_228
.LBB37_81:
	movq	8(%rsi), %rbx
	movq	16(%rsi), %rsi
	movq	%rbx, (%r13)
	addq	$8, %r13
	movq	%r13, %rdi
	callq	eval
	movq	(%rax), %rdx
	movq	%r13, %rdi
	movq	%rbx, %rsi
	addq	$168, %rsp
	popq	%rbx
	popq	%r12
	popq	%r13
	popq	%r14
	popq	%r15
	popq	%rbp
	jmp	fW$__fInstance$__iData_Binary_get_Hos_Storage_Msg_TxId # TAILCALL
.LBB37_82:
	movq	8(%rsi), %rbx
	movq	16(%rsi), %rsi
	movq	%rbx, (%r13)
	addq	$8, %r13
	movq	%r13, %rdi
	callq	eval
	movq	(%rax), %rcx
	movl	$12648450, %esi         # imm = 0xC10002
	jmp	.LBB37_124
.LBB37_83:
	movq	8(%rsi), %rax
	movq	16(%rsi), %rdx
	movq	24(%rsi), %rcx
	movq	%r13, %rdi
	movq	%rax, %rsi
	addq	$168, %rsp
	popq	%rbx
	popq	%r12
	popq	%r13
	popq	%r14
	popq	%r15
	popq	%rbp
	jmp	fInstance$__iData_Binary_get_Jhc_Type_Basic_Maybe # TAILCALL
.LBB37_84:
	movq	8(%rsi), %rbx
	movq	16(%rsi), %rsi
	movq	%rbx, (%r13)
	leaq	8(%r13), %r14
	movq	%r14, %rdi
	callq	eval
	movq	(%rax), %rcx
	movl	$12713986, %esi         # imm = 0xC20002
	movq	%r14, %rdi
	movq	%rbx, %rdx
	callq	fW$__fData_Binary_getStorable
	movq	%rax, %rcx
	testb	$2, %al
	jne	.LBB37_86
# %bb.85:
	movq	(%rax), %rcx
.LBB37_86:
	cmpq	$65535, %rcx            # imm = 0xFFFF
	jbe	.LBB37_154
# %bb.87:
	movq	8(%rax), %rsi
	movq	%r14, %rdi
	callq	eval
	movq	(%rax), %rsi
	movq	8(%rax), %r15
	movq	16(%rax), %r12
	movq	%r12, 48(%rsp)
	movq	%r15, 56(%rsp)
	movdqa	48(%rsp), %xmm0
	movdqu	%xmm0, (%r14)
	leaq	24(%r13), %r14
	movq	%r14, %rdi
	callq	eval
	movq	%rax, %rcx
	shrq	$2, %rcx
	addb	$-1, %cl
	cmpb	$4, %cl
	ja	.LBB37_229
# %bb.88:
	movzbl	%cl, %eax
	jmpq	*.LJTI37_2(,%rax,8)
.LBB37_89:
	movq	%r14, %rdi
	movq	%r12, %rsi
	callq	eval
	movq	(%rax), %rdx
	movq	%r14, %rdi
	movq	%r15, %rsi
	callq	fW$__fInstance$__iData_Binary_get_Hos_Storage_Msg_TxId
	movq	%rax, %rcx
	testb	$2, %al
	jne	.LBB37_91
# %bb.90:
	movq	(%rax), %rcx
.LBB37_91:
	cmpq	$65535, %rcx            # imm = 0xFFFF
	jbe	.LBB37_96
# %bb.92:
	movq	8(%rax), %rsi
	movq	%r14, %rdi
	callq	eval
	movq	(%rax), %rbp
	movq	8(%rax), %r15
	movq	16(%rax), %r12
	movq	%rbp, 64(%rsp)
	movq	%r15, 72(%rsp)
	movq	%r12, 80(%rsp)
	movq	%r12, 16(%r14)
	movdqa	64(%rsp), %xmm0
	movdqu	%xmm0, (%r14)
	leaq	48(%r13), %rdi
	movq	cCHos_Storage_Msg_StorageCommitTransaction(%rip), %rsi
	callq	s_alloc
	movq	%rax, %rbx
	movq	$65538, (%rbx)          # imm = 0x10002
	jmp	.LBB37_220
.LBB37_93:
	movq	8(%rsi), %r14
	movq	16(%rsi), %rbp
	movq	24(%rsi), %rsi
	movq	%r14, 112(%rsp)
	movq	%rbp, 120(%rsp)
	movdqa	112(%rsp), %xmm0
	movdqu	%xmm0, (%r13)
	leaq	16(%r13), %rdi
	callq	eval
	movq	(%rax), %rcx
	movq	%r14, 16(%r13)
	leaq	24(%r13), %r15
	movl	$12582914, %esi         # imm = 0xC00002
	movq	%r15, %rdi
	movq	%rbp, %rdx
	callq	fW$__fData_Binary_getStorable
	movq	%rax, %rcx
	testb	$2, %al
	jne	.LBB37_95
# %bb.94:
	movq	(%rax), %rcx
.LBB37_95:
	cmpq	$65535, %rcx            # imm = 0xFFFF
	ja	.LBB37_149
.LBB37_96:
	movq	8(%rax), %rbx
	movq	%rbx, 24(%r13)
	addq	$32, %r13
	jmp	.LBB37_164
.LBB37_97:
	movq	8(%rsi), %rbx
	movq	16(%rsi), %rsi
	movq	%rbx, (%r13)
	addq	$8, %r13
	movq	%r13, %rdi
	callq	eval
	movq	(%rax), %rdx
	movq	%r13, %rdi
	movq	%rbx, %rsi
	addq	$168, %rsp
	popq	%rbx
	popq	%r12
	popq	%r13
	popq	%r14
	popq	%r15
	popq	%rbp
	jmp	fW$__fInstance$__iData_Binary_get_Hos_Common_Bundle_GUID # TAILCALL
.LBB37_98:
	movq	8(%rsi), %rbx
	movq	16(%rsi), %rsi
	movq	%rbx, (%r13)
	addq	$8, %r13
	movq	%r13, %rdi
	callq	eval
	movq	(%rax), %rcx
	movl	$12582914, %esi         # imm = 0xC00002
	jmp	.LBB37_124
.LBB37_99:
	movq	8(%rsi), %rbx
	movq	16(%rsi), %rsi
	movq	%rbx, (%r13)
	addq	$8, %r13
	movq	%r13, %rdi
	callq	eval
	movq	(%rax), %rcx
	movl	$12713986, %esi         # imm = 0xC20002
	jmp	.LBB37_124
.LBB37_100:
	movq	8(%rsi), %rdx
	movq	16(%rsi), %rcx
	movl	$12255234, %esi         # imm = 0xBB0002
	movq	%r13, %rdi
	callq	fInstance$__iData_Binary_get_Jhc_Prim_Prim_$BE
	movq	%rax, %rcx
	testb	$2, %al
	jne	.LBB37_102
# %bb.101:
	movq	(%rax), %rcx
.LBB37_102:
	cmpq	$65535, %rcx            # imm = 0xFFFF
	ja	.LBB37_151
.LBB37_103:
	movq	8(%rax), %rbx
	movq	%rbx, (%r13)
	addq	$8, %r13
	jmp	.LBB37_164
.LBB37_104:
	movq	40(%rsi), %r12
	movq	8(%rsi), %r15
	movq	16(%rsi), %rax
	movq	48(%rsi), %rcx
	movq	%rcx, 8(%rsp)           # 8-byte Spill
	movq	24(%rsi), %r14
	movq	32(%rsi), %rbx
	movq	%r15, 16(%rsp)
	movq	%rbx, 24(%rsp)
	movq	%r14, 32(%rsp)
	movq	%r14, 16(%r13)
	movdqa	16(%rsp), %xmm0
	movdqu	%xmm0, (%r13)
	leaq	24(%r13), %rbp
	movq	%rbp, %rdi
	movq	%rax, %rsi
	movq	%rbx, %rdx
	callq	bapply__84437
	movq	%rbp, %rdi
	movq	%rax, %rsi
	callq	bapply__84438
	movq	%r14, 24(%r13)
	leaq	32(%r13), %rdi
	movq	cFHos_User_IPC_transmitMsg$d9(%rip), %rsi
	callq	s_alloc
	movq	%rax, %rbp
	movq	$E__fHos_User_IPC_transmitMsg$d9+3, (%rbp)
	movq	%r12, 16(%rbp)
	movq	%rbx, 8(%rbp)
	orq	$1, %rbp
	movq	%rbp, 32(%r13)
	leaq	40(%r13), %rbx
	movq	%rbx, %rdi
	movq	%r14, %rsi
	movq	%rbp, %rdx
	callq	bapply__84437
	movq	%rbx, %rdi
	movq	%rax, %rsi
	callq	bapply__84438
	movq	%r15, 40(%r13)
	addq	$48, %r13
	movq	cFHos_User_IPC_transmitMsg$d10(%rip), %rsi
	movq	%r13, %rdi
	callq	s_alloc
	movq	$E__fHos_User_IPC_transmitMsg$d10+3, (%rax)
	movq	%rbp, 8(%rax)
	movq	8(%rsp), %rcx           # 8-byte Reload
	movq	%rcx, 16(%rax)
	orq	$1, %rax
	movq	24(%r15), %rdx
	movq	8(%r15), %rsi
	movq	16(%r15), %rcx
	movq	%r13, %rdi
	movq	%rax, %r8
	callq	fW$__fInstance$__iData_Monoid_mappend_Data_Binary_Builder$d2
	jmp	.LBB37_249
.LBB37_105:
	movq	8(%rsi), %rbx
	movq	16(%rsi), %rsi
	movq	%rbx, (%r13)
	addq	$8, %r13
	movq	%r13, %rdi
	callq	eval
	movq	(%rax), %rdx
	movq	%r13, %rdi
	movq	%rbx, %rsi
	addq	$168, %rsp
	popq	%rbx
	popq	%r12
	popq	%r13
	popq	%r14
	popq	%r15
	popq	%rbp
	jmp	fW$__fInstance$__iData_Binary_get_Hos_Storage_Msg_TxStatus # TAILCALL
.LBB37_106:
	movq	8(%rsi), %rbx
	movq	16(%rsi), %rsi
	movq	%rbx, (%r13)
	leaq	8(%r13), %r14
	movq	%r14, %rdi
	callq	eval
	movq	(%rax), %rcx
	movl	$12517378, %esi         # imm = 0xBF0002
	movq	%r14, %rdi
	movq	%rbx, %rdx
	callq	fW$__fData_Binary_getStorable
	movq	%rax, %rcx
	testb	$2, %al
	jne	.LBB37_108
# %bb.107:
	movq	(%rax), %rcx
.LBB37_108:
	cmpq	$65535, %rcx            # imm = 0xFFFF
	jbe	.LBB37_154
# %bb.109:
	movq	8(%rax), %rsi
	movq	%r14, %rdi
	callq	eval
	movq	(%rax), %rbx
	movq	8(%rax), %r15
	movq	16(%rax), %r12
	movq	%r15, 16(%rsp)
	movq	%r12, 24(%rsp)
	movq	%rbx, 32(%rsp)
	movq	%rbx, 16(%r14)
	movdqa	16(%rsp), %xmm0
	movdqu	%xmm0, (%r14)
	leaq	32(%r13), %r14
	movq	%r14, %rdi
	movq	%rbx, %rsi
	callq	eval
	movl	%eax, %ecx
	andl	$262140, %ecx           # imm = 0x3FFFC
	cmpq	$8, %rcx
	jne	.LBB37_165
# %bb.110:
	movq	%r14, %rdi
	movq	%r12, %rsi
	callq	eval
	movq	(%rax), %rcx
	movl	$12582914, %esi         # imm = 0xC00002
	movq	%r14, %rdi
	movq	%r15, %rdx
	callq	fW$__fData_Binary_getStorable
	movq	%rax, %rcx
	testb	$2, %al
	jne	.LBB37_112
# %bb.111:
	movq	(%rax), %rcx
.LBB37_112:
	cmpq	$65535, %rcx            # imm = 0xFFFF
	ja	.LBB37_181
.LBB37_113:
	movq	8(%rax), %rbx
	movq	%rbx, 32(%r13)
	addq	$40, %r13
	jmp	.LBB37_164
.LBB37_114:
	movq	8(%rsi), %rbx
	movq	16(%rsi), %rsi
	movq	%rbx, (%r13)
	addq	$8, %r13
	movq	%r13, %rdi
	callq	eval
	movq	(%rax), %rdx
	movq	%r13, %rdi
	movq	%rbx, %rsi
	addq	$168, %rsp
	popq	%rbx
	popq	%r12
	popq	%r13
	popq	%r14
	popq	%r15
	popq	%rbp
	jmp	fW$__fR$__fInstance$__iData_Binary_get_Hos_Storage_Msg_StorageQuery # TAILCALL
.LBB37_115:
	movq	8(%rsi), %rbx
	movq	16(%rsi), %rsi
	movq	%rbx, (%r13)
	addq	$8, %r13
	movq	%r13, %rdi
	callq	eval
	movq	(%rax), %rdx
	movq	%r13, %rdi
	movq	%rbx, %rsi
	addq	$168, %rsp
	popq	%rbx
	popq	%r12
	popq	%r13
	popq	%r14
	popq	%r15
	popq	%rbp
	jmp	fW$__fInstance$__iData_Binary_get_Hos_Storage_Msg_ObId # TAILCALL
.LBB37_116:
	movq	8(%rsi), %r14
	movq	16(%rsi), %rbp
	movq	24(%rsi), %r15
	movq	32(%rsi), %r12
	movq	%rbp, 64(%rsp)
	movq	%r12, 72(%rsp)
	movq	%r15, 80(%rsp)
	movq	%r14, 88(%rsp)
	movaps	80(%rsp), %xmm0
	movups	%xmm0, 16(%r13)
	movdqa	64(%rsp), %xmm0
	movdqu	%xmm0, (%r13)
	leaq	32(%r13), %rdi
	movq	cP1__Instance$__iData_Binary_get_Hos_User_IPC_ServerName$d6(%rip), %rsi
	callq	s_alloc
	movq	%rax, %rbx
	movq	$1966082, (%rbx)        # imm = 0x1E0002
	movq	%rbp, 8(%rbx)
	movq	%rbx, 32(%r13)
	addq	$40, %r13
	movq	cP1__Instance$__iData_Binary_get_Hos_User_IPC_ServerName$d7(%rip), %rsi
	movq	%r13, %rdi
	callq	s_alloc
	movq	$2031618, (%rax)        # imm = 0x1F0002
	movq	%rbx, 8(%rax)
	movq	%r13, %rdi
	movq	%r14, %rsi
	movq	%rax, %rdx
	movq	%r15, %rcx
	movq	%r12, %r8
	callq	fData_Binary_gBind
	jmp	.LBB37_249
.LBB37_117:
	movq	8(%rsi), %rax
	movq	16(%rsi), %rdx
	movq	%r13, %rdi
	movq	%rax, %rsi
	addq	$168, %rsp
	popq	%rbx
	popq	%r12
	popq	%r13
	popq	%r14
	popq	%r15
	popq	%rbp
	jmp	fInstance$__iData_Binary_get_Hos_Common_Bundle_TagName # TAILCALL
.LBB37_118:
	movq	8(%rsi), %rdx
	movq	16(%rsi), %rbx
	movq	%rdx, 112(%rsp)
	movq	%rbx, 120(%rsp)
	movdqa	112(%rsp), %xmm0
	movdqu	%xmm0, (%r13)
	leaq	16(%r13), %r14
	movl	$10223618, %esi         # imm = 0x9C0002
	movq	%r14, %rdi
	callq	bapply__84437
	movq	%r14, %rdi
	movq	%rax, %rsi
	movq	%rbx, %rdx
	callq	bapply__84437
	movq	%r14, %rdi
	movq	%rax, %rsi
	callq	bapply__84438
	movq	%r14, %rdi
	movq	%rax, %rsi
	callq	eval
	movq	%rax, %rcx
	testb	$2, %al
	jne	.LBB37_120
# %bb.119:
	movq	(%rax), %rcx
.LBB37_120:
	cmpq	$65535, %rcx            # imm = 0xFFFF
	jbe	.LBB37_163
# %bb.121:
	movq	8(%rax), %rsi
	movq	%r14, %rdi
	callq	eval
	movq	(%rax), %rbp
	movq	8(%rax), %r15
	movq	16(%rax), %r12
	movq	%rbp, 16(%rsp)
	movq	%r12, 24(%rsp)
	movq	%r15, 32(%rsp)
	movq	%r15, 16(%r14)
	movdqa	16(%rsp), %xmm0
	movdqu	%xmm0, (%r14)
	leaq	40(%r13), %rdi
	movq	cFInstance$__iData_Binary_get_Jhc_Type_Basic_Char$d2(%rip), %rsi
	callq	s_alloc
	movq	%rax, %rbx
	movq	$E__fInstance$__iData_Binary_get_Jhc_Type_Basic_Char$d2+3, (%rbx)
	movq	%rbp, 8(%rbx)
	orq	$1, %rbx
	movq	%rbx, 40(%r13)
	leaq	48(%r13), %rdi
	movq	cCJhc_Prim_Prim_$LccR(%rip), %rsi
	callq	s_alloc
	movq	%rax, %rbp
	movq	%rbx, (%rbp)
	movq	%r15, 8(%rbp)
	movq	%r12, 16(%rbp)
.LBB37_122:
	movq	%rbp, 48(%r13)
	addq	$56, %r13
	jmp	.LBB37_247
.LBB37_123:
	movq	8(%rsi), %rbx
	movq	16(%rsi), %rsi
	movq	%rbx, (%r13)
	addq	$8, %r13
	movq	%r13, %rdi
	callq	eval
	movq	(%rax), %rcx
	movl	$12517378, %esi         # imm = 0xBF0002
.LBB37_124:
	movq	%r13, %rdi
	movq	%rbx, %rdx
	addq	$168, %rsp
	popq	%rbx
	popq	%r12
	popq	%r13
	popq	%r14
	popq	%r15
	popq	%rbp
	jmp	fW$__fData_Binary_getStorable # TAILCALL
.LBB37_125:
	movq	32(%rsi), %r15
	movq	8(%rsi), %rax
	movq	16(%rsi), %r14
	movq	24(%rsi), %rbx
	movq	%rbx, 48(%rsp)
	movq	%r14, 56(%rsp)
	movdqa	48(%rsp), %xmm0
	movdqu	%xmm0, (%r13)
	leaq	16(%r13), %rbp
	movq	%rbp, %rdi
	movq	%rax, %rsi
	movq	%rbx, %rdx
	callq	bapply__84437
	movq	%rbp, %rdi
	movq	%rax, %rsi
	callq	bapply__84438
	movq	%r14, 16(%r13)
	addq	$24, %r13
	movq	cFW$__fInstance$__iData_Binary_put_Hos_Storage_Msg_StorageResponse$d6(%rip), %rsi
	movq	%r13, %rdi
	callq	s_alloc
	movq	$E__fW$__fInstance$__iData_Binary_put_Hos_Storage_Msg_StorageResponse$d6+3, (%rax)
.LBB37_126:
	movq	%r15, 16(%rax)
	movq	%rbx, 8(%rax)
.LBB37_127:
	orq	$1, %rax
	movq	%r13, %rdi
	movq	%r14, %rsi
.LBB37_128:
	movq	%rax, %rdx
.LBB37_129:
	callq	bapply__84437
	movq	%r13, %rdi
.LBB37_130:
	movq	%rax, %rsi
	callq	bapply__84438
	jmp	.LBB37_249
.LBB37_131:
	movq	32(%rsi), %rax
	movq	8(%rsi), %rdx
	movq	16(%rsi), %rcx
	movq	24(%rsi), %r8
	movq	%r13, %rdi
	movq	%rax, %rsi
	addq	$168, %rsp
	popq	%rbx
	popq	%r12
	popq	%r13
	popq	%r14
	popq	%r15
	popq	%rbp
	jmp	fW$__fInstance$__iData_Binary_put_Jhc_Prim_Prim_$BEd5 # TAILCALL
.LBB37_132:
	movq	8(%rsi), %rbp
	movq	16(%rsi), %r14
	movq	24(%rsi), %r15
	movq	%r15, 16(%rsp)
	movq	%r14, 24(%rsp)
.LBB37_133:
	movq	%rbp, 32(%rsp)
	movq	%rbp, 16(%r13)
	movdqa	16(%rsp), %xmm0
	movdqu	%xmm0, (%r13)
	leaq	24(%r13), %rdi
	movq	cCJhc_Prim_Prim_$LccR(%rip), %rsi
	callq	s_alloc
	movq	%rax, %rbx
	movq	%rbp, (%rbx)
	movq	%r14, 8(%rbx)
	movq	%r15, 16(%rbx)
.LBB37_134:
	movq	%rbx, 24(%r13)
	addq	$32, %r13
	jmp	.LBB37_145
.LBB37_135:
	movq	8(%rsi), %rbp
	jmp	.LBB37_138
.LBB37_136:
	movq	8(%rsi), %rax
	movq	16(%rsi), %rdx
	movq	%r13, %rdi
	movq	%rax, %rsi
	addq	$168, %rsp
	popq	%rbx
	popq	%r12
	popq	%r13
	popq	%r14
	popq	%r15
	popq	%rbp
	jmp	fInstance$__iData_Binary_get_Jhc_Prim_Prim_Bool # TAILCALL
.LBB37_137:
	movq	8(%rsi), %rax
	movq	8(%rax), %rbp
.LBB37_138:
	movq	%rbp, (%r13)
	leaq	8(%r13), %rdi
	movq	cFInstance$__iJhc_Show_show_default(%rip), %rsi
	callq	s_alloc
	movq	%rax, %rbx
	movq	$E__fInstance$__iJhc_Show_show_default+3, (%rbx)
	movq	$12713986, 8(%rbx)      # imm = 0xC20002
	movq	%rbp, 16(%rbx)
	orq	$1, %rbx
	movq	%rbx, 8(%r13)
	leaq	16(%r13), %rdi
	movq	cFJhc_Basics_$pp(%rip), %rsi
	callq	s_alloc
	movq	%rax, %rbp
	movq	$E__fJhc_Basics_$pp+3, (%rbp)
	movl	$_c319, %eax
	jmp	.LBB37_148
.LBB37_139:
	movq	8(%rsi), %rbx
	movq	16(%rsi), %rsi
	movq	%rbx, (%r13)
	leaq	8(%r13), %r14
	movq	%r14, %rdi
	callq	eval
	movq	(%rax), %rcx
	movl	$12582914, %esi         # imm = 0xC00002
	movq	%r14, %rdi
	movq	%rbx, %rdx
	callq	fW$__fData_Binary_getStorable
	movq	%rax, %rcx
	testb	$2, %al
	jne	.LBB37_141
# %bb.140:
	movq	(%rax), %rcx
.LBB37_141:
	cmpq	$65535, %rcx            # imm = 0xFFFF
	jbe	.LBB37_154
# %bb.142:
	movq	8(%rax), %rsi
	movq	%r14, %rdi
	callq	eval
	movq	(%rax), %rbp
	movq	8(%rax), %r14
	movq	16(%rax), %r15
	movq	%r15, 8(%r13)
	movq	%rbp, 16(%r13)
	movq	%r14, 24(%r13)
	leaq	32(%r13), %rdi
	movq	cCHos_Init_Msg_InitFoundProvider(%rip), %rsi
	callq	s_alloc
	movq	%rax, %rbx
	movq	%rbp, (%rbx)
	movq	%rbx, 32(%r13)
	leaq	40(%r13), %rdi
	movq	cCJhc_Prim_Prim_$LccR(%rip), %rsi
	callq	s_alloc
	movq	%rax, %rbp
	movq	%rbx, (%rbp)
	movq	%r14, 8(%rbp)
	movq	%r15, 16(%rbp)
	movq	%rbp, 40(%r13)
	addq	$48, %r13
	jmp	.LBB37_247
.LBB37_143:
	movq	8(%rsi), %rbp
	movq	16(%rsi), %r14
	movq	%rbp, 48(%rsp)
	movq	%r14, 56(%rsp)
	movdqa	48(%rsp), %xmm0
	movdqu	%xmm0, (%r13)
	leaq	16(%r13), %rdi
	movq	cCJhc_Prim_Prim_$LccR(%rip), %rsi
	callq	s_alloc
	movq	%rax, %rbx
	movq	$196610, (%rbx)         # imm = 0x30002
.LBB37_144:
	movq	%rbp, 8(%rbx)
	movq	%r14, 16(%rbx)
	movq	%rbx, 16(%r13)
	addq	$24, %r13
.LBB37_145:
	movq	cCJhc_Type_Basic_Right(%rip), %rsi
	movq	%r13, %rdi
	callq	s_alloc
	movq	$65538, (%rax)          # imm = 0x10002
	movq	%rbx, 8(%rax)
	jmp	.LBB37_249
.LBB37_146:
	movq	8(%rsi), %rax
	movq	8(%rax), %rbp
.LBB37_147:
	movq	%rbp, (%r13)
	leaq	8(%r13), %rdi
	movq	cFInstance$__iJhc_Show_show_default(%rip), %rsi
	callq	s_alloc
	movq	%rax, %rbx
	movq	$E__fInstance$__iJhc_Show_show_default+3, (%rbx)
	movq	$12517378, 8(%rbx)      # imm = 0xBF0002
	movq	%rbp, 16(%rbx)
	orq	$1, %rbx
	movq	%rbx, 8(%r13)
	leaq	16(%r13), %rdi
	movq	cFJhc_Basics_$pp(%rip), %rsi
	callq	s_alloc
	movq	%rax, %rbp
	movq	$E__fJhc_Basics_$pp+3, (%rbp)
	movl	$_c298, %eax
.LBB37_148:
	movq	%rax, %xmm0
	movdqa	.LCPI37_0(%rip), %xmm1  # xmm1 = <2,u>
	punpcklqdq	%xmm0, %xmm1    # xmm1 = xmm1[0],xmm0[0]
	movdqu	%xmm1, 8(%rbp)
	movq	%rbx, 24(%rbp)
	orq	$1, %rbp
	movq	%rbp, 16(%r13)
	addq	$24, %r13
	movq	cCJhc_Type_Basic_Left(%rip), %rsi
	movq	%r13, %rdi
	callq	s_alloc
	movq	$2, (%rax)
	jmp	.LBB37_248
.LBB37_149:
	movq	8(%rax), %rsi
	movq	%r15, %rdi
	callq	eval
	movq	(%rax), %rsi
	movq	8(%rax), %r12
	movq	16(%rax), %rbp
	movq	%r12, 48(%rsp)
	movq	%rbp, 56(%rsp)
	movdqa	48(%rsp), %xmm0
	movdqu	%xmm0, (%r15)
	leaq	40(%r13), %r15
	movq	%r15, %rdi
	callq	eval
	cmpl	$-1, (%rax)
	je	.LBB37_168
# %bb.150:
	movl	$_c393, %eax
	jmp	.LBB37_249
.LBB37_151:
	movq	8(%rax), %rsi
	movq	%r13, %rdi
	callq	eval
	movq	(%rax), %rbp
	movq	8(%rax), %rdx
	movq	16(%rax), %rcx
	movq	%rbp, (%r13)
	leaq	8(%r13), %r14
	movl	$12255234, %esi         # imm = 0xBB0002
	movq	%r14, %rdi
	callq	fInstance$__iData_Binary_get_Jhc_Prim_Prim_$BE
	movq	%rax, %rcx
	testb	$2, %al
	jne	.LBB37_153
# %bb.152:
	movq	(%rax), %rcx
.LBB37_153:
	cmpq	$65535, %rcx            # imm = 0xFFFF
	ja	.LBB37_160
.LBB37_154:
	movq	8(%rax), %rbx
	movq	%rbx, 8(%r13)
	addq	$16, %r13
	jmp	.LBB37_164
.LBB37_155:
	shrq	$2, %rax
	cmpb	$-2, %al
	je	.LBB37_236
# %bb.156:
	testb	%al, %al
	je	.LBB37_235
# %bb.157:
	cmpb	$1, %al
	jne	.LBB37_237
# %bb.158:
	movl	$10551298, %esi         # imm = 0xA10002
	jmp	.LBB37_238
.LBB37_159:
	movq	8(%rax), %rsi
	movq	%r15, %rdi
	callq	eval
	movq	(%rax), %rbp
	movq	8(%rax), %r12
	movq	16(%rax), %rax
	movq	%rax, 8(%rsp)           # 8-byte Spill
	movq	%r12, 128(%rsp)
	movq	%rax, 136(%rsp)
	movq	%rbp, 144(%rsp)
	movq	%rbp, 16(%r15)
	movdqa	128(%rsp), %xmm0
	movdqu	%xmm0, (%r15)
	leaq	72(%r13), %rdi
	movq	cCJhc_Prim_Prim_$LcR(%rip), %rsi
	callq	s_alloc
	movq	%rax, %r14
	movq	%rbx, (%r14)
	movq	%rbp, 8(%r14)
	movq	%r14, 72(%r13)
	leaq	80(%r13), %rdi
	movq	cCJhc_Prim_Prim_$LccR(%rip), %rsi
	callq	s_alloc
	movq	%rax, %rbp
	movq	%r14, (%rbp)
	movq	%r12, 8(%rbp)
	movq	8(%rsp), %rax           # 8-byte Reload
	movq	%rax, 16(%rbp)
	movq	%rbp, 80(%r13)
	addq	$88, %r13
	jmp	.LBB37_247
.LBB37_160:
	movq	8(%rax), %rsi
	movq	%r14, %rdi
	callq	eval
	movq	(%rax), %r15
	movq	8(%rax), %rdx
	movq	16(%rax), %rcx
	movq	%r15, 8(%r13)
	leaq	16(%r13), %r14
	movl	$11141122, %esi         # imm = 0xAA0002
	movq	%r14, %rdi
	callq	fInstance$__iData_Binary_get_Jhc_Type_Basic_Maybe
	movq	%rax, %rcx
	testb	$2, %al
	jne	.LBB37_162
# %bb.161:
	movq	(%rax), %rcx
.LBB37_162:
	cmpq	$65535, %rcx            # imm = 0xFFFF
	ja	.LBB37_177
.LBB37_163:
	movq	8(%rax), %rbx
	movq	%rbx, 16(%r13)
	addq	$24, %r13
.LBB37_164:
	movq	cCJhc_Type_Basic_Left(%rip), %rsi
	movq	%r13, %rdi
	callq	s_alloc
	movq	$2, (%rax)
	movq	%rbx, 8(%rax)
	jmp	.LBB37_249
.LBB37_165:
	shrq	$2, %rax
	movzwl	%ax, %ecx
	cmpl	$1, %ecx
	je	.LBB37_232
# %bb.166:
	testw	%ax, %ax
	jne	.LBB37_233
# %bb.167:
	movl	$10354690, %esi         # imm = 0x9E0002
	jmp	.LBB37_234
.LBB37_168:
	movq	%r15, %rdi
	movq	%rbp, %rsi
	callq	eval
	movq	(%rax), %rcx
	movl	$12582914, %esi         # imm = 0xC00002
	movq	%r15, %rdi
	movq	%r12, %rdx
	callq	fW$__fData_Binary_getStorable
	movq	%rax, %rcx
	testb	$2, %al
	jne	.LBB37_170
# %bb.169:
	movq	(%rax), %rcx
.LBB37_170:
	cmpq	$65535, %rcx            # imm = 0xFFFF
	jbe	.LBB37_215
# %bb.171:
	movq	8(%rax), %rsi
	movq	%r15, %rdi
	callq	eval
	movq	(%rax), %rbx
	movq	8(%rax), %r12
	movq	16(%rax), %rbp
	movq	%r12, 16(%rsp)
	movq	%rbx, 24(%rsp)
	movq	%rbp, 32(%rsp)
	movq	%rbp, 16(%r15)
	movdqa	16(%rsp), %xmm0
	movdqu	%xmm0, (%r15)
	leaq	64(%r13), %r15
	movl	$_g954484327+1, %esi
	movq	%r15, %rdi
	callq	eval
	movq	%r15, %rdi
	movq	%rax, %rsi
	movq	%r12, %rdx
	callq	bapply__84437
	movq	%r15, %rdi
	movq	%rax, %rsi
	movq	%rbp, %rdx
	callq	bapply__84437
	movq	%r15, %rdi
	movq	%rax, %rsi
	callq	bapply__84438
	movq	%r15, %rdi
	movq	%rax, %rsi
	callq	eval
	movq	%rax, %rcx
	testb	$2, %al
	jne	.LBB37_173
# %bb.172:
	movq	(%rax), %rcx
.LBB37_173:
	cmpq	$65535, %rcx            # imm = 0xFFFF
	ja	.LBB37_239
# %bb.174:
	movq	8(%rax), %rbx
	movq	%rbx, 64(%r13)
	addq	$72, %r13
	jmp	.LBB37_164
.LBB37_175:
	movq	8(%rax), %rsi
	movq	%r15, %rdi
	callq	eval
	movq	(%rax), %r14
	movq	%rbx, 104(%rsp)         # 8-byte Spill
	movq	8(%rax), %rbx
	movq	16(%rax), %r12
	movq	%r12, 64(%rsp)
	movq	%r14, 72(%rsp)
	movq	%rbx, 80(%rsp)
	movq	%rbx, 16(%r15)
	movdqa	64(%rsp), %xmm0
	movdqu	%xmm0, (%r15)
	leaq	80(%r13), %rdi
	movq	cCHos_Common_Bundle_BundleItem(%rip), %rsi
	callq	s_alloc
	movq	%rax, %rbp
	movq	104(%rsp), %rax         # 8-byte Reload
	movq	%rax, (%rbp)
	movq	8(%rsp), %rax           # 8-byte Reload
	movq	%rax, 8(%rbp)
	movq	%r14, 16(%rbp)
	movq	%rbp, 80(%r13)
	leaq	88(%r13), %rdi
	movq	cCJhc_Prim_Prim_$LccR(%rip), %rsi
	callq	s_alloc
	movq	%rax, %r14
	movq	%rbp, (%r14)
	movq	%rbx, 8(%r14)
	movq	%r12, 16(%r14)
	movq	%r14, 88(%r13)
	addq	$96, %r13
.LBB37_176:
	movq	cCJhc_Type_Basic_Right(%rip), %rsi
	movq	%r13, %rdi
	callq	s_alloc
	movq	$65538, (%rax)          # imm = 0x10002
	movq	%r14, 8(%rax)
	jmp	.LBB37_249
.LBB37_177:
	movq	8(%rax), %rsi
	movq	%r14, %rdi
	callq	eval
	movq	(%rax), %rbx
	movq	8(%rax), %rsi
	movq	16(%rax), %rdx
	movq	%rbx, 16(%r13)
	leaq	24(%r13), %r14
	movq	%r14, %rdi
	callq	fInstance$__iData_Binary_get_Jhc_Prim_Prim_Bool
	movq	%rax, %rcx
	testb	$2, %al
	jne	.LBB37_179
# %bb.178:
	movq	(%rax), %rcx
.LBB37_179:
	cmpq	$65535, %rcx            # imm = 0xFFFF
	jbe	.LBB37_96
# %bb.180:
	movq	8(%rax), %rsi
	movq	%r14, %rdi
	callq	eval
	movq	(%rax), %r12
	movq	8(%rax), %rcx
	movq	%rcx, 8(%rsp)           # 8-byte Spill
	movq	16(%rax), %rax
	movq	%rax, 104(%rsp)         # 8-byte Spill
	movq	%rcx, 16(%rsp)
	movq	%rax, 24(%rsp)
	movq	%r12, 32(%rsp)
	movq	%r12, 16(%r14)
	movdqa	16(%rsp), %xmm0
	movdqu	%xmm0, (%r14)
	leaq	48(%r13), %rdi
	movq	cCHos_Common_Bundle_TagDescriptor(%rip), %rsi
	callq	s_alloc
	movq	%rbx, %rcx
	movq	%rax, %rbx
	movq	%rbp, (%rbx)
	movq	%r15, 8(%rbx)
	movq	%rcx, 16(%rbx)
	movq	%r12, 24(%rbx)
	movq	%rbx, 48(%r13)
	leaq	56(%r13), %rdi
	movq	cCJhc_Prim_Prim_$LccR(%rip), %rsi
	callq	s_alloc
	movq	%rax, %rbp
	movq	%rbx, (%rbp)
	movq	8(%rsp), %rax           # 8-byte Reload
	movq	%rax, 8(%rbp)
	movq	104(%rsp), %rax         # 8-byte Reload
	movq	%rax, 16(%rbp)
	jmp	.LBB37_226
.LBB37_181:
	movq	8(%rax), %rsi
	movq	%r14, %rdi
	callq	eval
	movq	(%rax), %r15
	movq	8(%rax), %rdx
	movq	16(%rax), %rcx
	movq	%r15, 32(%r13)
	leaq	40(%r13), %r14
	movl	$_c3, %esi
	movq	%r14, %rdi
	callq	fInstance$__iData_Binary_get_Jhc_Prim_Prim_$BE
	movq	%rax, %rcx
	testb	$2, %al
	jne	.LBB37_183
# %bb.182:
	movq	(%rax), %rcx
.LBB37_183:
	cmpq	$65535, %rcx            # imm = 0xFFFF
	jbe	.LBB37_215
# %bb.184:
	movq	8(%rax), %rsi
	movq	%r14, %rdi
	callq	eval
	movq	(%rax), %rbp
	movq	8(%rax), %r12
	movq	16(%rax), %rax
	movq	%rax, 8(%rsp)           # 8-byte Spill
	movq	%rbp, 64(%rsp)
	movq	%rax, 72(%rsp)
	movq	%r12, 80(%rsp)
	movq	%r12, 16(%r14)
	movdqa	64(%rsp), %xmm0
	movdqu	%xmm0, (%r14)
	leaq	64(%r13), %rdi
	movq	cCHos_Init_Msg_InitSendArgs(%rip), %rsi
	callq	s_alloc
	movq	%rax, %rbx
	movq	$131074, (%rbx)         # imm = 0x20002
	jmp	.LBB37_245
.LBB37_185:
	testl	$1020, %eax             # imm = 0x3FC
	jne	.LBB37_251
# %bb.186:
	movq	%r15, 24(%r13)
	movq	%r12, 32(%r13)
	jmp	.LBB37_231
.LBB37_187:
	movq	%r14, %rdi
	movq	%r12, %rsi
	callq	eval
	movq	(%rax), %rcx
	movl	$12582914, %esi         # imm = 0xC00002
	movq	%r14, %rdi
	movq	%r15, %rdx
	callq	fW$__fData_Binary_getStorable
	movq	%rax, %rcx
	testb	$2, %al
	jne	.LBB37_189
# %bb.188:
	movq	(%rax), %rcx
.LBB37_189:
	cmpq	$65535, %rcx            # imm = 0xFFFF
	jbe	.LBB37_96
# %bb.190:
	movq	8(%rax), %rsi
	movq	%r14, %rdi
	callq	eval
	movq	(%rax), %rbp
	movq	8(%rax), %r14
	movq	16(%rax), %r15
	movq	%rbp, 24(%r13)
	movq	%r15, 32(%r13)
	movq	%r14, 40(%r13)
	leaq	48(%r13), %rdi
	movq	cCHos_Storage_Msg_StorageStartedTask(%rip), %rsi
	callq	s_alloc
	movq	%rax, %rbx
	movq	$262146, (%rbx)         # imm = 0x40002
	jmp	.LBB37_225
.LBB37_191:
	movq	%r14, %rdi
	movq	%r12, %rsi
	callq	eval
	movq	(%rax), %rdx
	movq	%r14, %rdi
	movq	%r15, %rsi
	callq	fW$__fInstance$__iData_Binary_get_Hos_Storage_Msg_ObId
	movq	%rax, %rcx
	testb	$2, %al
	jne	.LBB37_193
# %bb.192:
	movq	(%rax), %rcx
.LBB37_193:
	cmpq	$65535, %rcx            # imm = 0xFFFF
	jbe	.LBB37_96
# %bb.194:
	movq	8(%rax), %rsi
	movq	%r14, %rdi
	callq	eval
	movq	(%rax), %r15
	movq	8(%rax), %rdx
	movq	16(%rax), %rcx
	movq	%r15, 24(%r13)
	leaq	32(%r13), %r14
	movl	$_c3, %esi
	movq	%r14, %rdi
	callq	fInstance$__iData_Binary_get_Jhc_Prim_Prim_$BE
	movq	%rax, %rcx
	testb	$2, %al
	jne	.LBB37_196
# %bb.195:
	movq	(%rax), %rcx
.LBB37_196:
	cmpq	$65535, %rcx            # imm = 0xFFFF
	jbe	.LBB37_113
# %bb.197:
	movq	8(%rax), %rsi
	movq	%r14, %rdi
	callq	eval
	movq	(%rax), %rbp
	movq	8(%rax), %r12
	movq	16(%rax), %rax
	movq	%rax, 8(%rsp)           # 8-byte Spill
	movq	%rax, 16(%rsp)
	movq	%r12, 24(%rsp)
	movq	%rbp, 32(%rsp)
	movq	%rbp, 16(%r14)
	movdqa	16(%rsp), %xmm0
	movdqu	%xmm0, (%r14)
	leaq	56(%r13), %rdi
	movq	cCHos_Storage_Msg_StorageExecute(%rip), %rsi
	callq	s_alloc
	movq	%rax, %rbx
	movq	$458754, (%rbx)         # imm = 0x70002
	movq	%r15, 8(%rbx)
	movq	%rbp, 16(%rbx)
	movq	%rbx, 56(%r13)
	leaq	64(%r13), %rdi
	movq	cCJhc_Prim_Prim_$LccR(%rip), %rsi
	callq	s_alloc
	movq	%rax, %rbp
	movq	%rbx, (%rbp)
	movq	%r12, 8(%rbp)
	movq	8(%rsp), %rax           # 8-byte Reload
	movq	%rax, 16(%rbp)
	movq	%rbp, 64(%r13)
	addq	$72, %r13
	jmp	.LBB37_247
.LBB37_198:
	movq	%r14, %rdi
	movq	%r12, %rsi
	callq	eval
	movq	(%rax), %rdx
	movq	%r14, %rdi
	movq	%r15, %rsi
	callq	fW$__fInstance$__iData_Binary_get_Hos_Storage_Msg_TxId
	movq	%rax, %rcx
	testb	$2, %al
	jne	.LBB37_200
# %bb.199:
	movq	(%rax), %rcx
.LBB37_200:
	cmpq	$65535, %rcx            # imm = 0xFFFF
	jbe	.LBB37_96
# %bb.201:
	movq	8(%rax), %rsi
	movq	%r14, %rdi
	callq	eval
	movq	(%rax), %rbp
	movq	8(%rax), %r15
	movq	16(%rax), %r12
	movq	%r15, 128(%rsp)
	movq	%rbp, 136(%rsp)
	movq	%r12, 144(%rsp)
	movq	%r12, 16(%r14)
	movdqa	128(%rsp), %xmm0
	movdqu	%xmm0, (%r14)
	leaq	48(%r13), %rdi
	movq	cCHos_Storage_Msg_StorageTransactionStatus(%rip), %rsi
	callq	s_alloc
	movq	%rax, %rbx
	movq	$196610, (%rbx)         # imm = 0x30002
	jmp	.LBB37_220
.LBB37_202:
	movq	%r14, %rdi
	movq	%r12, %rsi
	callq	eval
	movq	(%rax), %rdx
	movq	%r14, %rdi
	movq	%r15, %rsi
	callq	fW$__fInstance$__iData_Binary_get_Hos_Storage_Msg_TxId
	movq	%rax, %rcx
	testb	$2, %al
	jne	.LBB37_204
# %bb.203:
	movq	(%rax), %rcx
.LBB37_204:
	cmpq	$65535, %rcx            # imm = 0xFFFF
	jbe	.LBB37_96
# %bb.205:
	movq	8(%rax), %rsi
	movq	%r14, %rdi
	callq	eval
	movq	(%rax), %r15
	movq	8(%rax), %rbx
	movq	16(%rax), %rsi
	movq	%r15, 24(%r13)
	movq	%rbx, 32(%r13)
	leaq	40(%r13), %r14
	movq	%r14, %rdi
	callq	eval
	movq	(%rax), %rdx
	movq	%r14, %rdi
	movq	%rbx, %rsi
	callq	fW$__fInstance$__iData_Binary_get_Hos_Storage_Msg_TxStatus
	movq	%rax, %rcx
	testb	$2, %al
	jne	.LBB37_207
# %bb.206:
	movq	(%rax), %rcx
.LBB37_207:
	cmpq	$65535, %rcx            # imm = 0xFFFF
	jbe	.LBB37_215
# %bb.208:
	movq	8(%rax), %rsi
	movq	%r14, %rdi
	callq	eval
	movq	(%rax), %rbp
	movq	8(%rax), %r14
	movq	16(%rax), %r12
	movq	%rbp, 40(%r13)
	movq	%r12, 48(%r13)
	movq	%r14, 56(%r13)
	leaq	64(%r13), %rdi
	movq	cCHos_Storage_Msg_StorageTransaction(%rip), %rsi
	callq	s_alloc
	movq	%rax, %rbx
	movq	$65538, (%rbx)          # imm = 0x10002
	movq	%r15, 8(%rbx)
	movq	%rbp, 16(%rbx)
	movq	%rbx, 64(%r13)
	leaq	72(%r13), %rdi
	movq	cCJhc_Prim_Prim_$LccR(%rip), %rsi
	callq	s_alloc
	movq	%rax, %rbp
	movq	%rbx, (%rbp)
	movq	%r14, 8(%rbp)
	movq	%r12, 16(%rbp)
	jmp	.LBB37_246
.LBB37_209:
	movq	%r14, %rdi
	movq	%r12, %rsi
	callq	eval
	movq	(%rax), %rdx
	movq	%r14, %rdi
	movq	%r15, %rsi
	callq	fW$__fInstance$__iData_Binary_get_Hos_Storage_Msg_TxId
	movq	%rax, %rcx
	testb	$2, %al
	jne	.LBB37_211
# %bb.210:
	movq	(%rax), %rcx
.LBB37_211:
	cmpq	$65535, %rcx            # imm = 0xFFFF
	jbe	.LBB37_96
# %bb.212:
	movq	8(%rax), %rsi
	movq	%r14, %rdi
	callq	eval
	movq	(%rax), %r15
	movq	8(%rax), %rbx
	movq	16(%rax), %rsi
	movq	%rbx, 112(%rsp)
	movq	%r15, 120(%rsp)
	movdqa	112(%rsp), %xmm0
	movdqu	%xmm0, (%r14)
	leaq	40(%r13), %r14
	movq	%r14, %rdi
	callq	eval
	movq	(%rax), %rdx
	movq	%r14, %rdi
	movq	%rbx, %rsi
	callq	fW$__fR$__fInstance$__iData_Binary_get_Hos_Storage_Msg_StorageQuery
	movq	%rax, %rcx
	testb	$2, %al
	jne	.LBB37_214
# %bb.213:
	movq	(%rax), %rcx
.LBB37_214:
	cmpq	$65535, %rcx            # imm = 0xFFFF
	ja	.LBB37_244
.LBB37_215:
	movq	8(%rax), %rbx
	movq	%rbx, 40(%r13)
	addq	$48, %r13
	jmp	.LBB37_164
.LBB37_216:
	movq	%r14, %rdi
	movq	%r12, %rsi
	callq	eval
	movq	(%rax), %rdx
	movq	%r14, %rdi
	movq	%r15, %rsi
	callq	fW$__fInstance$__iData_Binary_get_Hos_Storage_Msg_TxId
	movq	%rax, %rcx
	testb	$2, %al
	jne	.LBB37_218
# %bb.217:
	movq	(%rax), %rcx
.LBB37_218:
	cmpq	$65535, %rcx            # imm = 0xFFFF
	jbe	.LBB37_96
# %bb.219:
	movq	8(%rax), %rsi
	movq	%r14, %rdi
	callq	eval
	movq	(%rax), %rbp
	movq	8(%rax), %r15
	movq	16(%rax), %r12
	movq	%rbp, 64(%rsp)
	movq	%r12, 72(%rsp)
	movq	%r15, 80(%rsp)
	movq	%r15, 16(%r14)
	movdqa	64(%rsp), %xmm0
	movdqu	%xmm0, (%r14)
	leaq	48(%r13), %rdi
	movq	cCHos_Storage_Msg_StorageAbortTransaction(%rip), %rsi
	callq	s_alloc
	movq	%rax, %rbx
	movq	$131074, (%rbx)         # imm = 0x20002
.LBB37_220:
	movq	%rbp, 8(%rbx)
	movq	%rbx, 48(%r13)
	leaq	56(%r13), %rdi
	movq	cCJhc_Prim_Prim_$LccR(%rip), %rsi
	callq	s_alloc
	movq	%rax, %rbp
	movq	%rbx, (%rbp)
	movq	%r15, 8(%rbp)
	movq	%r12, 16(%rbp)
	jmp	.LBB37_226
.LBB37_221:
	movq	%r14, %rdi
	movq	%r12, %rsi
	callq	eval
	movq	(%rax), %rdx
	movq	%r14, %rdi
	movq	%r15, %rsi
	callq	fW$__fInstance$__iData_Binary_get_Hos_Storage_Msg_ObId
	movq	%rax, %rcx
	testb	$2, %al
	jne	.LBB37_223
# %bb.222:
	movq	(%rax), %rcx
.LBB37_223:
	cmpq	$65535, %rcx            # imm = 0xFFFF
	jbe	.LBB37_96
# %bb.224:
	movq	8(%rax), %rsi
	movq	%r14, %rdi
	callq	eval
	movq	(%rax), %rbp
	movq	8(%rax), %r14
	movq	16(%rax), %r15
	movq	%r14, 24(%r13)
	movq	%rbp, 32(%r13)
	movq	%r15, 40(%r13)
	leaq	48(%r13), %rdi
	movq	cCHos_Storage_Msg_StorageQueryResult(%rip), %rsi
	callq	s_alloc
	movq	%rax, %rbx
	movq	$131074, (%rbx)         # imm = 0x20002
.LBB37_225:
	movq	%rbp, 8(%rbx)
	movq	%rbx, 48(%r13)
	leaq	56(%r13), %rdi
	movq	cCJhc_Prim_Prim_$LccR(%rip), %rsi
	callq	s_alloc
	movq	%rax, %rbp
	movq	%rbx, (%rbp)
	movq	%r14, 8(%rbp)
	movq	%r15, 16(%rbp)
.LBB37_226:
	movq	%rbp, 56(%r13)
	addq	$64, %r13
	jmp	.LBB37_247
.LBB37_227:
	movq	cCJhc_Prim_Prim_$LccR(%rip), %rsi
	movq	%r14, %rdi
	callq	s_alloc
	movq	%rax, %rbx
	movq	$196610, (%rbx)         # imm = 0x30002
.LBB37_228:
	movq	%r15, 8(%rbx)
	movq	%r12, 16(%rbx)
	jmp	.LBB37_134
.LBB37_229:
	testl	$1020, %eax             # imm = 0x3FC
	jne	.LBB37_252
# %bb.230:
	movq	%r15, 64(%rsp)
	movq	%r12, 72(%rsp)
	movdqa	64(%rsp), %xmm0
	movdqu	%xmm0, (%r14)
.LBB37_231:
	leaq	40(%r13), %rdi
	movq	cCJhc_Prim_Prim_$LccR(%rip), %rsi
	callq	s_alloc
	movq	%rax, %rbx
	movq	$2, (%rbx)
	movq	%r15, 8(%rbx)
	movq	%r12, 16(%rbx)
	movq	%rbx, 40(%r13)
	addq	$48, %r13
	jmp	.LBB37_145
.LBB37_232:
	movl	$10289154, %esi         # imm = 0x9D0002
	jmp	.LBB37_234
.LBB37_233:
	movq	cP1__W$__fInstance$__iData_Binary_get_Hos_Init_Msg_InitMessage$d4(%rip), %rsi
	movq	%r14, %rdi
	callq	s_alloc
	movq	%rax, %rbp
	movq	$3670018, (%rbp)        # imm = 0x380002
	movq	%rbx, 8(%rbp)
	movq	%rbp, 32(%r13)
	addq	$40, %r13
	movq	cP3__W$__fInstance$__iData_Binary_get_Hos_Init_Msg_InitMessage$d5(%rip), %rsi
	movq	%r13, %rdi
	callq	s_alloc
	movq	%rax, %rsi
	movq	$10420226, (%rsi)       # imm = 0x9F0002
	movq	%rbp, 8(%rsi)
.LBB37_234:
	movq	%r14, %rdi
	movq	%r15, %rdx
	callq	bapply__84437
	movq	%r14, %rdi
	movq	%rax, %rsi
	movq	%r12, %rdx
	callq	bapply__84437
	movq	%r14, %rdi
	jmp	.LBB37_130
.LBB37_235:
	movl	$10616834, %esi         # imm = 0xA20002
	jmp	.LBB37_238
.LBB37_236:
	movl	$10485762, %esi         # imm = 0xA00002
	jmp	.LBB37_238
.LBB37_237:
	movq	cP1__W$__fInstance$__iData_Binary_get_Hos_Init_Msg_InitResponse$d5(%rip), %rsi
	movq	%r12, %rdi
	callq	s_alloc
	movq	%rax, %rbp
	movq	$3997698, (%rbp)        # imm = 0x3D0002
	movq	%rbx, 8(%rbp)
	movq	%rbp, 32(%r13)
	addq	$40, %r13
	movq	cP3__W$__fInstance$__iData_Binary_get_Hos_Init_Msg_InitResponse$d6(%rip), %rsi
	movq	%r13, %rdi
	callq	s_alloc
	movq	%rax, %rsi
	movq	$10682370, (%rsi)       # imm = 0xA30002
	movq	%rbp, 8(%rsi)
.LBB37_238:
	movq	%r12, %rdi
	movq	%r15, %rdx
	callq	bapply__84437
	movq	%r12, %rdi
	movq	%rax, %rsi
	movq	%r14, %rdx
	callq	bapply__84437
	movq	%r12, %rdi
	jmp	.LBB37_130
.LBB37_239:
	movq	8(%rax), %rsi
	movq	%r15, %rdi
	callq	eval
	movq	(%rax), %rcx
	movq	8(%rax), %rbp
	movq	16(%rax), %r12
	movq	%r12, 64(%rsp)
	movq	%rcx, 8(%rsp)           # 8-byte Spill
	movq	%rcx, 72(%rsp)
	movq	%rbp, 80(%rsp)
	movq	%rbp, 16(%r15)
	movdqa	64(%rsp), %xmm0
	movdqu	%xmm0, (%r15)
	leaq	88(%r13), %r15
	movq	%r15, %rdi
	movq	%r14, %rsi
	callq	fData_Binary_get
	movq	%r15, %rdi
	movq	%rax, %rsi
	movq	%rbp, %rdx
	callq	bapply__84437
	movq	%r15, %rdi
	movq	%rax, %rsi
	movq	%r12, %rdx
	callq	bapply__84437
	movq	%r15, %rdi
	movq	%rax, %rsi
	callq	bapply__84438
	movq	%r15, %rdi
	movq	%rax, %rsi
	callq	eval
	movq	%rax, %rcx
	testb	$2, %al
	jne	.LBB37_241
# %bb.240:
	movq	(%rax), %rcx
.LBB37_241:
	cmpq	$65535, %rcx            # imm = 0xFFFF
	ja	.LBB37_243
# %bb.242:
	movq	8(%rax), %rbx
	movq	%rbx, 88(%r13)
	addq	$96, %r13
	jmp	.LBB37_164
.LBB37_243:
	movq	8(%rax), %rsi
	movq	%r15, %rdi
	callq	eval
	movq	%rbx, %r14
	movq	(%rax), %rbx
	movq	8(%rax), %rcx
	movq	%rcx, 104(%rsp)         # 8-byte Spill
	movq	16(%rax), %r12
	movq	%rbx, 128(%rsp)
	movq	%rcx, 136(%rsp)
	movq	%r12, 144(%rsp)
	movq	%r12, 16(%r15)
	movdqa	128(%rsp), %xmm0
	movdqu	%xmm0, (%r15)
	leaq	112(%r13), %rdi
	movq	cCHos_User_IPC_RoutedMessage(%rip), %rsi
	callq	s_alloc
	movq	%rax, %rbp
	movq	8(%rsp), %rax           # 8-byte Reload
	movq	%rax, (%rbp)
	movq	%r14, 8(%rbp)
	movq	%rbx, 16(%rbp)
	movq	%rbp, 112(%r13)
	leaq	120(%r13), %rdi
	movq	cCJhc_Prim_Prim_$LccR(%rip), %rsi
	callq	s_alloc
	movq	%rax, %r14
	movq	%rbp, (%r14)
	movq	104(%rsp), %rax         # 8-byte Reload
	movq	%rax, 8(%r14)
	movq	%r12, 16(%r14)
	movq	%r14, 120(%r13)
	subq	$-128, %r13
	jmp	.LBB37_176
.LBB37_244:
	movq	8(%rax), %rsi
	movq	%r14, %rdi
	callq	eval
	movq	(%rax), %rbp
	movq	8(%rax), %r12
	movq	16(%rax), %rax
	movq	%rax, 8(%rsp)           # 8-byte Spill
	movq	%rax, 64(%rsp)
	movq	%rbp, 72(%rsp)
	movq	%r12, 80(%rsp)
	movq	%r12, 16(%r14)
	movdqa	64(%rsp), %xmm0
	movdqu	%xmm0, (%r14)
	leaq	64(%r13), %rdi
	movq	cCHos_Storage_Msg_StoragePerformQuery(%rip), %rsi
	callq	s_alloc
	movq	%rax, %rbx
	movq	$262146, (%rbx)         # imm = 0x40002
.LBB37_245:
	movq	%r15, 8(%rbx)
	movq	%rbp, 16(%rbx)
	movq	%rbx, 64(%r13)
	leaq	72(%r13), %rdi
	movq	cCJhc_Prim_Prim_$LccR(%rip), %rsi
	callq	s_alloc
	movq	%rax, %rbp
	movq	%rbx, (%rbp)
	movq	%r12, 8(%rbp)
	movq	8(%rsp), %rax           # 8-byte Reload
	movq	%rax, 16(%rbp)
.LBB37_246:
	movq	%rbp, 72(%r13)
	addq	$80, %r13
.LBB37_247:
	movq	cCJhc_Type_Basic_Right(%rip), %rsi
	movq	%r13, %rdi
	callq	s_alloc
	movq	$65538, (%rax)          # imm = 0x10002
.LBB37_248:
	movq	%rbp, 8(%rax)
.LBB37_249:
	addq	$168, %rsp
	popq	%rbx
	popq	%r12
	popq	%r13
	popq	%r14
	popq	%r15
	popq	%rbp
	retq
.LBB37_250:
	movl	$8534, %edi             # imm = 0x2156
	callq	jhc_case_fell_off
.LBB37_251:
	movl	$.L.str.9, %edi
	callq	jhc_error
.LBB37_252:
	movl	$.L.str.7, %edi
	callq	jhc_error
.Lfunc_end37:
	.size	bapply__84438, .Lfunc_end37-bapply__84438
	.cfi_endproc
	.section	.rodata,"a",@progbits
	.p2align	3
.LJTI37_0:
	.quad	.LBB37_249
	.quad	.LBB37_51
	.quad	.LBB37_58
	.quad	.LBB37_83
	.quad	.LBB37_93
	.quad	.LBB37_45
	.quad	.LBB37_64
	.quad	.LBB37_250
	.quad	.LBB37_74
	.quad	.LBB37_104
	.quad	.LBB37_97
	.quad	.LBB37_25
	.quad	.LBB37_100
	.quad	.LBB37_117
	.quad	.LBB37_49
	.quad	.LBB37_106
	.quad	.LBB37_33
	.quad	.LBB37_115
	.quad	.LBB37_59
	.quad	.LBB37_84
	.quad	.LBB37_114
	.quad	.LBB37_75
	.quad	.LBB37_81
	.quad	.LBB37_105
	.quad	.LBB37_116
	.quad	.LBB37_38
	.quad	.LBB37_250
	.quad	.LBB37_32
	.quad	.LBB37_132
	.quad	.LBB37_250
	.quad	.LBB37_250
	.quad	.LBB37_136
	.quad	.LBB37_118
	.quad	.LBB37_123
	.quad	.LBB37_98
	.quad	.LBB37_82
	.quad	.LBB37_99
	.quad	.LBB37_250
	.quad	.LBB37_250
	.quad	.LBB37_18
	.quad	.LBB37_15
	.quad	.LBB37_11
	.quad	.LBB37_12
	.quad	.LBB37_4
	.quad	.LBB37_5
	.quad	.LBB37_4
	.quad	.LBB37_5
	.quad	.LBB37_4
	.quad	.LBB37_5
	.quad	.LBB37_4
	.quad	.LBB37_5
	.quad	.LBB37_4
	.quad	.LBB37_5
	.quad	.LBB37_7
	.quad	.LBB37_19
	.quad	.LBB37_44
	.quad	.LBB37_146
	.quad	.LBB37_143
	.quad	.LBB37_139
	.quad	.LBB37_13
	.quad	.LBB37_135
	.quad	.LBB37_137
	.quad	.LBB37_14
	.quad	.LBB37_125
	.quad	.LBB37_24
	.quad	.LBB37_131
	.quad	.LBB37_50
.LJTI37_1:
	.quad	.LBB37_80
	.quad	.LBB37_185
	.quad	.LBB37_202
	.quad	.LBB37_187
	.quad	.LBB37_185
	.quad	.LBB37_185
	.quad	.LBB37_185
	.quad	.LBB37_185
	.quad	.LBB37_185
	.quad	.LBB37_185
	.quad	.LBB37_185
	.quad	.LBB37_185
	.quad	.LBB37_185
	.quad	.LBB37_185
	.quad	.LBB37_185
	.quad	.LBB37_185
	.quad	.LBB37_185
	.quad	.LBB37_221
	.quad	.LBB37_227
.LJTI37_2:
	.quad	.LBB37_89
	.quad	.LBB37_216
	.quad	.LBB37_198
	.quad	.LBB37_209
	.quad	.LBB37_191
                                        # -- End function
	.text
	.p2align	4, 0x90         # -- Begin function fR$__fJhc_List_filter
	.type	fR$__fJhc_List_filter,@function
fR$__fJhc_List_filter:                  # @"fR$__fJhc_List_filter"
	.cfi_startproc
# %bb.0:
	pushq	%rbp
	.cfi_def_cfa_offset 16
	pushq	%r15
	.cfi_def_cfa_offset 24
	pushq	%r14
	.cfi_def_cfa_offset 32
	pushq	%r13
	.cfi_def_cfa_offset 40
	pushq	%r12
	.cfi_def_cfa_offset 48
	pushq	%rbx
	.cfi_def_cfa_offset 56
	subq	$24, %rsp
	.cfi_def_cfa_offset 80
	.cfi_offset %rbx, -56
	.cfi_offset %r12, -48
	.cfi_offset %r13, -40
	.cfi_offset %r14, -32
	.cfi_offset %r15, -24
	.cfi_offset %rbp, -16
	movq	%rdi, %r15
	callq	eval
	cmpq	$65538, %rax            # imm = 0x10002
	je	.LBB38_1
# %bb.2:
	leaq	16(%r15), %rbx
	leaq	24(%r15), %r14
	movl	$65538, %r12d           # imm = 0x10002
	.p2align	4, 0x90
.LBB38_3:                               # =>This Inner Loop Header: Depth=1
	movq	(%rax), %r13
	movq	8(%rax), %rbp
	movq	%r13, (%rsp)
	movq	%rbp, 8(%rsp)
	movaps	(%rsp), %xmm0
	movups	%xmm0, (%r15)
	movq	%rbx, %rdi
	movq	%r13, %rsi
	callq	eval
	movq	8(%rax), %rsi
	movq	%rbx, %rdi
	callq	eval
	movl	$_c19, %esi
	movq	%rbx, %rdi
	movq	%rax, %rdx
	callq	fMain_findTag
	cmpq	$2, %rax
	je	.LBB38_9
# %bb.4:                                #   in Loop: Header=BB38_3 Depth=1
	movq	(%rax), %rsi
	movq	%rbx, %rdi
	callq	eval
	movq	%rax, %rcx
	testb	$2, %al
	jne	.LBB38_6
# %bb.5:                                #   in Loop: Header=BB38_3 Depth=1
	movq	(%rax), %rcx
.LBB38_6:                               #   in Loop: Header=BB38_3 Depth=1
	andq	$-65536, %rcx           # imm = 0xFFFF0000
	cmpq	$131072, %rcx           # imm = 0x20000
	jne	.LBB38_9
# %bb.7:                                #   in Loop: Header=BB38_3 Depth=1
	movq	8(%rax), %rsi
	movq	%rbx, %rdi
	callq	eval
	andl	$262140, %eax           # imm = 0x3FFFC
	cmpq	$4, %rax
	je	.LBB38_8
.LBB38_9:                               #   in Loop: Header=BB38_3 Depth=1
	movq	%r15, %rdi
	movq	%rbp, %rsi
	callq	eval
	cmpq	$65538, %rax            # imm = 0x10002
	jne	.LBB38_3
	jmp	.LBB38_10
.LBB38_1:
	movl	$65538, %r12d           # imm = 0x10002
	jmp	.LBB38_10
.LBB38_8:
	movq	cFR$__fJhc_List_filter(%rip), %rsi
	movq	%rbx, %rdi
	callq	s_alloc
	movq	%rax, %r15
	movq	$E__fR$__fJhc_List_filter+3, (%r15)
	movq	%rbp, 8(%r15)
	orq	$1, %r15
	movq	%r15, (%rbx)
	movq	cCJhc_Prim_Prim_$x3a(%rip), %rsi
	movq	%r14, %rdi
	callq	s_alloc
	movq	%rax, %r12
	movq	%r13, (%r12)
	movq	%r15, 8(%r12)
.LBB38_10:
	movq	%r12, %rax
	addq	$24, %rsp
	popq	%rbx
	popq	%r12
	popq	%r13
	popq	%r14
	popq	%r15
	popq	%rbp
	retq
.Lfunc_end38:
	.size	fR$__fJhc_List_filter, .Lfunc_end38-fR$__fJhc_List_filter
	.cfi_endproc
                                        # -- End function
	.p2align	4, 0x90         # -- Begin function E__ftheMain$d5
	.type	E__ftheMain$d5,@function
E__ftheMain$d5:                         # @"E__ftheMain$d5"
	.cfi_startproc
# %bb.0:
	pushq	%r15
	.cfi_def_cfa_offset 16
	pushq	%r14
	.cfi_def_cfa_offset 24
	pushq	%rbx
	.cfi_def_cfa_offset 32
	.cfi_offset %rbx, -32
	.cfi_offset %r14, -24
	.cfi_offset %r15, -16
	movq	%rsi, %r14
	movq	%rdi, %r15
	movq	%r14, %rax
	orq	$1, %rax
	movq	%rax, (%r15)
	addq	$8, %r15
	movq	8(%r14), %rsi
	movq	%r15, %rdi
	callq	eval
	movq	(%rax), %rbx
	movq	%r15, saved_gc(%rip)
	addq	$4095, %rbx             # imm = 0xFFF
	andq	$-4096, %rbx            # imm = 0xF000
	movq	cCJhc_Type_Word_Word64(%rip), %rsi
	movq	%r15, %rdi
	callq	s_alloc
	movq	%rbx, (%rax)
	movq	%rax, (%r14)
	popq	%rbx
	popq	%r14
	popq	%r15
	retq
.Lfunc_end39:
	.size	E__ftheMain$d5, .Lfunc_end39-E__ftheMain$d5
	.cfi_endproc
                                        # -- End function
	.p2align	4, 0x90         # -- Begin function E__ftheMain$d6
	.type	E__ftheMain$d6,@function
E__ftheMain$d6:                         # @"E__ftheMain$d6"
	.cfi_startproc
# %bb.0:
	pushq	%r15
	.cfi_def_cfa_offset 16
	pushq	%r14
	.cfi_def_cfa_offset 24
	pushq	%r12
	.cfi_def_cfa_offset 32
	pushq	%rbx
	.cfi_def_cfa_offset 40
	pushq	%rax
	.cfi_def_cfa_offset 48
	.cfi_offset %rbx, -40
	.cfi_offset %r12, -32
	.cfi_offset %r14, -24
	.cfi_offset %r15, -16
	movq	%rsi, %r14
	movq	%rdi, %r12
	movq	%r14, %rax
	orq	$1, %rax
	movq	%rax, (%r12)
	addq	$8, %r12
	movq	8(%r14), %rsi
	movl	16(%r14), %r15d
	movq	%r12, %rdi
	callq	eval
	movabsq	$-824633720832, %rbx    # imm = 0xFFFFFF4000000000
	orq	%r15, %rbx
	addq	(%rax), %rbx
	movq	cCJhc_Type_Word_Word64(%rip), %rsi
	movq	%r12, %rdi
	callq	s_alloc
	movq	%rbx, (%rax)
	movq	%rax, (%r14)
	addq	$8, %rsp
	popq	%rbx
	popq	%r12
	popq	%r14
	popq	%r15
	retq
.Lfunc_end40:
	.size	E__ftheMain$d6, .Lfunc_end40-E__ftheMain$d6
	.cfi_endproc
                                        # -- End function
	.p2align	4, 0x90         # -- Begin function E__ftheMain$d7
	.type	E__ftheMain$d7,@function
E__ftheMain$d7:                         # @"E__ftheMain$d7"
	.cfi_startproc
# %bb.0:
	pushq	%r15
	.cfi_def_cfa_offset 16
	pushq	%r14
	.cfi_def_cfa_offset 24
	pushq	%rbx
	.cfi_def_cfa_offset 32
	.cfi_offset %rbx, -32
	.cfi_offset %r14, -24
	.cfi_offset %r15, -16
	movq	%rsi, %r14
	movq	%rdi, %rbx
	movq	%r14, %rax
	orq	$1, %rax
	movq	%rax, (%rbx)
	addq	$8, %rbx
	movq	8(%r14), %rsi
	movq	16(%r14), %r15
	movq	%rbx, %rdi
	callq	eval
	addq	(%rax), %r15
	movq	cCJhc_Type_Word_Word64(%rip), %rsi
	movq	%rbx, %rdi
	callq	s_alloc
	movq	%r15, (%rax)
	movq	%rax, (%r14)
	popq	%rbx
	popq	%r14
	popq	%r15
	retq
.Lfunc_end41:
	.size	E__ftheMain$d7, .Lfunc_end41-E__ftheMain$d7
	.cfi_endproc
                                        # -- End function
	.p2align	4, 0x90         # -- Begin function fW$__fHos_Storage_loadElf
	.type	fW$__fHos_Storage_loadElf,@function
fW$__fHos_Storage_loadElf:              # @"fW$__fHos_Storage_loadElf"
	.cfi_startproc
# %bb.0:
	pushq	%rbp
	.cfi_def_cfa_offset 16
	pushq	%r15
	.cfi_def_cfa_offset 24
	pushq	%r14
	.cfi_def_cfa_offset 32
	pushq	%r13
	.cfi_def_cfa_offset 40
	pushq	%r12
	.cfi_def_cfa_offset 48
	pushq	%rbx
	.cfi_def_cfa_offset 56
	subq	$88, %rsp
	.cfi_def_cfa_offset 144
	.cfi_offset %rbx, -56
	.cfi_offset %r12, -48
	.cfi_offset %r13, -40
	.cfi_offset %r14, -32
	.cfi_offset %r15, -24
	.cfi_offset %rbp, -16
	movq	%rsi, %rbp
	movq	%rdi, %r13
	movq	24(%rbp), %rax
	movq	%rax, 32(%rsp)          # 8-byte Spill
	movq	32(%rbp), %rbx
	movzwl	54(%rbp), %eax
	movw	%ax, (%rsp)             # 2-byte Spill
	movzwl	56(%rbp), %r15d
	movq	%rdx, 56(%rsp)          # 8-byte Spill
	movq	%rdx, (%r13)
	leaq	8(%r13), %r14
	movq	cCJhc_Type_Word_Int(%rip), %rsi
	movq	%r14, %rdi
	callq	s_alloc
	movq	%rax, %r12
	movl	$0, (%r12)
	testl	%r15d, %r15d
	je	.LBB42_2
# %bb.1:
	addl	$-1, %r15d
	movq	%r12, 8(%r13)
	leaq	16(%r13), %rdi
	movq	%rdi, 8(%rsp)           # 8-byte Spill
	movq	cFW$__fHos_Storage_loadElf$d2(%rip), %rsi
	callq	s_alloc
	movq	%rbx, 16(%rsp)          # 8-byte Spill
	movq	%rax, %rbx
	movq	$E__fW$__fHos_Storage_loadElf$d2+3, (%rbx)
	movl	%r15d, 8(%rbx)
	movl	$1, 12(%rbx)
	orq	$1, %rbx
	movq	%rbx, 16(%r13)
	leaq	24(%r13), %r15
	movq	cCJhc_Prim_Prim_$x3a(%rip), %rsi
	movq	%r15, %rdi
	callq	s_alloc
	movq	%rax, %rsi
	movq	%r12, (%rsi)
	movq	8(%rsp), %r12           # 8-byte Reload
	movq	%rbx, 8(%rsi)
	movq	16(%rsp), %rbx          # 8-byte Reload
	jmp	.LBB42_3
.LBB42_2:
	movl	$1, %edi
	callq	assert
	leaq	16(%r13), %r12
	leaq	24(%r13), %r15
	movl	$65538, %esi            # imm = 0x10002
.LBB42_3:
	movzwl	(%rsp), %edx            # 2-byte Folded Reload
	movq	%r14, %rdi
	movq	%rbx, %rcx
	movq	%rbp, %r8
	callq	fJhc_Monad_60__go
	movq	%rax, %rbx
	movq	%r14, saved_gc(%rip)
	movl	$6, %edi
	xorl	%esi, %esi
	xorl	%edx, %edx
	xorl	%ecx, %ecx
	xorl	%r8d, %r8d
	xorl	%r9d, %r9d
	callq	syscall
	movq	%rax, %rbp
	movq	%rbx, (%r14)
	movq	cCJhc_Type_Word_Word32(%rip), %rsi
	movq	%r12, %rdi
	callq	s_alloc
	movl	%ebp, (%rax)
	movq	%rax, 24(%rsp)          # 8-byte Spill
	movq	%rax, (%r12)
	movq	%r15, %rdi
	movq	%rbx, %rsi
	callq	eval
	cmpq	$65538, %rax            # imm = 0x10002
	movq	%r15, %rbp
	je	.LBB42_8
# %bb.4:
	leaq	32(%r13), %rcx
	movq	%rcx, 16(%rsp)          # 8-byte Spill
	leaq	56(%r13), %rcx
	movq	%rcx, (%rsp)            # 8-byte Spill
	leaq	64(%r13), %rcx
	movq	%rcx, 40(%rsp)          # 8-byte Spill
	movq	%rbp, 48(%rsp)          # 8-byte Spill
	.p2align	4, 0x90
.LBB42_5:                               # =>This Inner Loop Header: Depth=1
	movq	(%rax), %rsi
	movq	8(%rax), %r15
	movq	%r15, (%rbp)
	movq	16(%rsp), %r14          # 8-byte Reload
	movq	%r14, %rdi
	callq	eval
	movq	(%rax), %rsi
	movq	16(%rax), %r12
	movq	24(%rax), %rbx
	movq	48(%rax), %r13
	movq	%r12, 64(%rsp)
	movq	%r13, 72(%rsp)
	movq	%rbx, 80(%rsp)
	movq	%rbx, 16(%r14)
	movaps	64(%rsp), %xmm0
	movups	%xmm0, (%r14)
	movq	(%rsp), %rdi            # 8-byte Reload
	callq	eval
	andl	$262140, %eax           # imm = 0x3FFFC
	cmpq	$4, %rax
	jne	.LBB42_7
# %bb.6:                                #   in Loop: Header=BB42_5 Depth=1
	movq	(%rsp), %r14            # 8-byte Reload
	movq	%r14, %rdi
	movq	%rbx, %rsi
	callq	eval
	movq	(%rax), %rbx
	movq	%rbx, 8(%rsp)           # 8-byte Spill
	movq	%r14, %rdi
	movq	%r13, %rsi
	callq	eval
	movq	(%rax), %r13
	addq	%rbx, %r13
	movq	cFW$__fHos_Storage_loadElf$d4(%rip), %rsi
	movq	%r14, %rdi
	callq	s_alloc
	movq	%rax, %rbp
	movq	$E__fW$__fHos_Storage_loadElf$d4+3, (%rbp)
	movq	%r12, 8(%rbp)
	movq	56(%rsp), %rax          # 8-byte Reload
	movq	%rax, 16(%rbp)
	orq	$1, %rbp
	movq	%rbp, (%r14)
	movq	cCHos_Common_Types_CopyOnWrite(%rip), %rsi
	movq	40(%rsp), %rbx          # 8-byte Reload
	movq	%rbx, %rdi
	callq	s_alloc
	movq	$262146, (%rax)         # imm = 0x40002
	movq	$_c320, 8(%rax)
	movq	%rbp, 16(%rax)
	movq	48(%rsp), %rbp          # 8-byte Reload
	movq	24(%rsp), %rcx          # 8-byte Reload
	movl	(%rcx), %esi
	movq	%rbx, %rdi
	movq	8(%rsp), %rdx           # 8-byte Reload
	movq	%r13, %rcx
	movq	%rax, %r8
	callq	fW$__fW$__fHos_User_SysCall_hosAddMapping
.LBB42_7:                               #   in Loop: Header=BB42_5 Depth=1
	movq	%rbp, %rdi
	movq	%r15, %rsi
	callq	eval
	cmpq	$65538, %rax            # imm = 0x10002
	jne	.LBB42_5
.LBB42_8:
	movq	%rbp, saved_gc(%rip)
	movl	$1026, %edi             # imm = 0x402
	xorl	%esi, %esi
	xorl	%edx, %edx
	xorl	%ecx, %ecx
	xorl	%r8d, %r8d
	xorl	%r9d, %r9d
	callq	syscall
	movq	%rbp, %rbx
	movq	%rax, %rbp
	movq	24(%rsp), %rax          # 8-byte Reload
	movl	(%rax), %esi
	movq	%rbx, saved_gc(%rip)
	testl	%ebp, %ebp
	je	.LBB42_9
# %bb.10:
	movl	$4, %edi
	xorl	%edx, %edx
	xorl	%ecx, %ecx
	xorl	%r8d, %r8d
	xorl	%r9d, %r9d
	callq	syscall
	movq	%rbx, saved_gc(%rip)
	movl	$1027, %edi             # imm = 0x403
	xorl	%esi, %esi
	xorl	%edx, %edx
	xorl	%ecx, %ecx
	xorl	%r8d, %r8d
	xorl	%r9d, %r9d
	callq	syscall
	movq	cCJhc_Type_Word_Word32(%rip), %rsi
	movq	%rbx, %rdi
	callq	s_alloc
	movl	%ebp, (%rax)
	jmp	.LBB42_11
.LBB42_9:
	movl	$7, %edi
	xorl	%ecx, %ecx
	xorl	%r8d, %r8d
	xorl	%r9d, %r9d
	movq	32(%rsp), %rdx          # 8-byte Reload
	callq	syscall
	movl	$_c322, %eax
.LBB42_11:
	addq	$88, %rsp
	popq	%rbx
	popq	%r12
	popq	%r13
	popq	%r14
	popq	%r15
	popq	%rbp
	retq
.Lfunc_end42:
	.size	fW$__fHos_Storage_loadElf, .Lfunc_end42-fW$__fHos_Storage_loadElf
	.cfi_endproc
                                        # -- End function
	.p2align	4, 0x90         # -- Begin function E__fHos_User_SysCall_hosDebugLog$d2
	.type	E__fHos_User_SysCall_hosDebugLog$d2,@function
E__fHos_User_SysCall_hosDebugLog$d2:    # @"E__fHos_User_SysCall_hosDebugLog$d2"
	.cfi_startproc
# %bb.0:
	pushq	%r14
	.cfi_def_cfa_offset 16
	pushq	%rbx
	.cfi_def_cfa_offset 24
	pushq	%rax
	.cfi_def_cfa_offset 32
	.cfi_offset %rbx, -24
	.cfi_offset %r14, -16
	movq	%rsi, %rbx
	movq	%rbx, %rax
	orq	$1, %rax
	movq	%rax, (%rdi)
	addq	$8, %rdi
	movq	8(%rbx), %rax
	movq	(%rax), %r14
	movq	cCJhc_Type_Ptr_Ptr(%rip), %rsi
	callq	s_alloc
	movq	%r14, (%rax)
	movq	%rax, (%rbx)
	addq	$8, %rsp
	popq	%rbx
	popq	%r14
	retq
.Lfunc_end43:
	.size	E__fHos_User_SysCall_hosDebugLog$d2, .Lfunc_end43-E__fHos_User_SysCall_hosDebugLog$d2
	.cfi_endproc
                                        # -- End function
	.p2align	4, 0x90         # -- Begin function fHos_User_IPC_transmitMsg$d12
	.type	fHos_User_IPC_transmitMsg$d12,@function
fHos_User_IPC_transmitMsg$d12:          # @"fHos_User_IPC_transmitMsg$d12"
	.cfi_startproc
# %bb.0:
	pushq	%r15
	.cfi_def_cfa_offset 16
	pushq	%r14
	.cfi_def_cfa_offset 24
	pushq	%r12
	.cfi_def_cfa_offset 32
	pushq	%rbx
	.cfi_def_cfa_offset 40
	subq	$24, %rsp
	.cfi_def_cfa_offset 64
	.cfi_offset %rbx, -40
	.cfi_offset %r12, -32
	.cfi_offset %r14, -24
	.cfi_offset %r15, -16
	movq	%rdi, %r15
	callq	eval
	cmpq	$65538, %rax            # imm = 0x10002
	je	.LBB44_1
# %bb.2:
	movq	(%rax), %r12
	movq	8(%rax), %rbx
	movq	%rbx, (%rsp)
	movq	%r12, 8(%rsp)
	movaps	(%rsp), %xmm0
	movups	%xmm0, (%r15)
	leaq	16(%r15), %rdi
	movq	cFHos_User_IPC_transmitMsg$d12(%rip), %rsi
	callq	s_alloc
	movq	%rax, %r14
	movq	$E__fHos_User_IPC_transmitMsg$d12+3, (%r14)
	movq	%rbx, 8(%r14)
	orq	$1, %r14
	movq	%r14, 16(%r15)
	leaq	24(%r15), %rdi
	movq	cFHos_User_IPC_transmitMsg$d11(%rip), %rsi
	callq	s_alloc
	movq	%rax, %rbx
	movq	$E__fHos_User_IPC_transmitMsg$d11+3, (%rbx)
	movq	%r12, 8(%rbx)
	orq	$1, %rbx
	movq	%rbx, 24(%r15)
	addq	$32, %r15
	movq	cCJhc_Prim_Prim_$x3a(%rip), %rsi
	movq	%r15, %rdi
	callq	s_alloc
	movq	%rbx, (%rax)
	movq	%r14, 8(%rax)
	jmp	.LBB44_3
.LBB44_1:
	movl	$65538, %eax            # imm = 0x10002
.LBB44_3:
	addq	$24, %rsp
	popq	%rbx
	popq	%r12
	popq	%r14
	popq	%r15
	retq
.Lfunc_end44:
	.size	fHos_User_IPC_transmitMsg$d12, .Lfunc_end44-fHos_User_IPC_transmitMsg$d12
	.cfi_endproc
                                        # -- End function
	.p2align	4, 0x90         # -- Begin function fJhc_IO_putErrLn
	.type	fJhc_IO_putErrLn,@function
fJhc_IO_putErrLn:                       # @fJhc_IO_putErrLn
	.cfi_startproc
# %bb.0:
	pushq	%r15
	.cfi_def_cfa_offset 16
	pushq	%r14
	.cfi_def_cfa_offset 24
	pushq	%rbx
	.cfi_def_cfa_offset 32
	.cfi_offset %rbx, -32
	.cfi_offset %r14, -24
	.cfi_offset %r15, -16
	movq	%rdi, %r14
	callq	eval
	cmpq	$65538, %rax            # imm = 0x10002
	je	.LBB45_3
# %bb.1:
	leaq	8(%r14), %r15
	.p2align	4, 0x90
.LBB45_2:                               # =>This Inner Loop Header: Depth=1
	movq	(%rax), %rsi
	movq	8(%rax), %rbx
	movq	%rbx, (%r14)
	movq	%r15, %rdi
	callq	eval
	shrq	$2, %rax
	movq	%r15, saved_gc(%rip)
	movl	%eax, %edi
	callq	jhc_utf8_putchar
	movq	%r14, %rdi
	movq	%rbx, %rsi
	callq	eval
	cmpq	$65538, %rax            # imm = 0x10002
	jne	.LBB45_2
.LBB45_3:
	movq	%r14, saved_gc(%rip)
	movl	$10, %edi
	popq	%rbx
	popq	%r14
	popq	%r15
	jmp	jhc_utf8_putchar        # TAILCALL
.Lfunc_end45:
	.size	fJhc_IO_putErrLn, .Lfunc_end45-fJhc_IO_putErrLn
	.cfi_endproc
                                        # -- End function
	.p2align	4, 0x90         # -- Begin function fW$__fHos_User_SysCall_hosWaitOnChannels
	.type	fW$__fHos_User_SysCall_hosWaitOnChannels,@function
fW$__fHos_User_SysCall_hosWaitOnChannels: # @"fW$__fHos_User_SysCall_hosWaitOnChannels"
	.cfi_startproc
# %bb.0:
	pushq	%rbp
	.cfi_def_cfa_offset 16
	pushq	%r15
	.cfi_def_cfa_offset 24
	pushq	%r14
	.cfi_def_cfa_offset 32
	pushq	%r13
	.cfi_def_cfa_offset 40
	pushq	%r12
	.cfi_def_cfa_offset 48
	pushq	%rbx
	.cfi_def_cfa_offset 56
	pushq	%rax
	.cfi_def_cfa_offset 64
	.cfi_offset %rbx, -56
	.cfi_offset %r12, -48
	.cfi_offset %r13, -40
	.cfi_offset %r14, -32
	.cfi_offset %r15, -24
	.cfi_offset %rbp, -16
	movq	%rsi, %r15
	movq	%rdi, %r12
	movq	%r12, saved_gc(%rip)
	movl	$4, %edi
	callq	malloc
	movq	%rax, %r14
	movq	cCJhc_Type_Ptr_Ptr(%rip), %rsi
	movq	%r12, %rdi
	callq	s_alloc
	movq	%r14, (%rax)
	testq	%r14, %r14
	je	.LBB46_1
# %bb.2:
	movq	%r12, saved_gc(%rip)
	movl	$1, %edi
	callq	assert
	movq	%r12, saved_gc(%rip)
	movl	$259, %edi              # imm = 0x103
	movl	$1, %esi
	xorl	%r8d, %r8d
	xorl	%r9d, %r9d
	movq	%r15, %rdx
	movq	%r14, %rcx
	callq	syscall
	movq	%rax, %rbx
	btq	$32, %rbx
	jb	.LBB46_5
# %bb.3:
	movl	(%r14), %ebp
	movq	cCJhc_Type_Word_Word32(%rip), %rsi
	movq	%r12, %rdi
	callq	s_alloc
	movq	%rax, %r15
	movl	%ebp, (%r15)
	movq	%r15, (%r12)
	leaq	8(%r12), %rdi
	movq	cCJhc_Type_Word_Word32(%rip), %rsi
	callq	s_alloc
	movq	%rax, %r13
	movl	%ebx, (%r13)
	movq	%r13, 8(%r12)
	leaq	16(%r12), %rdi
	movq	cCJhc_Prim_Prim_$LcR(%rip), %rsi
	callq	s_alloc
	movq	%rax, %rbx
	movq	%r13, (%rbx)
	movq	%r15, 8(%rbx)
	movq	%rbx, 16(%r12)
	leaq	24(%r12), %rdi
	movq	cCJhc_Type_Basic_Right(%rip), %rsi
	callq	s_alloc
	movq	$65538, (%rax)          # imm = 0x10002
	movq	%rbx, 8(%rax)
	jmp	.LBB46_4
.LBB46_5:
	andl	$-2, %ebx
	cmpq	$66304, %rbx            # imm = 0x10300
	jne	.LBB46_6
.LBB46_4:
	movq	%r12, saved_gc(%rip)
	movq	%r14, %rdi
	addq	$8, %rsp
	popq	%rbx
	popq	%r12
	popq	%r13
	popq	%r14
	popq	%r15
	popq	%rbp
	jmp	free                    # TAILCALL
.LBB46_1:
	movl	$_c63, %esi
	movl	$_c78, %edx
	movq	%r12, %rdi
	callq	fJhc_Basics_$pp
	movq	%r12, %rdi
	movq	%rax, %rsi
	jmp	.LBB46_7
.LBB46_6:
	movl	$_c364, %esi
	movq	%r12, %rdi
.LBB46_7:
	callq	fJhc_IO_putErrLn
	movl	$255, %edi
	callq	jhc_exit
.Lfunc_end46:
	.size	fW$__fHos_User_SysCall_hosWaitOnChannels, .Lfunc_end46-fW$__fHos_User_SysCall_hosWaitOnChannels
	.cfi_endproc
                                        # -- End function
	.p2align	4, 0x90         # -- Begin function fData_Binary_getFrom
	.type	fData_Binary_getFrom,@function
fData_Binary_getFrom:                   # @fData_Binary_getFrom
	.cfi_startproc
# %bb.0:
	pushq	%r15
	.cfi_def_cfa_offset 16
	pushq	%r14
	.cfi_def_cfa_offset 24
	pushq	%r12
	.cfi_def_cfa_offset 32
	pushq	%rbx
	.cfi_def_cfa_offset 40
	subq	$24, %rsp
	.cfi_def_cfa_offset 64
	.cfi_offset %rbx, -40
	.cfi_offset %r12, -32
	.cfi_offset %r14, -24
	.cfi_offset %r15, -16
	movq	%rcx, %r15
	movq	%rdx, %r12
	movq	%rdi, %r14
	movq	%r12, (%rsp)
	movq	%r15, 8(%rsp)
	movaps	(%rsp), %xmm0
	movups	%xmm0, (%r14)
	leaq	16(%r14), %rbx
	movq	%rbx, %rdi
	callq	fData_Binary_get
	movq	%rbx, %rdi
	movq	%rax, %rsi
	movq	%r12, %rdx
	callq	bapply__84437
	movq	%rbx, %rdi
	movq	%rax, %rsi
	movq	%r15, %rdx
	callq	bapply__84437
	movq	%rbx, %rdi
	movq	%rax, %rsi
	callq	bapply__84438
	movq	%rbx, %rdi
	movq	%rax, %rsi
	callq	eval
	movq	%rax, %rcx
	testb	$2, %al
	jne	.LBB47_2
# %bb.1:
	movq	(%rax), %rcx
.LBB47_2:
	cmpq	$65535, %rcx            # imm = 0xFFFF
	ja	.LBB47_4
# %bb.3:
	movq	8(%rax), %rbx
	movq	%rbx, 16(%r14)
	addq	$24, %r14
	movq	cCJhc_Type_Basic_Left(%rip), %rsi
	movq	%r14, %rdi
	callq	s_alloc
	movq	$2, (%rax)
	jmp	.LBB47_5
.LBB47_4:
	movq	8(%rax), %rsi
	movq	%rbx, %rdi
	callq	eval
	movq	(%rax), %rbx
	movq	%rbx, 16(%r14)
	addq	$24, %r14
	movq	cCJhc_Type_Basic_Right(%rip), %rsi
	movq	%r14, %rdi
	callq	s_alloc
	movq	$65538, (%rax)          # imm = 0x10002
.LBB47_5:
	movq	%rax, %rcx
	addq	$8, %rcx
	movq	%rbx, (%rcx)
	addq	$24, %rsp
	popq	%rbx
	popq	%r12
	popq	%r14
	popq	%r15
	retq
.Lfunc_end47:
	.size	fData_Binary_getFrom, .Lfunc_end47-fData_Binary_getFrom
	.cfi_endproc
                                        # -- End function
	.p2align	4, 0x90         # -- Begin function E__fHos_User_IPC_transmitMsg$d12
	.type	E__fHos_User_IPC_transmitMsg$d12,@function
E__fHos_User_IPC_transmitMsg$d12:       # @"E__fHos_User_IPC_transmitMsg$d12"
	.cfi_startproc
# %bb.0:
	pushq	%rbx
	.cfi_def_cfa_offset 16
	.cfi_offset %rbx, -16
	movq	%rsi, %rbx
	movq	%rbx, %rax
	orq	$1, %rax
	movq	%rax, (%rdi)
	addq	$8, %rdi
	movq	8(%rbx), %rsi
	callq	fHos_User_IPC_transmitMsg$d12
	movq	%rax, (%rbx)
	popq	%rbx
	retq
.Lfunc_end48:
	.size	E__fHos_User_IPC_transmitMsg$d12, .Lfunc_end48-E__fHos_User_IPC_transmitMsg$d12
	.cfi_endproc
                                        # -- End function
	.p2align	4, 0x90         # -- Begin function E__fHos_User_IPC_transmitMsg$d11
	.type	E__fHos_User_IPC_transmitMsg$d11,@function
E__fHos_User_IPC_transmitMsg$d11:       # @"E__fHos_User_IPC_transmitMsg$d11"
	.cfi_startproc
# %bb.0:
	pushq	%r15
	.cfi_def_cfa_offset 16
	pushq	%r14
	.cfi_def_cfa_offset 24
	pushq	%r13
	.cfi_def_cfa_offset 32
	pushq	%r12
	.cfi_def_cfa_offset 40
	pushq	%rbx
	.cfi_def_cfa_offset 48
	.cfi_offset %rbx, -48
	.cfi_offset %r12, -40
	.cfi_offset %r13, -32
	.cfi_offset %r14, -24
	.cfi_offset %r15, -16
	movq	%rsi, %r14
	movq	%rdi, %r12
	movq	%r14, %rax
	orq	$1, %rax
	movq	%rax, (%r12)
	movq	8(%r14), %r13
	movq	%r13, 8(%r12)
	leaq	16(%r12), %r15
	movq	cFW$__fInstance$__iData_Binary_put_Jhc_Type_Basic_Char$d2(%rip), %rsi
	movq	%r15, %rdi
	callq	s_alloc
	movq	%rax, %rbx
	movq	$E__fW$__fInstance$__iData_Binary_put_Jhc_Type_Basic_Char$d2+3, (%rbx)
	movq	%r13, 8(%rbx)
	orq	$1, %rbx
	movq	$12713986, 16(%r12)     # imm = 0xC20002
	movq	%rbx, 24(%r12)
	leaq	32(%r12), %rdi
	movq	cP2__W$__fData_Binary_storableB$d2(%rip), %rsi
	callq	s_alloc
	movq	%rax, %r13
	movq	$7012354, (%r13)        # imm = 0x6B0002
	movq	%rbx, 8(%r13)
	movq	$12713986, 16(%r13)     # imm = 0xC20002
	movq	%r13, 32(%r12)
	leaq	40(%r12), %rdi
	movq	cP2__W$__fData_Binary_storableB$d3(%rip), %rsi
	callq	s_alloc
	movq	%rax, %rbx
	movq	$7077890, (%rbx)        # imm = 0x6C0002
	movq	%r13, 8(%rbx)
	movq	%rbx, 8(%r12)
	movq	cCData_Binary_Builder(%rip), %rsi
	movq	%r15, %rdi
	callq	s_alloc
	movq	%rbx, (%rax)
	movq	$1, 8(%rax)
	movq	%rax, (%r14)
	popq	%rbx
	popq	%r12
	popq	%r13
	popq	%r14
	popq	%r15
	retq
.Lfunc_end49:
	.size	E__fHos_User_IPC_transmitMsg$d11, .Lfunc_end49-E__fHos_User_IPC_transmitMsg$d11
	.cfi_endproc
                                        # -- End function
	.p2align	4, 0x90         # -- Begin function fx59642631
	.type	fx59642631,@function
fx59642631:                             # @fx59642631
	.cfi_startproc
# %bb.0:
	pushq	%rbp
	.cfi_def_cfa_offset 16
	pushq	%r15
	.cfi_def_cfa_offset 24
	pushq	%r14
	.cfi_def_cfa_offset 32
	pushq	%r13
	.cfi_def_cfa_offset 40
	pushq	%r12
	.cfi_def_cfa_offset 48
	pushq	%rbx
	.cfi_def_cfa_offset 56
	subq	$40, %rsp
	.cfi_def_cfa_offset 96
	.cfi_offset %rbx, -56
	.cfi_offset %r12, -48
	.cfi_offset %r13, -40
	.cfi_offset %r14, -32
	.cfi_offset %r15, -24
	.cfi_offset %rbp, -16
	movq	%rdi, %r15
	callq	eval
	cmpq	$65538, %rax            # imm = 0x10002
	je	.LBB50_1
# %bb.2:
	movq	(%rax), %rsi
	movq	8(%rax), %r14
	movq	%r14, (%r15)
	leaq	8(%r15), %rdi
	callq	eval
	movq	(%rax), %r12
	movq	8(%rax), %rbx
	movq	%r12, 8(%r15)
	leaq	16(%r15), %rdi
	movq	%r14, %rsi
	callq	fx59642631
	movaps	(%rax), %xmm0
	movaps	%xmm0, 16(%rsp)         # 16-byte Spill
	movlps	%xmm0, 16(%r15)
	leaq	24(%r15), %rdi
	movq	cCData_Binary_Builder(%rip), %rsi
	callq	s_alloc
	movq	%rax, %r14
	movaps	16(%rsp), %xmm0         # 16-byte Reload
	movaps	%xmm0, (%r14)
	movq	%r14, 24(%r15)
	leaq	32(%r15), %rdi
	movq	cCData_Binary_Builder(%rip), %rsi
	callq	s_alloc
	movq	%r12, (%rax)
	movq	%rbx, 8(%rsp)           # 8-byte Spill
	movq	%rbx, 8(%rax)
	movq	(%r14), %r13
	movq	8(%r14), %rbp
	addq	%rbx, %rbp
	movq	%r13, 32(%r15)
	leaq	40(%r15), %r14
	movq	%r12, 40(%r15)
	leaq	48(%r15), %rdi
	movq	cP2__W$__fInstance$__iData_Monoid_mappend_Data_Binary_Builder$d2(%rip), %rsi
	callq	s_alloc
	movq	%rax, %rbx
	movq	$8257538, (%rbx)        # imm = 0x7E0002
	movq	%r12, 8(%rbx)
	movq	8(%rsp), %rax           # 8-byte Reload
	movq	%rax, 24(%rbx)
	movq	%r13, 16(%rbx)
	movq	%rbx, 32(%r15)
	movq	cCData_Binary_Builder(%rip), %rsi
	movq	%r14, %rdi
	callq	s_alloc
	movq	%rbx, (%rax)
	movq	%rbp, 8(%rax)
	movq	%rbx, 32(%r15)
	movq	cCData_Binary_Builder(%rip), %rsi
	movq	%r14, %rdi
	callq	s_alloc
	movq	%rbx, (%rax)
	movq	%rbp, 8(%rax)
	jmp	.LBB50_3
.LBB50_1:
	movl	$_c1, %eax
.LBB50_3:
	addq	$40, %rsp
	popq	%rbx
	popq	%r12
	popq	%r13
	popq	%r14
	popq	%r15
	popq	%rbp
	retq
.Lfunc_end50:
	.size	fx59642631, .Lfunc_end50-fx59642631
	.cfi_endproc
                                        # -- End function
	.p2align	4, 0x90         # -- Begin function E__fHos_User_IPC_transmitMsg$d14
	.type	E__fHos_User_IPC_transmitMsg$d14,@function
E__fHos_User_IPC_transmitMsg$d14:       # @"E__fHos_User_IPC_transmitMsg$d14"
	.cfi_startproc
# %bb.0:
	pushq	%rbp
	.cfi_def_cfa_offset 16
	pushq	%r15
	.cfi_def_cfa_offset 24
	pushq	%r14
	.cfi_def_cfa_offset 32
	pushq	%rbx
	.cfi_def_cfa_offset 40
	pushq	%rax
	.cfi_def_cfa_offset 48
	.cfi_offset %rbx, -40
	.cfi_offset %r14, -32
	.cfi_offset %r15, -24
	.cfi_offset %rbp, -16
	movq	%rsi, %r14
	movq	%rdi, %r15
	movq	%r14, %rax
	orq	$1, %rax
	movq	%rax, (%r15)
	movl	8(%r14), %ebp
	testl	%ebp, %ebp
	jle	.LBB51_2
# %bb.1:
	leaq	8(%r15), %rdi
	addl	$-1, %ebp
	movq	cFHos_User_IPC_transmitMsg$d14(%rip), %rsi
	callq	s_alloc
	movq	%rax, %rbx
	movq	$E__fHos_User_IPC_transmitMsg$d14+3, (%rbx)
	movl	%ebp, 8(%rbx)
	orq	$1, %rbx
	movq	%rbx, 8(%r15)
	addq	$16, %r15
	movq	cCJhc_Prim_Prim_$x3a(%rip), %rsi
	movq	%r15, %rdi
	callq	s_alloc
	movq	$_g1047414841+1, (%rax)
	movq	%rbx, 8(%rax)
	jmp	.LBB51_3
.LBB51_2:
	movl	$1, %edi
	callq	assert
	movl	$65538, %eax            # imm = 0x10002
.LBB51_3:
	movq	%rax, (%r14)
	addq	$8, %rsp
	popq	%rbx
	popq	%r14
	popq	%r15
	popq	%rbp
	retq
.Lfunc_end51:
	.size	E__fHos_User_IPC_transmitMsg$d14, .Lfunc_end51-E__fHos_User_IPC_transmitMsg$d14
	.cfi_endproc
                                        # -- End function
	.section	.rodata.cst16,"aM",@progbits,16
	.p2align	4               # -- Begin function bRfW$__fData_Binary_put
.LCPI52_0:
	.quad	12517378                # 0xbf0002
	.quad	10                      # 0xa
.LCPI52_1:
	.quad	10                      # 0xa
	.quad	12517378                # 0xbf0002
.LCPI52_2:
	.quad	2                       # 0x2
	.quad	4                       # 0x4
.LCPI52_3:
	.quad	12517378                # 0xbf0002
	.quad	6                       # 0x6
.LCPI52_4:
	.quad	6                       # 0x6
	.quad	12517378                # 0xbf0002
.LCPI52_5:
	.quad	12517378                # 0xbf0002
	.quad	2                       # 0x2
.LCPI52_6:
	.quad	2                       # 0x2
	.quad	12517378                # 0xbf0002
	.text
	.p2align	4, 0x90
	.type	bRfW$__fData_Binary_put,@function
bRfW$__fData_Binary_put:                # @"bRfW$__fData_Binary_put"
	.cfi_startproc
# %bb.0:
	pushq	%rbp
	.cfi_def_cfa_offset 16
	pushq	%r15
	.cfi_def_cfa_offset 24
	pushq	%r14
	.cfi_def_cfa_offset 32
	pushq	%r13
	.cfi_def_cfa_offset 40
	pushq	%r12
	.cfi_def_cfa_offset 48
	pushq	%rbx
	.cfi_def_cfa_offset 56
	subq	$40, %rsp
	.cfi_def_cfa_offset 96
	.cfi_offset %rbx, -56
	.cfi_offset %r12, -48
	.cfi_offset %r13, -40
	.cfi_offset %r14, -32
	.cfi_offset %r15, -24
	.cfi_offset %rbp, -16
	movq	%rdx, %rbx
	movq	%rdi, %r13
	testb	$2, %sil
	jne	.LBB52_2
# %bb.1:
	movq	(%rsi), %rsi
.LBB52_2:
	shrq	$16, %rsi
	addq	$-172, %rsi
	cmpq	$15, %rsi
	ja	.LBB52_15
# %bb.3:
	jmpq	*.LJTI52_0(,%rsi,8)
.LBB52_6:
	movq	%r13, %rdi
	movq	%rbx, %rsi
	callq	eval
	movq	%rax, %rcx
	testb	$2, %al
	jne	.LBB52_8
# %bb.7:
	movq	(%rax), %rcx
.LBB52_8:
	shrq	$16, %rcx
	cmpq	$2, %rcx
	je	.LBB52_13
# %bb.9:
	cmpq	$1, %rcx
	je	.LBB52_12
# %bb.10:
	testq	%rcx, %rcx
	jne	.LBB52_14
# %bb.11:
	movq	8(%rax), %r12
	movq	%r12, (%r13)
	leaq	16(%r13), %r14
	movaps	.LCPI52_5(%rip), %xmm0  # xmm0 = [12517378,2]
	movups	%xmm0, 8(%r13)
	leaq	24(%r13), %r15
	movq	cP2__W$__fData_Binary_storableB$d4(%rip), %rsi
	movq	%r15, %rdi
	callq	s_alloc
	movq	%rax, %rbx
	movq	$7143426, (%rbx)        # imm = 0x6D0002
	movaps	.LCPI52_6(%rip), %xmm0  # xmm0 = [2,12517378]
	movups	%xmm0, 8(%rbx)
	movq	%rbx, 24(%r13)
	leaq	32(%r13), %rdi
	movq	cP2__W$__fData_Binary_storableB$d5(%rip), %rsi
	callq	s_alloc
	movq	%rax, %rbp
	movq	$7208962, (%rbp)        # imm = 0x6E0002
	movq	%rbx, 8(%rbp)
	movq	%rbp, 8(%r13)
	movl	$12255234, %esi         # imm = 0xBB0002
	movq	%r14, %rdi
	movq	%r12, %rdx
	callq	fW$__fInstance$__iData_Binary_put_Jhc_Prim_Prim_$BE
	movq	%rax, %rbx
	movq	%rdx, %r14
	addq	$2, %r14
	movq	%rbx, 16(%r13)
	movq	cP2__W$__fData_Binary_put$d4(%rip), %rsi
	movq	%r15, %rdi
	callq	s_alloc
	movq	$6684674, (%rax)        # imm = 0x660002
	movq	$2, 24(%rax)
	movq	%rbp, 8(%rax)
	movq	%rbx, 16(%rax)
	jmp	.LBB52_17
.LBB52_5:
	movq	%rbx, (%r13)
	leaq	8(%r13), %rdi
	movq	cFW$__fInstance$__iData_Binary_put_Jhc_Type_Basic_Char$d2(%rip), %rsi
	callq	s_alloc
	movq	%rax, %rbp
	movq	$E__fW$__fInstance$__iData_Binary_put_Jhc_Type_Basic_Char$d2+3, (%rbp)
	movq	%rbx, 8(%rbp)
	orq	$1, %rbp
	movq	$12713986, 8(%r13)      # imm = 0xC20002
	movq	%rbp, 16(%r13)
	leaq	24(%r13), %rdi
	movq	cP2__W$__fData_Binary_storableB$d2(%rip), %rsi
	callq	s_alloc
	movq	%rax, %rbx
	movq	$7012354, (%rbx)        # imm = 0x6B0002
	movq	%rbp, 8(%rbx)
	movq	$12713986, 16(%rbx)     # imm = 0xC20002
	movq	%rbx, 24(%r13)
	addq	$32, %r13
	movq	cP2__W$__fData_Binary_storableB$d3(%rip), %rsi
	movq	%r13, %rdi
	callq	s_alloc
	movq	$7077890, (%rax)        # imm = 0x6C0002
	movq	%rbx, 8(%rax)
	movl	$1, %r14d
	jmp	.LBB52_17
.LBB52_4:
	movl	$12255234, %esi         # imm = 0xBB0002
	movq	%r13, %rdi
	movq	%rbx, %rdx
	callq	fW$__fInstance$__iData_Binary_put_Jhc_Prim_Prim_$BE
	movq	%rdx, %r14
	jmp	.LBB52_17
.LBB52_16:
	movq	%r13, %rdi
	movq	%rbx, %rsi
	callq	eval
	movq	(%rax), %rdx
	movq	8(%rax), %rbx
	movq	%rbx, (%r13)
	leaq	8(%r13), %rdi
	movl	$_c2, %esi
	callq	bRfW$__fData_Binary_put
	movq	%rax, %r15
	movq	%rdx, %r12
	movq	%r15, 8(%r13)
	leaq	16(%r13), %rdi
	movl	$_c2, %esi
	movq	%rbx, %rdx
	callq	bRfW$__fData_Binary_put
	movq	%rax, %rbx
	movq	%rdx, %r14
	addq	%r12, %r14
	movq	%rbx, 16(%r13)
	addq	$24, %r13
	movq	cP2__W$__fData_Binary_put$d2(%rip), %rsi
	movq	%r13, %rdi
	callq	s_alloc
	movq	$6619138, (%rax)        # imm = 0x650002
	movq	%rbx, 8(%rax)
	movq	%r12, 24(%rax)
	movq	%r15, 16(%rax)
	jmp	.LBB52_17
.LBB52_12:
	movq	8(%rax), %r12
	movq	%r12, (%r13)
	leaq	16(%r13), %r14
	movaps	.LCPI52_3(%rip), %xmm0  # xmm0 = [12517378,6]
	movups	%xmm0, 8(%r13)
	leaq	24(%r13), %r15
	movq	cP2__W$__fData_Binary_storableB$d4(%rip), %rsi
	movq	%r15, %rdi
	callq	s_alloc
	movq	%rax, %rbx
	movq	$7143426, (%rbx)        # imm = 0x6D0002
	movaps	.LCPI52_4(%rip), %xmm0  # xmm0 = [6,12517378]
	movups	%xmm0, 8(%rbx)
	movq	%rbx, 24(%r13)
	leaq	32(%r13), %rdi
	movq	cP2__W$__fData_Binary_storableB$d5(%rip), %rsi
	callq	s_alloc
	movq	%rax, %rbp
	movq	$7208962, (%rbp)        # imm = 0x6E0002
	movq	%rbx, 8(%rbp)
	movq	%rbp, 8(%r13)
	movl	$12255234, %esi         # imm = 0xBB0002
	movq	%r14, %rdi
	movq	%r12, %rdx
	callq	fW$__fInstance$__iData_Binary_put_Jhc_Prim_Prim_$BE
	movq	%rax, %rbx
	movq	%rdx, %r14
	addq	$2, %r14
	movq	%rbx, 16(%r13)
	movq	cP2__W$__fData_Binary_put$d6(%rip), %rsi
	movq	%r15, %rdi
	callq	s_alloc
	movq	$6750210, (%rax)        # imm = 0x670002
	movq	$2, 24(%rax)
	movq	%rbx, 8(%rax)
	movq	%rbp, 16(%rax)
	jmp	.LBB52_17
.LBB52_13:
	movq	8(%rax), %r15
	movq	16(%rax), %rax
	movq	%rax, 8(%rsp)           # 8-byte Spill
	movq	%r15, 16(%rsp)
	movq	%rax, 24(%rsp)
	movaps	16(%rsp), %xmm0
	movups	%xmm0, (%r13)
	movaps	.LCPI52_0(%rip), %xmm0  # xmm0 = [12517378,10]
	movups	%xmm0, 16(%r13)
	leaq	32(%r13), %r14
	movq	cP2__W$__fData_Binary_storableB$d4(%rip), %rsi
	movq	%r14, %rdi
	callq	s_alloc
	movq	%rax, %rbp
	movq	$7143426, (%rbp)        # imm = 0x6D0002
	movaps	.LCPI52_1(%rip), %xmm0  # xmm0 = [10,12517378]
	movups	%xmm0, 8(%rbp)
	movq	%rbp, 32(%r13)
	leaq	40(%r13), %r12
	movq	cP2__W$__fData_Binary_storableB$d5(%rip), %rsi
	movq	%r12, %rdi
	callq	s_alloc
	movq	%rax, %rbx
	movq	$7208962, (%rbx)        # imm = 0x6E0002
	movq	%rbp, 8(%rbx)
	movq	%rbx, 16(%r13)
	movq	$12582914, 24(%r13)     # imm = 0xC00002
	movq	%r15, 32(%r13)
	movq	cP2__W$__fData_Binary_storableB$d6(%rip), %rsi
	movq	%r12, %rdi
	callq	s_alloc
	movq	%rax, %rbp
	movq	$7274498, (%rbp)        # imm = 0x6F0002
	movq	%r15, 8(%rbp)
	movq	$12582914, 16(%rbp)     # imm = 0xC00002
	movq	%rbp, 40(%r13)
	leaq	48(%r13), %rdi
	movq	cP2__W$__fData_Binary_storableB$d7(%rip), %rsi
	callq	s_alloc
	movq	%rax, %r15
	movq	$7340034, (%r15)        # imm = 0x700002
	movq	%rbp, 8(%r15)
	movq	%r15, 24(%r13)
	movl	$_c3, %esi
	movq	%r14, %rdi
	movq	8(%rsp), %rdx           # 8-byte Reload
	callq	fW$__fInstance$__iData_Binary_put_Jhc_Prim_Prim_$BE
	movq	%rax, %rbp
	movq	%rdx, %r14
	addq	$6, %r14
	movq	%rbp, 32(%r13)
	movq	cP2__W$__fData_Binary_put$d8(%rip), %rsi
	movq	%r12, %rdi
	callq	s_alloc
	movq	$6815746, (%rax)        # imm = 0x680002
	movq	%rbx, 8(%rax)
	movaps	.LCPI52_2(%rip), %xmm0  # xmm0 = [2,4]
	movaps	%xmm0, 32(%rax)
	movq	%rbp, 16(%rax)
	movq	%r15, 24(%rax)
.LBB52_17:
	movq	%r14, %rdx
	addq	$40, %rsp
	popq	%rbx
	popq	%r12
	popq	%r13
	popq	%r14
	popq	%r15
	popq	%rbp
	retq
.LBB52_15:
	movl	$6684, %edi             # imm = 0x1A1C
	callq	jhc_case_fell_off
.LBB52_14:
	movl	$6680, %edi             # imm = 0x1A18
	callq	jhc_case_fell_off
.Lfunc_end52:
	.size	bRfW$__fData_Binary_put, .Lfunc_end52-bRfW$__fData_Binary_put
	.cfi_endproc
	.section	.rodata,"a",@progbits
	.p2align	3
.LJTI52_0:
	.quad	.LBB52_6
	.quad	.LBB52_15
	.quad	.LBB52_15
	.quad	.LBB52_15
	.quad	.LBB52_15
	.quad	.LBB52_15
	.quad	.LBB52_15
	.quad	.LBB52_15
	.quad	.LBB52_15
	.quad	.LBB52_15
	.quad	.LBB52_15
	.quad	.LBB52_4
	.quad	.LBB52_15
	.quad	.LBB52_16
	.quad	.LBB52_15
	.quad	.LBB52_5
                                        # -- End function
	.text
	.p2align	4, 0x90         # -- Begin function fW$__fInstance$__iData_Binary_put_Jhc_Prim_Prim_$BE
	.type	fW$__fInstance$__iData_Binary_put_Jhc_Prim_Prim_$BE,@function
fW$__fInstance$__iData_Binary_put_Jhc_Prim_Prim_$BE: # @"fW$__fInstance$__iData_Binary_put_Jhc_Prim_Prim_$BE"
	.cfi_startproc
